
../../install/riscv-isa/auipc:     file format elf32-littleriscv


Disassembly of section .text:

00002000 <_start>:
    2000:	50b02973 	csrr	a0,hartid
    2004:	00091063 	bnez	a0,2004 <_start+0x4>
    2008:	04000913 	li	a0,64
    200c:	50a93073 	csrc	status,a0

00002010 <test_2>:
    2010:	00002917 	auipc	a0,0x2
    2014:	71c90913 	addi	a0,a0,1820 # 472c <begin_signature+0x26ac>
    2018:	004009ef 	jal	a1,201c <test_2+0xc>
    201c:	41390933 	sub	a0,a0,a1
    2020:	00002eb7 	lui	t3,0x2
    2024:	710e8e93 	addi	t3,t3,1808 # 2710 <begin_signature+0x690>
    2028:	00200e13 	li	t2,2
    202c:	03d91463 	bne	a0,t3,2054 <fail>

00002030 <test_3>:
    2030:	ffffe917 	auipc	a0,0xffffe
    2034:	8fc90913 	addi	a0,a0,-1796 # fffff92c <begin_signature+0xffffd8ac>
    2038:	004009ef 	jal	a1,203c <test_3+0xc>
    203c:	41390933 	sub	a0,a0,a1
    2040:	ffffeeb7 	lui	t3,0xffffe
    2044:	8f0e8e93 	addi	t3,t3,-1808 # ffffd8f0 <begin_signature+0xffffb870>
    2048:	00300e13 	li	t2,3
    204c:	01d91463 	bne	a0,t3,2054 <fail>
    2050:	01c01e63 	bne	zero,t2,206c <pass>

00002054 <fail>:
    2054:	0ff0000f 	fence
    2058:	000e0863 	beqz	t2,2068 <fail+0x14>
    205c:	001e1e13 	slli	t2,t2,0x1
    2060:	001e6e13 	ori	t2,t2,1
    2064:	51ee1073 	csrw	tohost,t2
    2068:	00000063 	b	2068 <fail+0x14>

0000206c <pass>:
    206c:	0ff0000f 	fence
    2070:	51e0d073 	csrwi	tohost,1
    2074:	00000063 	b	2074 <pass+0x8>
    2078:	00000013 	nop
    207c:	00000013 	nop
