
../../install/riscv-isa/fence_i:     file format elf32-littleriscv


Disassembly of section .text:

00002000 <_start>:
    2000:	50b02973 	csrr	a0,hartid
    2004:	00091063 	bnez	a0,2004 <_start+0x4>
    2008:	04000913 	li	a0,64
    200c:	50a93073 	csrc	status,a0
    2010:	06f00a93 	li	a3,111
    2014:	00000917 	auipc	a0,0x0
    2018:	08090913 	addi	a0,a0,128 # 2094 <test_3+0x10>
    201c:	00000997 	auipc	a1,0x0
    2020:	02c98993 	addi	a1,a1,44 # 2048 <_start+0x48>
    2024:	00000a17 	auipc	a2,0x0
    2028:	05ca0a13 	addi	a2,a2,92 # 2080 <test_2+0x34>
    202c:	00092903 	lw	a0,0(a0)
    2030:	00000013 	nop
    2034:	00000013 	nop
    2038:	00000013 	nop
    203c:	00000013 	nop
    2040:	0129a023 	sw	a0,0(a1)
    2044:	0000100f 	fence.i
    2048:	0dea8a93 	addi	a3,a3,222

0000204c <test_2>:
    204c:	00000013 	nop
    2050:	1bc00e93 	li	t3,444
    2054:	00200e13 	li	t2,2
    2058:	05da9263 	bne	a3,t3,209c <fail>
    205c:	06400b13 	li	a4,100
    2060:	fffb0b13 	addi	a4,a4,-1
    2064:	fe0b1ee3 	bnez	a4,2060 <test_2+0x14>
    2068:	012a2023 	sw	a0,0(a2)
    206c:	0000100f 	fence.i
    2070:	00000013 	nop
    2074:	00000013 	nop
    2078:	00000013 	nop
    207c:	00000013 	nop
    2080:	22ba8a93 	addi	a3,a3,555

00002084 <test_3>:
    2084:	00000013 	nop
    2088:	30900e93 	li	t3,777
    208c:	00300e13 	li	t2,3
    2090:	01da9663 	bne	a3,t3,209c <fail>
    2094:	14da8a93 	addi	a3,a3,333
    2098:	01c01e63 	bne	zero,t2,20b4 <pass>

0000209c <fail>:
    209c:	0ff0000f 	fence
    20a0:	000e0863 	beqz	t2,20b0 <fail+0x14>
    20a4:	001e1e13 	slli	t2,t2,0x1
    20a8:	001e6e13 	ori	t2,t2,1
    20ac:	51ee1073 	csrw	tohost,t2
    20b0:	00000063 	b	20b0 <fail+0x14>

000020b4 <pass>:
    20b4:	0ff0000f 	fence
    20b8:	51e0d073 	csrwi	tohost,1
    20bc:	00000063 	b	20bc <pass+0x8>
