
../../install/riscv-isa/jal:     file format elf32-littleriscv


Disassembly of section .text:

00002000 <_start>:
    2000:	50b02973 	csrr	a0,hartid
    2004:	00091063 	bnez	a0,2004 <_start+0x4>
    2008:	04000913 	li	a0,64
    200c:	50a93073 	csrc	status,a0

00002010 <test_2>:
    2010:	00200e13 	li	t2,2
    2014:	00000093 	li	ra,0

00002018 <linkaddr_2>:
    2018:	010000ef 	jal	2028 <target_2>
    201c:	00000013 	nop
    2020:	00000013 	nop
    2024:	0440006f 	j	2068 <fail>

00002028 <target_2>:
    2028:	00000117 	auipc	s0,0x0
    202c:	ff010113 	addi	s0,s0,-16 # 2018 <linkaddr_2>
    2030:	00410113 	addi	s0,s0,4
    2034:	02111a63 	bne	s0,ra,2068 <fail>

00002038 <test_3>:
    2038:	00100113 	li	s0,1
    203c:	014000ef 	jal	2050 <test_3+0x18>
    2040:	00110113 	addi	s0,s0,1
    2044:	00110113 	addi	s0,s0,1
    2048:	00110113 	addi	s0,s0,1
    204c:	00110113 	addi	s0,s0,1
    2050:	00110113 	addi	s0,s0,1
    2054:	00110113 	addi	s0,s0,1
    2058:	00300e93 	li	t3,3
    205c:	00300e13 	li	t2,3
    2060:	01d11463 	bne	s0,t3,2068 <fail>
    2064:	01c01e63 	bne	zero,t2,2080 <pass>

00002068 <fail>:
    2068:	0ff0000f 	fence
    206c:	000e0863 	beqz	t2,207c <fail+0x14>
    2070:	001e1e13 	slli	t2,t2,0x1
    2074:	001e6e13 	ori	t2,t2,1
    2078:	51ee1073 	csrw	tohost,t2
    207c:	00000063 	b	207c <fail+0x14>

00002080 <pass>:
    2080:	0ff0000f 	fence
    2084:	51e0d073 	csrwi	tohost,1
    2088:	00000063 	b	2088 <pass+0x8>
    208c:	00000013 	nop
