
../../install/riscv-isa/jalr:     file format elf32-littleriscv


Disassembly of section .text:

00002000 <_start>:
    2000:	50b02973 	csrr	a0,hartid
    2004:	00091063 	bnez	a0,2004 <_start+0x4>
    2008:	04000913 	li	a0,64
    200c:	50a93073 	csrc	status,a0

00002010 <test_2>:
    2010:	00200e13 	li	t2,2
    2014:	00000f93 	li	gp,0
    2018:	00000117 	auipc	s0,0x0
    201c:	01810113 	addi	s0,s0,24 # 2030 <target_2>

00002020 <linkaddr_2>:
    2020:	000109e7 	jalr	a1,s0
    2024:	00000013 	nop
    2028:	00000013 	nop
    202c:	0e40006f 	j	2110 <fail>

00002030 <target_2>:
    2030:	00000097 	auipc	ra,0x0
    2034:	ff008093 	addi	ra,ra,-16 # 2020 <linkaddr_2>
    2038:	00408093 	addi	ra,ra,4
    203c:	0d309a63 	bne	ra,a1,2110 <fail>

00002040 <test_3>:
    2040:	00300e13 	li	t2,3
    2044:	00000f93 	li	gp,0
    2048:	00000197 	auipc	s1,0x0
    204c:	01418193 	addi	s1,s1,20 # 205c <target_3>

00002050 <linkaddr_3>:
    2050:	00018067 	jr	s1
    2054:	00000013 	nop
    2058:	0b80006f 	j	2110 <fail>

0000205c <target_3>:
    205c:	0a0f9a63 	bnez	gp,2110 <fail>

00002060 <test_4>:
    2060:	00400e13 	li	t2,4
    2064:	00000213 	li	s2,0
    2068:	00000317 	auipc	s4,0x0
    206c:	01030313 	addi	s4,s4,16 # 2078 <test_4+0x18>
    2070:	000309e7 	jalr	a1,s4
    2074:	09c01e63 	bne	zero,t2,2110 <fail>
    2078:	00120213 	addi	s2,s2,1
    207c:	00200293 	li	s3,2
    2080:	fe5214e3 	bne	s2,s3,2068 <test_4+0x8>

00002084 <test_5>:
    2084:	00500e13 	li	t2,5
    2088:	00000213 	li	s2,0
    208c:	00000317 	auipc	s4,0x0
    2090:	01430313 	addi	s4,s4,20 # 20a0 <test_5+0x1c>
    2094:	00000013 	nop
    2098:	000309e7 	jalr	a1,s4
    209c:	07c01a63 	bne	zero,t2,2110 <fail>
    20a0:	00120213 	addi	s2,s2,1
    20a4:	00200293 	li	s3,2
    20a8:	fe5212e3 	bne	s2,s3,208c <test_5+0x8>

000020ac <test_6>:
    20ac:	00600e13 	li	t2,6
    20b0:	00000213 	li	s2,0
    20b4:	00000317 	auipc	s4,0x0
    20b8:	01830313 	addi	s4,s4,24 # 20cc <test_6+0x20>
    20bc:	00000013 	nop
    20c0:	00000013 	nop
    20c4:	000309e7 	jalr	a1,s4
    20c8:	05c01463 	bne	zero,t2,2110 <fail>
    20cc:	00120213 	addi	s2,s2,1
    20d0:	00200293 	li	s3,2
    20d4:	fe5210e3 	bne	s2,s3,20b4 <test_6+0x8>

000020d8 <test_7>:
    20d8:	00100093 	li	ra,1
    20dc:	00000117 	auipc	s0,0x0
    20e0:	01c10113 	addi	s0,s0,28 # 20f8 <test_7+0x20>
    20e4:	ffc109e7 	jalr	a1,s0,-4
    20e8:	00108093 	addi	ra,ra,1
    20ec:	00108093 	addi	ra,ra,1
    20f0:	00108093 	addi	ra,ra,1
    20f4:	00108093 	addi	ra,ra,1
    20f8:	00108093 	addi	ra,ra,1
    20fc:	00108093 	addi	ra,ra,1
    2100:	00400e93 	li	t3,4
    2104:	00700e13 	li	t2,7
    2108:	01d09463 	bne	ra,t3,2110 <fail>
    210c:	01c01e63 	bne	zero,t2,2128 <pass>

00002110 <fail>:
    2110:	0ff0000f 	fence
    2114:	000e0863 	beqz	t2,2124 <fail+0x14>
    2118:	001e1e13 	slli	t2,t2,0x1
    211c:	001e6e13 	ori	t2,t2,1
    2120:	51ee1073 	csrw	tohost,t2
    2124:	00000063 	b	2124 <fail+0x14>

00002128 <pass>:
    2128:	0ff0000f 	fence
    212c:	51e0d073 	csrwi	tohost,1
    2130:	00000063 	b	2130 <pass+0x8>
    2134:	00000013 	nop
    2138:	00000013 	nop
    213c:	00000013 	nop
