
../../install/riscv-isa/sh:     file format elf32-littleriscv


Disassembly of section .text:

00002000 <_start>:
    2000:	50b02973 	csrr	a0,hartid
    2004:	00091063 	bnez	a0,2004 <_start+0x4>
    2008:	04000913 	li	a0,64
    200c:	50a93073 	csrc	status,a0

00002010 <test_2>:
    2010:	00000097 	auipc	ra,0x0
    2014:	4a008093 	addi	ra,ra,1184 # 24b0 <begin_signature>
    2018:	0aa00113 	li	s0,170
    201c:	00209023 	sh	s0,0(ra)
    2020:	00009183 	lh	s1,0(ra)
    2024:	0aa00e93 	li	t3,170
    2028:	00200e13 	li	t2,2
    202c:	45d19e63 	bne	s1,t3,2488 <fail>

00002030 <test_3>:
    2030:	00000097 	auipc	ra,0x0
    2034:	48008093 	addi	ra,ra,1152 # 24b0 <begin_signature>
    2038:	ffffb137 	lui	s0,0xffffb
    203c:	a0010113 	addi	s0,s0,-1536 # ffffaa00 <_end+0xffff8530>
    2040:	00209123 	sh	s0,2(ra)
    2044:	00209183 	lh	s1,2(ra)
    2048:	ffffbeb7 	lui	t3,0xffffb
    204c:	a00e8e93 	addi	t3,t3,-1536 # ffffaa00 <_end+0xffff8530>
    2050:	00300e13 	li	t2,3
    2054:	43d19a63 	bne	s1,t3,2488 <fail>

00002058 <test_4>:
    2058:	00000097 	auipc	ra,0x0
    205c:	45808093 	addi	ra,ra,1112 # 24b0 <begin_signature>
    2060:	beef1137 	lui	s0,0xbeef1
    2064:	aa010113 	addi	s0,s0,-1376 # beef0aa0 <_end+0xbeeee5d0>
    2068:	00209223 	sh	s0,4(ra)
    206c:	0040a183 	lw	s1,4(ra)
    2070:	beef1eb7 	lui	t3,0xbeef1
    2074:	aa0e8e93 	addi	t3,t3,-1376 # beef0aa0 <_end+0xbeeee5d0>
    2078:	00400e13 	li	t2,4
    207c:	41d19663 	bne	s1,t3,2488 <fail>

00002080 <test_5>:
    2080:	00000097 	auipc	ra,0x0
    2084:	43008093 	addi	ra,ra,1072 # 24b0 <begin_signature>
    2088:	ffffa137 	lui	s0,0xffffa
    208c:	00a10113 	addi	s0,s0,10 # ffffa00a <_end+0xffff7b3a>
    2090:	00209323 	sh	s0,6(ra)
    2094:	00609183 	lh	s1,6(ra)
    2098:	ffffaeb7 	lui	t3,0xffffa
    209c:	00ae8e93 	addi	t3,t3,10 # ffffa00a <_end+0xffff7b3a>
    20a0:	00500e13 	li	t2,5
    20a4:	3fd19263 	bne	s1,t3,2488 <fail>

000020a8 <test_6>:
    20a8:	00000097 	auipc	ra,0x0
    20ac:	41608093 	addi	ra,ra,1046 # 24be <tdat8>
    20b0:	0aa00113 	li	s0,170
    20b4:	fe209d23 	sh	s0,-6(ra)
    20b8:	ffa09183 	lh	s1,-6(ra)
    20bc:	0aa00e93 	li	t3,170
    20c0:	00600e13 	li	t2,6
    20c4:	3dd19263 	bne	s1,t3,2488 <fail>

000020c8 <test_7>:
    20c8:	00000097 	auipc	ra,0x0
    20cc:	3f608093 	addi	ra,ra,1014 # 24be <tdat8>
    20d0:	ffffb137 	lui	s0,0xffffb
    20d4:	a0010113 	addi	s0,s0,-1536 # ffffaa00 <_end+0xffff8530>
    20d8:	fe209e23 	sh	s0,-4(ra)
    20dc:	ffc09183 	lh	s1,-4(ra)
    20e0:	ffffbeb7 	lui	t3,0xffffb
    20e4:	a00e8e93 	addi	t3,t3,-1536 # ffffaa00 <_end+0xffff8530>
    20e8:	00700e13 	li	t2,7
    20ec:	39d19e63 	bne	s1,t3,2488 <fail>

000020f0 <test_8>:
    20f0:	00000097 	auipc	ra,0x0
    20f4:	3ce08093 	addi	ra,ra,974 # 24be <tdat8>
    20f8:	00001137 	lui	s0,0x1
    20fc:	aa010113 	addi	s0,s0,-1376 # aa0 <_start-0x1560>
    2100:	fe209f23 	sh	s0,-2(ra)
    2104:	ffe09183 	lh	s1,-2(ra)
    2108:	00001eb7 	lui	t3,0x1
    210c:	aa0e8e93 	addi	t3,t3,-1376 # aa0 <_start-0x1560>
    2110:	00800e13 	li	t2,8
    2114:	37d19a63 	bne	s1,t3,2488 <fail>

00002118 <test_9>:
    2118:	00000097 	auipc	ra,0x0
    211c:	3a608093 	addi	ra,ra,934 # 24be <tdat8>
    2120:	ffffa137 	lui	s0,0xffffa
    2124:	00a10113 	addi	s0,s0,10 # ffffa00a <_end+0xffff7b3a>
    2128:	00209023 	sh	s0,0(ra)
    212c:	00009183 	lh	s1,0(ra)
    2130:	ffffaeb7 	lui	t3,0xffffa
    2134:	00ae8e93 	addi	t3,t3,10 # ffffa00a <_end+0xffff7b3a>
    2138:	00900e13 	li	t2,9
    213c:	35d19663 	bne	s1,t3,2488 <fail>

00002140 <test_10>:
    2140:	00000097 	auipc	ra,0x0
    2144:	38008093 	addi	ra,ra,896 # 24c0 <tdat9>
    2148:	12345137 	lui	s0,0x12345
    214c:	67810113 	addi	s0,s0,1656 # 12345678 <_end+0x123431a8>
    2150:	fe008213 	addi	s2,ra,-32
    2154:	02221023 	sh	s0,32(s2)
    2158:	00009183 	lh	s1,0(ra)
    215c:	00005eb7 	lui	t3,0x5
    2160:	678e8e93 	addi	t3,t3,1656 # 5678 <_end+0x31a8>
    2164:	00a00e13 	li	t2,10
    2168:	33d19063 	bne	s1,t3,2488 <fail>

0000216c <test_11>:
    216c:	00000097 	auipc	ra,0x0
    2170:	35408093 	addi	ra,ra,852 # 24c0 <tdat9>
    2174:	00003137 	lui	s0,0x3
    2178:	09810113 	addi	s0,s0,152 # 3098 <_end+0xbc8>
    217c:	ffb08093 	addi	ra,ra,-5
    2180:	002093a3 	sh	s0,7(ra)
    2184:	00000217 	auipc	s2,0x0
    2188:	33e20213 	addi	s2,s2,830 # 24c2 <tdat10>
    218c:	00021183 	lh	s1,0(s2)
    2190:	00003eb7 	lui	t3,0x3
    2194:	098e8e93 	addi	t3,t3,152 # 3098 <_end+0xbc8>
    2198:	00b00e13 	li	t2,11
    219c:	2fd19663 	bne	s1,t3,2488 <fail>

000021a0 <test_12>:
    21a0:	00c00e13 	li	t2,12
    21a4:	00000213 	li	s2,0
    21a8:	ffffd0b7 	lui	ra,0xffffd
    21ac:	cdd08093 	addi	ra,ra,-803 # ffffccdd <_end+0xffffa80d>
    21b0:	00000117 	auipc	s0,0x0
    21b4:	30010113 	addi	s0,s0,768 # 24b0 <begin_signature>
    21b8:	00111023 	sh	ra,0(s0)
    21bc:	00011183 	lh	s1,0(s0)
    21c0:	ffffdeb7 	lui	t3,0xffffd
    21c4:	cdde8e93 	addi	t3,t3,-803 # ffffccdd <_end+0xffffa80d>
    21c8:	2dd19063 	bne	s1,t3,2488 <fail>
    21cc:	00120213 	addi	s2,s2,1
    21d0:	00200293 	li	s3,2
    21d4:	fc521ae3 	bne	s2,s3,21a8 <test_12+0x8>

000021d8 <test_13>:
    21d8:	00d00e13 	li	t2,13
    21dc:	00000213 	li	s2,0
    21e0:	ffffc0b7 	lui	ra,0xffffc
    21e4:	ccd08093 	addi	ra,ra,-819 # ffffbccd <_end+0xffff97fd>
    21e8:	00000117 	auipc	s0,0x0
    21ec:	2c810113 	addi	s0,s0,712 # 24b0 <begin_signature>
    21f0:	00000013 	nop
    21f4:	00111123 	sh	ra,2(s0)
    21f8:	00211183 	lh	s1,2(s0)
    21fc:	ffffceb7 	lui	t3,0xffffc
    2200:	ccde8e93 	addi	t3,t3,-819 # ffffbccd <_end+0xffff97fd>
    2204:	29d19263 	bne	s1,t3,2488 <fail>
    2208:	00120213 	addi	s2,s2,1
    220c:	00200293 	li	s3,2
    2210:	fc5218e3 	bne	s2,s3,21e0 <test_13+0x8>

00002214 <test_14>:
    2214:	00e00e13 	li	t2,14
    2218:	00000213 	li	s2,0
    221c:	ffffc0b7 	lui	ra,0xffffc
    2220:	bcc08093 	addi	ra,ra,-1076 # ffffbbcc <_end+0xffff96fc>
    2224:	00000117 	auipc	s0,0x0
    2228:	28c10113 	addi	s0,s0,652 # 24b0 <begin_signature>
    222c:	00000013 	nop
    2230:	00000013 	nop
    2234:	00111223 	sh	ra,4(s0)
    2238:	00411183 	lh	s1,4(s0)
    223c:	ffffceb7 	lui	t3,0xffffc
    2240:	bcce8e93 	addi	t3,t3,-1076 # ffffbbcc <_end+0xffff96fc>
    2244:	25d19263 	bne	s1,t3,2488 <fail>
    2248:	00120213 	addi	s2,s2,1
    224c:	00200293 	li	s3,2
    2250:	fc5216e3 	bne	s2,s3,221c <test_14+0x8>

00002254 <test_15>:
    2254:	00f00e13 	li	t2,15
    2258:	00000213 	li	s2,0
    225c:	ffffb0b7 	lui	ra,0xffffb
    2260:	bbc08093 	addi	ra,ra,-1092 # ffffabbc <_end+0xffff86ec>
    2264:	00000013 	nop
    2268:	00000117 	auipc	s0,0x0
    226c:	24810113 	addi	s0,s0,584 # 24b0 <begin_signature>
    2270:	00111323 	sh	ra,6(s0)
    2274:	00611183 	lh	s1,6(s0)
    2278:	ffffbeb7 	lui	t3,0xffffb
    227c:	bbce8e93 	addi	t3,t3,-1092 # ffffabbc <_end+0xffff86ec>
    2280:	21d19463 	bne	s1,t3,2488 <fail>
    2284:	00120213 	addi	s2,s2,1
    2288:	00200293 	li	s3,2
    228c:	fc5218e3 	bne	s2,s3,225c <test_15+0x8>

00002290 <test_16>:
    2290:	01000e13 	li	t2,16
    2294:	00000213 	li	s2,0
    2298:	ffffb0b7 	lui	ra,0xffffb
    229c:	abb08093 	addi	ra,ra,-1349 # ffffaabb <_end+0xffff85eb>
    22a0:	00000013 	nop
    22a4:	00000117 	auipc	s0,0x0
    22a8:	20c10113 	addi	s0,s0,524 # 24b0 <begin_signature>
    22ac:	00000013 	nop
    22b0:	00111423 	sh	ra,8(s0)
    22b4:	00811183 	lh	s1,8(s0)
    22b8:	ffffbeb7 	lui	t3,0xffffb
    22bc:	abbe8e93 	addi	t3,t3,-1349 # ffffaabb <_end+0xffff85eb>
    22c0:	1dd19463 	bne	s1,t3,2488 <fail>
    22c4:	00120213 	addi	s2,s2,1
    22c8:	00200293 	li	s3,2
    22cc:	fc5216e3 	bne	s2,s3,2298 <test_16+0x8>

000022d0 <test_17>:
    22d0:	01100e13 	li	t2,17
    22d4:	00000213 	li	s2,0
    22d8:	ffffe0b7 	lui	ra,0xffffe
    22dc:	aab08093 	addi	ra,ra,-1365 # ffffdaab <_end+0xffffb5db>
    22e0:	00000013 	nop
    22e4:	00000013 	nop
    22e8:	00000117 	auipc	s0,0x0
    22ec:	1c810113 	addi	s0,s0,456 # 24b0 <begin_signature>
    22f0:	00111523 	sh	ra,10(s0)
    22f4:	00a11183 	lh	s1,10(s0)
    22f8:	ffffeeb7 	lui	t3,0xffffe
    22fc:	aabe8e93 	addi	t3,t3,-1365 # ffffdaab <_end+0xffffb5db>
    2300:	19d19463 	bne	s1,t3,2488 <fail>
    2304:	00120213 	addi	s2,s2,1
    2308:	00200293 	li	s3,2
    230c:	fc5216e3 	bne	s2,s3,22d8 <test_17+0x8>

00002310 <test_18>:
    2310:	01200e13 	li	t2,18
    2314:	00000213 	li	s2,0
    2318:	00000117 	auipc	s0,0x0
    231c:	19810113 	addi	s0,s0,408 # 24b0 <begin_signature>
    2320:	000020b7 	lui	ra,0x2
    2324:	23308093 	addi	ra,ra,563 # 2233 <test_14+0x1f>
    2328:	00111023 	sh	ra,0(s0)
    232c:	00011183 	lh	s1,0(s0)
    2330:	00002eb7 	lui	t3,0x2
    2334:	233e8e93 	addi	t3,t3,563 # 2233 <test_14+0x1f>
    2338:	15d19863 	bne	s1,t3,2488 <fail>
    233c:	00120213 	addi	s2,s2,1
    2340:	00200293 	li	s3,2
    2344:	fc521ae3 	bne	s2,s3,2318 <test_18+0x8>

00002348 <test_19>:
    2348:	01300e13 	li	t2,19
    234c:	00000213 	li	s2,0
    2350:	00000117 	auipc	s0,0x0
    2354:	16010113 	addi	s0,s0,352 # 24b0 <begin_signature>
    2358:	000010b7 	lui	ra,0x1
    235c:	22308093 	addi	ra,ra,547 # 1223 <_start-0xddd>
    2360:	00000013 	nop
    2364:	00111123 	sh	ra,2(s0)
    2368:	00211183 	lh	s1,2(s0)
    236c:	00001eb7 	lui	t3,0x1
    2370:	223e8e93 	addi	t3,t3,547 # 1223 <_start-0xddd>
    2374:	11d19a63 	bne	s1,t3,2488 <fail>
    2378:	00120213 	addi	s2,s2,1
    237c:	00200293 	li	s3,2
    2380:	fc5218e3 	bne	s2,s3,2350 <test_19+0x8>

00002384 <test_20>:
    2384:	01400e13 	li	t2,20
    2388:	00000213 	li	s2,0
    238c:	00000117 	auipc	s0,0x0
    2390:	12410113 	addi	s0,s0,292 # 24b0 <begin_signature>
    2394:	000010b7 	lui	ra,0x1
    2398:	12208093 	addi	ra,ra,290 # 1122 <_start-0xede>
    239c:	00000013 	nop
    23a0:	00000013 	nop
    23a4:	00111223 	sh	ra,4(s0)
    23a8:	00411183 	lh	s1,4(s0)
    23ac:	00001eb7 	lui	t3,0x1
    23b0:	122e8e93 	addi	t3,t3,290 # 1122 <_start-0xede>
    23b4:	0dd19a63 	bne	s1,t3,2488 <fail>
    23b8:	00120213 	addi	s2,s2,1
    23bc:	00200293 	li	s3,2
    23c0:	fc5216e3 	bne	s2,s3,238c <test_20+0x8>

000023c4 <test_21>:
    23c4:	01500e13 	li	t2,21
    23c8:	00000213 	li	s2,0
    23cc:	00000117 	auipc	s0,0x0
    23d0:	0e410113 	addi	s0,s0,228 # 24b0 <begin_signature>
    23d4:	00000013 	nop
    23d8:	11200093 	li	ra,274
    23dc:	00111323 	sh	ra,6(s0)
    23e0:	00611183 	lh	s1,6(s0)
    23e4:	11200e93 	li	t3,274
    23e8:	0bd19063 	bne	s1,t3,2488 <fail>
    23ec:	00120213 	addi	s2,s2,1
    23f0:	00200293 	li	s3,2
    23f4:	fc521ce3 	bne	s2,s3,23cc <test_21+0x8>

000023f8 <test_22>:
    23f8:	01600e13 	li	t2,22
    23fc:	00000213 	li	s2,0
    2400:	00000117 	auipc	s0,0x0
    2404:	0b010113 	addi	s0,s0,176 # 24b0 <begin_signature>
    2408:	00000013 	nop
    240c:	01100093 	li	ra,17
    2410:	00000013 	nop
    2414:	00111423 	sh	ra,8(s0)
    2418:	00811183 	lh	s1,8(s0)
    241c:	01100e93 	li	t3,17
    2420:	07d19463 	bne	s1,t3,2488 <fail>
    2424:	00120213 	addi	s2,s2,1
    2428:	00200293 	li	s3,2
    242c:	fc521ae3 	bne	s2,s3,2400 <test_22+0x8>

00002430 <test_23>:
    2430:	01700e13 	li	t2,23
    2434:	00000213 	li	s2,0
    2438:	00000117 	auipc	s0,0x0
    243c:	07810113 	addi	s0,s0,120 # 24b0 <begin_signature>
    2440:	00000013 	nop
    2444:	00000013 	nop
    2448:	000030b7 	lui	ra,0x3
    244c:	00108093 	addi	ra,ra,1 # 3001 <_end+0xb31>
    2450:	00111523 	sh	ra,10(s0)
    2454:	00a11183 	lh	s1,10(s0)
    2458:	00003eb7 	lui	t3,0x3
    245c:	001e8e93 	addi	t3,t3,1 # 3001 <_end+0xb31>
    2460:	03d19463 	bne	s1,t3,2488 <fail>
    2464:	00120213 	addi	s2,s2,1
    2468:	00200293 	li	s3,2
    246c:	fc5216e3 	bne	s2,s3,2438 <test_23+0x8>
    2470:	0000c937 	lui	a0,0xc
    2474:	eef90913 	addi	a0,a0,-273 # beef <_end+0x9a1f>
    2478:	00000997 	auipc	a1,0x0
    247c:	03898993 	addi	a1,a1,56 # 24b0 <begin_signature>
    2480:	01299323 	sh	a0,6(a1)
    2484:	01c01e63 	bne	zero,t2,24a0 <pass>

00002488 <fail>:
    2488:	0ff0000f 	fence
    248c:	000e0863 	beqz	t2,249c <fail+0x14>
    2490:	001e1e13 	slli	t2,t2,0x1
    2494:	001e6e13 	ori	t2,t2,1
    2498:	51ee1073 	csrw	tohost,t2
    249c:	00000063 	b	249c <fail+0x14>

000024a0 <pass>:
    24a0:	0ff0000f 	fence
    24a4:	51e0d073 	csrwi	tohost,1
    24a8:	00000063 	b	24a8 <pass+0x8>
    24ac:	00000013 	nop
