
../../install/riscv-isa/sw:     file format elf32-littleriscv


Disassembly of section .text:

00002000 <_start>:
    2000:	50b02973 	csrr	a0,hartid
    2004:	00091063 	bnez	a0,2004 <_start+0x4>
    2008:	04000913 	li	a0,64
    200c:	50a93073 	csrc	status,a0

00002010 <test_2>:
    2010:	00000097 	auipc	ra,0x0
    2014:	4b008093 	addi	ra,ra,1200 # 24c0 <begin_signature>
    2018:	00aa0137 	lui	s0,0xaa0
    201c:	0aa10113 	addi	s0,s0,170 # aa00aa <_end+0xa9dbba>
    2020:	0020a023 	sw	s0,0(ra)
    2024:	0000a183 	lw	s1,0(ra)
    2028:	00aa0eb7 	lui	t3,0xaa0
    202c:	0aae8e93 	addi	t3,t3,170 # aa00aa <_end+0xa9dbba>
    2030:	00200e13 	li	t2,2
    2034:	47d19063 	bne	s1,t3,2494 <fail>

00002038 <test_3>:
    2038:	00000097 	auipc	ra,0x0
    203c:	48808093 	addi	ra,ra,1160 # 24c0 <begin_signature>
    2040:	aa00b137 	lui	s0,0xaa00b
    2044:	a0010113 	addi	s0,s0,-1536 # aa00aa00 <_end+0xaa008510>
    2048:	0020a223 	sw	s0,4(ra)
    204c:	0040a183 	lw	s1,4(ra)
    2050:	aa00beb7 	lui	t3,0xaa00b
    2054:	a00e8e93 	addi	t3,t3,-1536 # aa00aa00 <_end+0xaa008510>
    2058:	00300e13 	li	t2,3
    205c:	43d19c63 	bne	s1,t3,2494 <fail>

00002060 <test_4>:
    2060:	00000097 	auipc	ra,0x0
    2064:	46008093 	addi	ra,ra,1120 # 24c0 <begin_signature>
    2068:	0aa01137 	lui	s0,0xaa01
    206c:	aa010113 	addi	s0,s0,-1376 # aa00aa0 <_end+0xa9fe5b0>
    2070:	0020a423 	sw	s0,8(ra)
    2074:	0080a183 	lw	s1,8(ra)
    2078:	0aa01eb7 	lui	t3,0xaa01
    207c:	aa0e8e93 	addi	t3,t3,-1376 # aa00aa0 <_end+0xa9fe5b0>
    2080:	00400e13 	li	t2,4
    2084:	41d19863 	bne	s1,t3,2494 <fail>

00002088 <test_5>:
    2088:	00000097 	auipc	ra,0x0
    208c:	43808093 	addi	ra,ra,1080 # 24c0 <begin_signature>
    2090:	a00aa137 	lui	s0,0xa00aa
    2094:	00a10113 	addi	s0,s0,10 # a00aa00a <_end+0xa00a7b1a>
    2098:	0020a623 	sw	s0,12(ra)
    209c:	00c0a183 	lw	s1,12(ra)
    20a0:	a00aaeb7 	lui	t3,0xa00aa
    20a4:	00ae8e93 	addi	t3,t3,10 # a00aa00a <_end+0xa00a7b1a>
    20a8:	00500e13 	li	t2,5
    20ac:	3fd19463 	bne	s1,t3,2494 <fail>

000020b0 <test_6>:
    20b0:	00000097 	auipc	ra,0x0
    20b4:	42c08093 	addi	ra,ra,1068 # 24dc <tdat8>
    20b8:	00aa0137 	lui	s0,0xaa0
    20bc:	0aa10113 	addi	s0,s0,170 # aa00aa <_end+0xa9dbba>
    20c0:	fe20aa23 	sw	s0,-12(ra)
    20c4:	ff40a183 	lw	s1,-12(ra)
    20c8:	00aa0eb7 	lui	t3,0xaa0
    20cc:	0aae8e93 	addi	t3,t3,170 # aa00aa <_end+0xa9dbba>
    20d0:	00600e13 	li	t2,6
    20d4:	3dd19063 	bne	s1,t3,2494 <fail>

000020d8 <test_7>:
    20d8:	00000097 	auipc	ra,0x0
    20dc:	40408093 	addi	ra,ra,1028 # 24dc <tdat8>
    20e0:	aa00b137 	lui	s0,0xaa00b
    20e4:	a0010113 	addi	s0,s0,-1536 # aa00aa00 <_end+0xaa008510>
    20e8:	fe20ac23 	sw	s0,-8(ra)
    20ec:	ff80a183 	lw	s1,-8(ra)
    20f0:	aa00beb7 	lui	t3,0xaa00b
    20f4:	a00e8e93 	addi	t3,t3,-1536 # aa00aa00 <_end+0xaa008510>
    20f8:	00700e13 	li	t2,7
    20fc:	39d19c63 	bne	s1,t3,2494 <fail>

00002100 <test_8>:
    2100:	00000097 	auipc	ra,0x0
    2104:	3dc08093 	addi	ra,ra,988 # 24dc <tdat8>
    2108:	0aa01137 	lui	s0,0xaa01
    210c:	aa010113 	addi	s0,s0,-1376 # aa00aa0 <_end+0xa9fe5b0>
    2110:	fe20ae23 	sw	s0,-4(ra)
    2114:	ffc0a183 	lw	s1,-4(ra)
    2118:	0aa01eb7 	lui	t3,0xaa01
    211c:	aa0e8e93 	addi	t3,t3,-1376 # aa00aa0 <_end+0xa9fe5b0>
    2120:	00800e13 	li	t2,8
    2124:	37d19863 	bne	s1,t3,2494 <fail>

00002128 <test_9>:
    2128:	00000097 	auipc	ra,0x0
    212c:	3b408093 	addi	ra,ra,948 # 24dc <tdat8>
    2130:	a00aa137 	lui	s0,0xa00aa
    2134:	00a10113 	addi	s0,s0,10 # a00aa00a <_end+0xa00a7b1a>
    2138:	0020a023 	sw	s0,0(ra)
    213c:	0000a183 	lw	s1,0(ra)
    2140:	a00aaeb7 	lui	t3,0xa00aa
    2144:	00ae8e93 	addi	t3,t3,10 # a00aa00a <_end+0xa00a7b1a>
    2148:	00900e13 	li	t2,9
    214c:	35d19463 	bne	s1,t3,2494 <fail>

00002150 <test_10>:
    2150:	00000097 	auipc	ra,0x0
    2154:	39008093 	addi	ra,ra,912 # 24e0 <tdat9>
    2158:	12345137 	lui	s0,0x12345
    215c:	67810113 	addi	s0,s0,1656 # 12345678 <_end+0x12343188>
    2160:	fe008213 	addi	s2,ra,-32
    2164:	02222023 	sw	s0,32(s2)
    2168:	0000a183 	lw	s1,0(ra)
    216c:	12345eb7 	lui	t3,0x12345
    2170:	678e8e93 	addi	t3,t3,1656 # 12345678 <_end+0x12343188>
    2174:	00a00e13 	li	t2,10
    2178:	31d19e63 	bne	s1,t3,2494 <fail>

0000217c <test_11>:
    217c:	00000097 	auipc	ra,0x0
    2180:	36408093 	addi	ra,ra,868 # 24e0 <tdat9>
    2184:	58213137 	lui	s0,0x58213
    2188:	09810113 	addi	s0,s0,152 # 58213098 <_end+0x58210ba8>
    218c:	ffd08093 	addi	ra,ra,-3
    2190:	0020a3a3 	sw	s0,7(ra)
    2194:	00000217 	auipc	s2,0x0
    2198:	35020213 	addi	s2,s2,848 # 24e4 <tdat10>
    219c:	00022183 	lw	s1,0(s2)
    21a0:	58213eb7 	lui	t3,0x58213
    21a4:	098e8e93 	addi	t3,t3,152 # 58213098 <_end+0x58210ba8>
    21a8:	00b00e13 	li	t2,11
    21ac:	2fd19463 	bne	s1,t3,2494 <fail>

000021b0 <test_12>:
    21b0:	00c00e13 	li	t2,12
    21b4:	00000213 	li	s2,0
    21b8:	aabbd0b7 	lui	ra,0xaabbd
    21bc:	cdd08093 	addi	ra,ra,-803 # aabbccdd <_end+0xaabba7ed>
    21c0:	00000117 	auipc	s0,0x0
    21c4:	30010113 	addi	s0,s0,768 # 24c0 <begin_signature>
    21c8:	00112023 	sw	ra,0(s0)
    21cc:	00012183 	lw	s1,0(s0)
    21d0:	aabbdeb7 	lui	t3,0xaabbd
    21d4:	cdde8e93 	addi	t3,t3,-803 # aabbccdd <_end+0xaabba7ed>
    21d8:	2bd19e63 	bne	s1,t3,2494 <fail>
    21dc:	00120213 	addi	s2,s2,1
    21e0:	00200293 	li	s3,2
    21e4:	fc521ae3 	bne	s2,s3,21b8 <test_12+0x8>

000021e8 <test_13>:
    21e8:	00d00e13 	li	t2,13
    21ec:	00000213 	li	s2,0
    21f0:	daabc0b7 	lui	ra,0xdaabc
    21f4:	ccd08093 	addi	ra,ra,-819 # daabbccd <_end+0xdaab97dd>
    21f8:	00000117 	auipc	s0,0x0
    21fc:	2c810113 	addi	s0,s0,712 # 24c0 <begin_signature>
    2200:	00000013 	nop
    2204:	00112223 	sw	ra,4(s0)
    2208:	00412183 	lw	s1,4(s0)
    220c:	daabceb7 	lui	t3,0xdaabc
    2210:	ccde8e93 	addi	t3,t3,-819 # daabbccd <_end+0xdaab97dd>
    2214:	29d19063 	bne	s1,t3,2494 <fail>
    2218:	00120213 	addi	s2,s2,1
    221c:	00200293 	li	s3,2
    2220:	fc5218e3 	bne	s2,s3,21f0 <test_13+0x8>

00002224 <test_14>:
    2224:	00e00e13 	li	t2,14
    2228:	00000213 	li	s2,0
    222c:	ddaac0b7 	lui	ra,0xddaac
    2230:	bcc08093 	addi	ra,ra,-1076 # ddaabbcc <_end+0xddaa96dc>
    2234:	00000117 	auipc	s0,0x0
    2238:	28c10113 	addi	s0,s0,652 # 24c0 <begin_signature>
    223c:	00000013 	nop
    2240:	00000013 	nop
    2244:	00112423 	sw	ra,8(s0)
    2248:	00812183 	lw	s1,8(s0)
    224c:	ddaaceb7 	lui	t3,0xddaac
    2250:	bcce8e93 	addi	t3,t3,-1076 # ddaabbcc <_end+0xddaa96dc>
    2254:	25d19063 	bne	s1,t3,2494 <fail>
    2258:	00120213 	addi	s2,s2,1
    225c:	00200293 	li	s3,2
    2260:	fc5216e3 	bne	s2,s3,222c <test_14+0x8>

00002264 <test_15>:
    2264:	00f00e13 	li	t2,15
    2268:	00000213 	li	s2,0
    226c:	cddab0b7 	lui	ra,0xcddab
    2270:	bbc08093 	addi	ra,ra,-1092 # cddaabbc <_end+0xcdda86cc>
    2274:	00000013 	nop
    2278:	00000117 	auipc	s0,0x0
    227c:	24810113 	addi	s0,s0,584 # 24c0 <begin_signature>
    2280:	00112623 	sw	ra,12(s0)
    2284:	00c12183 	lw	s1,12(s0)
    2288:	cddabeb7 	lui	t3,0xcddab
    228c:	bbce8e93 	addi	t3,t3,-1092 # cddaabbc <_end+0xcdda86cc>
    2290:	21d19263 	bne	s1,t3,2494 <fail>
    2294:	00120213 	addi	s2,s2,1
    2298:	00200293 	li	s3,2
    229c:	fc5218e3 	bne	s2,s3,226c <test_15+0x8>

000022a0 <test_16>:
    22a0:	01000e13 	li	t2,16
    22a4:	00000213 	li	s2,0
    22a8:	ccddb0b7 	lui	ra,0xccddb
    22ac:	abb08093 	addi	ra,ra,-1349 # ccddaabb <_end+0xccdd85cb>
    22b0:	00000013 	nop
    22b4:	00000117 	auipc	s0,0x0
    22b8:	20c10113 	addi	s0,s0,524 # 24c0 <begin_signature>
    22bc:	00000013 	nop
    22c0:	00112823 	sw	ra,16(s0)
    22c4:	01012183 	lw	s1,16(s0)
    22c8:	ccddbeb7 	lui	t3,0xccddb
    22cc:	abbe8e93 	addi	t3,t3,-1349 # ccddaabb <_end+0xccdd85cb>
    22d0:	1dd19263 	bne	s1,t3,2494 <fail>
    22d4:	00120213 	addi	s2,s2,1
    22d8:	00200293 	li	s3,2
    22dc:	fc5216e3 	bne	s2,s3,22a8 <test_16+0x8>

000022e0 <test_17>:
    22e0:	01100e13 	li	t2,17
    22e4:	00000213 	li	s2,0
    22e8:	bccde0b7 	lui	ra,0xbccde
    22ec:	aab08093 	addi	ra,ra,-1365 # bccddaab <_end+0xbccdb5bb>
    22f0:	00000013 	nop
    22f4:	00000013 	nop
    22f8:	00000117 	auipc	s0,0x0
    22fc:	1c810113 	addi	s0,s0,456 # 24c0 <begin_signature>
    2300:	00112a23 	sw	ra,20(s0)
    2304:	01412183 	lw	s1,20(s0)
    2308:	bccdeeb7 	lui	t3,0xbccde
    230c:	aabe8e93 	addi	t3,t3,-1365 # bccddaab <_end+0xbccdb5bb>
    2310:	19d19263 	bne	s1,t3,2494 <fail>
    2314:	00120213 	addi	s2,s2,1
    2318:	00200293 	li	s3,2
    231c:	fc5216e3 	bne	s2,s3,22e8 <test_17+0x8>

00002320 <test_18>:
    2320:	01200e13 	li	t2,18
    2324:	00000213 	li	s2,0
    2328:	00000117 	auipc	s0,0x0
    232c:	19810113 	addi	s0,s0,408 # 24c0 <begin_signature>
    2330:	001120b7 	lui	ra,0x112
    2334:	23308093 	addi	ra,ra,563 # 112233 <_end+0x10fd43>
    2338:	00112023 	sw	ra,0(s0)
    233c:	00012183 	lw	s1,0(s0)
    2340:	00112eb7 	lui	t3,0x112
    2344:	233e8e93 	addi	t3,t3,563 # 112233 <_end+0x10fd43>
    2348:	15d19663 	bne	s1,t3,2494 <fail>
    234c:	00120213 	addi	s2,s2,1
    2350:	00200293 	li	s3,2
    2354:	fc521ae3 	bne	s2,s3,2328 <test_18+0x8>

00002358 <test_19>:
    2358:	01300e13 	li	t2,19
    235c:	00000213 	li	s2,0
    2360:	00000117 	auipc	s0,0x0
    2364:	16010113 	addi	s0,s0,352 # 24c0 <begin_signature>
    2368:	300110b7 	lui	ra,0x30011
    236c:	22308093 	addi	ra,ra,547 # 30011223 <_end+0x3000ed33>
    2370:	00000013 	nop
    2374:	00112223 	sw	ra,4(s0)
    2378:	00412183 	lw	s1,4(s0)
    237c:	30011eb7 	lui	t3,0x30011
    2380:	223e8e93 	addi	t3,t3,547 # 30011223 <_end+0x3000ed33>
    2384:	11d19863 	bne	s1,t3,2494 <fail>
    2388:	00120213 	addi	s2,s2,1
    238c:	00200293 	li	s3,2
    2390:	fc5218e3 	bne	s2,s3,2360 <test_19+0x8>

00002394 <test_20>:
    2394:	01400e13 	li	t2,20
    2398:	00000213 	li	s2,0
    239c:	00000117 	auipc	s0,0x0
    23a0:	12410113 	addi	s0,s0,292 # 24c0 <begin_signature>
    23a4:	330010b7 	lui	ra,0x33001
    23a8:	12208093 	addi	ra,ra,290 # 33001122 <_end+0x32ffec32>
    23ac:	00000013 	nop
    23b0:	00000013 	nop
    23b4:	00112423 	sw	ra,8(s0)
    23b8:	00812183 	lw	s1,8(s0)
    23bc:	33001eb7 	lui	t3,0x33001
    23c0:	122e8e93 	addi	t3,t3,290 # 33001122 <_end+0x32ffec32>
    23c4:	0dd19863 	bne	s1,t3,2494 <fail>
    23c8:	00120213 	addi	s2,s2,1
    23cc:	00200293 	li	s3,2
    23d0:	fc5216e3 	bne	s2,s3,239c <test_20+0x8>

000023d4 <test_21>:
    23d4:	01500e13 	li	t2,21
    23d8:	00000213 	li	s2,0
    23dc:	00000117 	auipc	s0,0x0
    23e0:	0e410113 	addi	s0,s0,228 # 24c0 <begin_signature>
    23e4:	00000013 	nop
    23e8:	233000b7 	lui	ra,0x23300
    23ec:	11208093 	addi	ra,ra,274 # 23300112 <_end+0x232fdc22>
    23f0:	00112623 	sw	ra,12(s0)
    23f4:	00c12183 	lw	s1,12(s0)
    23f8:	23300eb7 	lui	t3,0x23300
    23fc:	112e8e93 	addi	t3,t3,274 # 23300112 <_end+0x232fdc22>
    2400:	09d19a63 	bne	s1,t3,2494 <fail>
    2404:	00120213 	addi	s2,s2,1
    2408:	00200293 	li	s3,2
    240c:	fc5218e3 	bne	s2,s3,23dc <test_21+0x8>

00002410 <test_22>:
    2410:	01600e13 	li	t2,22
    2414:	00000213 	li	s2,0
    2418:	00000117 	auipc	s0,0x0
    241c:	0a810113 	addi	s0,s0,168 # 24c0 <begin_signature>
    2420:	00000013 	nop
    2424:	223300b7 	lui	ra,0x22330
    2428:	01108093 	addi	ra,ra,17 # 22330011 <_end+0x2232db21>
    242c:	00000013 	nop
    2430:	00112823 	sw	ra,16(s0)
    2434:	01012183 	lw	s1,16(s0)
    2438:	22330eb7 	lui	t3,0x22330
    243c:	011e8e93 	addi	t3,t3,17 # 22330011 <_end+0x2232db21>
    2440:	05d19a63 	bne	s1,t3,2494 <fail>
    2444:	00120213 	addi	s2,s2,1
    2448:	00200293 	li	s3,2
    244c:	fc5216e3 	bne	s2,s3,2418 <test_22+0x8>

00002450 <test_23>:
    2450:	01700e13 	li	t2,23
    2454:	00000213 	li	s2,0
    2458:	00000117 	auipc	s0,0x0
    245c:	06810113 	addi	s0,s0,104 # 24c0 <begin_signature>
    2460:	00000013 	nop
    2464:	00000013 	nop
    2468:	122330b7 	lui	ra,0x12233
    246c:	00108093 	addi	ra,ra,1 # 12233001 <_end+0x12230b11>
    2470:	00112a23 	sw	ra,20(s0)
    2474:	01412183 	lw	s1,20(s0)
    2478:	12233eb7 	lui	t3,0x12233
    247c:	001e8e93 	addi	t3,t3,1 # 12233001 <_end+0x12230b11>
    2480:	01d19a63 	bne	s1,t3,2494 <fail>
    2484:	00120213 	addi	s2,s2,1
    2488:	00200293 	li	s3,2
    248c:	fc5216e3 	bne	s2,s3,2458 <test_23+0x8>
    2490:	01c01e63 	bne	zero,t2,24ac <pass>

00002494 <fail>:
    2494:	0ff0000f 	fence
    2498:	000e0863 	beqz	t2,24a8 <fail+0x14>
    249c:	001e1e13 	slli	t2,t2,0x1
    24a0:	001e6e13 	ori	t2,t2,1
    24a4:	51ee1073 	csrw	tohost,t2
    24a8:	00000063 	b	24a8 <fail+0x14>

000024ac <pass>:
    24ac:	0ff0000f 	fence
    24b0:	51e0d073 	csrwi	tohost,1
    24b4:	00000063 	b	24b4 <pass+0x8>
    24b8:	00000013 	nop
    24bc:	00000013 	nop
