
riscv-v1_sw:     file format elf32-littleriscv


Disassembly of section .text:

00002000 <_start>:
    2000:	0800017b 	mfpcr	ra,cr0
    2004:	087dff93 	and	ra,ra,-129
    2008:	000201fb 	mtpcr	zero,ra,cr0
    200c:	0802c013 	li	ra,176
    2010:	1003fc13 	li	s0,255
    2014:	00440123 	sw	s0,0(ra)
    2018:	18400103 	lw	s1,0(ra)
    201c:	00c500e3 	bne	s1,s0,209c <fail>
    2020:	101fc013 	li	s0,2032
    2024:	00441123 	sw	s0,4(ra)
    2028:	18401103 	lw	s1,4(ra)
    202c:	00c4e0e3 	bne	s1,s0,209c <fail>
    2030:	103fc013 	li	s0,-16
    2034:	00442123 	sw	s0,8(ra)
    2038:	18402103 	lw	s1,8(ra)
    203c:	00c4c0e3 	bne	s1,s0,209c <fail>
    2040:	101c3c13 	li	s0,1807
    2044:	00443123 	sw	s0,12(ra)
    2048:	18403103 	lw	s1,12(ra)
    204c:	00c4a0e3 	bne	s1,s0,209c <fail>
    2050:	08033013 	li	ra,204
    2054:	1003fc13 	li	s0,255
    2058:	f845d123 	sw	s0,-12(ra)
    205c:	187fd103 	lw	s1,-12(ra)
    2060:	00c478e3 	bne	s1,s0,209c <fail>
    2064:	101fc013 	li	s0,2032
    2068:	f845e123 	sw	s0,-8(ra)
    206c:	187fe103 	lw	s1,-8(ra)
    2070:	00c458e3 	bne	s1,s0,209c <fail>
    2074:	103fc013 	li	s0,-16
    2078:	f845f123 	sw	s0,-4(ra)
    207c:	187ff103 	lw	s1,-4(ra)
    2080:	00c438e3 	bne	s1,s0,209c <fail>
    2084:	101c3c13 	li	s0,1807
    2088:	00440123 	sw	s0,0(ra)
    208c:	18400103 	lw	s1,0(ra)
    2090:	00c418e3 	bne	s1,s0,209c <fail>
    2094:	08000413 	li	ra,1
    2098:	000220e3 	bne	zero,ra,20a8 <pass>

0000209c <fail>:
    209c:	08001413 	li	ra,5
    20a0:	078201fb 	mtpcr	zero,ra,cr30
    20a4:	00000063 	b	20a4 <fail+0x8>

000020a8 <pass>:
    20a8:	078201fb 	mtpcr	zero,ra,cr30
    20ac:	00000063 	b	20ac <pass+0x4>
