
riscv-v2_slt:     file format elf32-littleriscv


Disassembly of section .text:

00002000 <_start>:
    2000:	0800017b 	mfpcr	ra,cr0
    2004:	087dff93 	and	ra,ra,-129
    2008:	000201fb 	mtpcr	zero,ra,cr0

0000200c <test_2>:
    200c:	08000013 	li	ra,0
    2010:	10000013 	li	s0,0
    2014:	18440133 	slt	s1,ra,s0
    2018:	e8000013 	li	a11,0
    201c:	e0000813 	li	a10,2
    2020:	20fac8e3 	bne	s1,a11,2484 <fail>

00002024 <test_3>:
    2024:	08000413 	li	ra,1
    2028:	10000413 	li	s0,1
    202c:	18440133 	slt	s1,ra,s0
    2030:	e8000013 	li	a11,0
    2034:	e0000c13 	li	a10,3
    2038:	20fa98e3 	bne	s1,a11,2484 <fail>

0000203c <test_4>:
    203c:	08000c13 	li	ra,3
    2040:	10001c13 	li	s0,7
    2044:	18440133 	slt	s1,ra,s0
    2048:	e8000413 	li	a11,1
    204c:	e0001013 	li	a10,4
    2050:	20fa68e3 	bne	s1,a11,2484 <fail>

00002054 <test_5>:
    2054:	08001c13 	li	ra,7
    2058:	10000c13 	li	s0,3
    205c:	18440133 	slt	s1,ra,s0
    2060:	e8000013 	li	a11,0
    2064:	e0001413 	li	a10,5
    2068:	20fa38e3 	bne	s1,a11,2484 <fail>

0000206c <test_6>:
    206c:	08000013 	li	ra,0
    2070:	17fffc37 	lui	s0,0xffff8
    2074:	18440133 	slt	s1,ra,s0
    2078:	e8000013 	li	a11,0
    207c:	e0001813 	li	a10,6
    2080:	20fa08e3 	bne	s1,a11,2484 <fail>

00002084 <test_7>:
    2084:	0c000037 	lui	ra,0x80000
    2088:	10000013 	li	s0,0
    208c:	18440133 	slt	s1,ra,s0
    2090:	e8000413 	li	a11,1
    2094:	e0001c13 	li	a10,7
    2098:	18fbd8e3 	bne	s1,a11,2484 <fail>

0000209c <test_8>:
    209c:	0c000037 	lui	ra,0x80000
    20a0:	17fffc37 	lui	s0,0xffff8
    20a4:	18440133 	slt	s1,ra,s0
    20a8:	e8000413 	li	a11,1
    20ac:	e0002013 	li	a10,8
    20b0:	18fba8e3 	bne	s1,a11,2484 <fail>

000020b4 <test_9>:
    20b4:	08000013 	li	ra,0
    20b8:	10000437 	lui	s0,0x8
    20bc:	10bffc13 	add	s0,s0,-1
    20c0:	18440133 	slt	s1,ra,s0
    20c4:	e8000413 	li	a11,1
    20c8:	e0002413 	li	a10,9
    20cc:	18fb70e3 	bne	s1,a11,2484 <fail>

000020d0 <test_10>:
    20d0:	0c000037 	lui	ra,0x80000
    20d4:	087ffc13 	add	ra,ra,-1
    20d8:	10000013 	li	s0,0
    20dc:	18440133 	slt	s1,ra,s0
    20e0:	e8000013 	li	a11,0
    20e4:	e0002813 	li	a10,10
    20e8:	18fb38e3 	bne	s1,a11,2484 <fail>

000020ec <test_11>:
    20ec:	0c000037 	lui	ra,0x80000
    20f0:	087ffc13 	add	ra,ra,-1
    20f4:	10000437 	lui	s0,0x8
    20f8:	10bffc13 	add	s0,s0,-1
    20fc:	18440133 	slt	s1,ra,s0
    2100:	e8000013 	li	a11,0
    2104:	e0002c13 	li	a10,11
    2108:	18faf8e3 	bne	s1,a11,2484 <fail>

0000210c <test_12>:
    210c:	0c000037 	lui	ra,0x80000
    2110:	10000437 	lui	s0,0x8
    2114:	10bffc13 	add	s0,s0,-1
    2118:	18440133 	slt	s1,ra,s0
    211c:	e8000413 	li	a11,1
    2120:	e0003013 	li	a10,12
    2124:	18fac0e3 	bne	s1,a11,2484 <fail>

00002128 <test_13>:
    2128:	0c000037 	lui	ra,0x80000
    212c:	087ffc13 	add	ra,ra,-1
    2130:	17fffc37 	lui	s0,0xffff8
    2134:	18440133 	slt	s1,ra,s0
    2138:	e8000013 	li	a11,0
    213c:	e0003413 	li	a10,13
    2140:	18fa88e3 	bne	s1,a11,2484 <fail>

00002144 <test_14>:
    2144:	08000013 	li	ra,0
    2148:	103ffc13 	li	s0,-1
    214c:	18440133 	slt	s1,ra,s0
    2150:	e8000013 	li	a11,0
    2154:	e0003813 	li	a10,14
    2158:	18fa58e3 	bne	s1,a11,2484 <fail>

0000215c <test_15>:
    215c:	083ffc13 	li	ra,-1
    2160:	10000413 	li	s0,1
    2164:	18440133 	slt	s1,ra,s0
    2168:	e8000413 	li	a11,1
    216c:	e0003c13 	li	a10,15
    2170:	18fa28e3 	bne	s1,a11,2484 <fail>

00002174 <test_16>:
    2174:	083ffc13 	li	ra,-1
    2178:	103ffc13 	li	s0,-1
    217c:	18440133 	slt	s1,ra,s0
    2180:	e8000013 	li	a11,0
    2184:	e0004013 	li	a10,16
    2188:	10fbf8e3 	bne	s1,a11,2484 <fail>

0000218c <test_17>:
    218c:	08003813 	li	ra,14
    2190:	10003413 	li	s0,13
    2194:	08440133 	slt	ra,ra,s0
    2198:	e8000013 	li	a11,0
    219c:	e0004413 	li	a10,17
    21a0:	107bc8e3 	bne	ra,a11,2484 <fail>

000021a4 <test_18>:
    21a4:	08002c13 	li	ra,11
    21a8:	10003413 	li	s0,13
    21ac:	10440133 	slt	s0,ra,s0
    21b0:	e8000413 	li	a11,1
    21b4:	e0004813 	li	a10,18
    21b8:	10bb98e3 	bne	s0,a11,2484 <fail>

000021bc <test_19>:
    21bc:	08003413 	li	ra,13
    21c0:	08420133 	slt	ra,ra,ra
    21c4:	e8000013 	li	a11,0
    21c8:	e0004c13 	li	a10,19
    21cc:	107b70e3 	bne	ra,a11,2484 <fail>

000021d0 <test_20>:
    21d0:	20000013 	li	s2,0
    21d4:	08002c13 	li	ra,11
    21d8:	10003413 	li	s0,13
    21dc:	18440133 	slt	s1,ra,s0
    21e0:	30c00013 	move	s4,s1
    21e4:	21000413 	add	s2,s2,1
    21e8:	28000813 	li	s3,2
    21ec:	f90bd0e3 	bne	s2,s3,21d4 <test_20+0x4>
    21f0:	e8000413 	li	a11,1
    21f4:	e0005013 	li	a10,20
    21f8:	11bb18e3 	bne	s4,a11,2484 <fail>

000021fc <test_21>:
    21fc:	20000013 	li	s2,0
    2200:	08003813 	li	ra,14
    2204:	10003413 	li	s0,13
    2208:	18440133 	slt	s1,ra,s0
    220c:	00000013 	nop
    2210:	30c00013 	move	s4,s1
    2214:	21000413 	add	s2,s2,1
    2218:	28000813 	li	s3,2
    221c:	f90bc8e3 	bne	s2,s3,2200 <test_21+0x4>
    2220:	e8000013 	li	a11,0
    2224:	e0005413 	li	a10,21
    2228:	11bab8e3 	bne	s4,a11,2484 <fail>

0000222c <test_22>:
    222c:	20000013 	li	s2,0
    2230:	08003013 	li	ra,12
    2234:	10003413 	li	s0,13
    2238:	18440133 	slt	s1,ra,s0
    223c:	00000013 	nop
    2240:	00000013 	nop
    2244:	30c00013 	move	s4,s1
    2248:	21000413 	add	s2,s2,1
    224c:	28000813 	li	s3,2
    2250:	f90bc0e3 	bne	s2,s3,2230 <test_22+0x4>
    2254:	e8000413 	li	a11,1
    2258:	e0005813 	li	a10,22
    225c:	11ba50e3 	bne	s4,a11,2484 <fail>

00002260 <test_23>:
    2260:	20000013 	li	s2,0
    2264:	08003813 	li	ra,14
    2268:	10003413 	li	s0,13
    226c:	18440133 	slt	s1,ra,s0
    2270:	21000413 	add	s2,s2,1
    2274:	28000813 	li	s3,2
    2278:	f90bd8e3 	bne	s2,s3,2264 <test_23+0x4>
    227c:	e8000013 	li	a11,0
    2280:	e0005c13 	li	a10,23
    2284:	10fa00e3 	bne	s1,a11,2484 <fail>

00002288 <test_24>:
    2288:	20000013 	li	s2,0
    228c:	08002c13 	li	ra,11
    2290:	10003413 	li	s0,13
    2294:	00000013 	nop
    2298:	18440133 	slt	s1,ra,s0
    229c:	21000413 	add	s2,s2,1
    22a0:	28000813 	li	s3,2
    22a4:	f90bd0e3 	bne	s2,s3,228c <test_24+0x4>
    22a8:	e8000413 	li	a11,1
    22ac:	e0006013 	li	a10,24
    22b0:	08fba8e3 	bne	s1,a11,2484 <fail>

000022b4 <test_25>:
    22b4:	20000013 	li	s2,0
    22b8:	08003c13 	li	ra,15
    22bc:	10003413 	li	s0,13
    22c0:	00000013 	nop
    22c4:	00000013 	nop
    22c8:	18440133 	slt	s1,ra,s0
    22cc:	21000413 	add	s2,s2,1
    22d0:	28000813 	li	s3,2
    22d4:	f90bc8e3 	bne	s2,s3,22b8 <test_25+0x4>
    22d8:	e8000013 	li	a11,0
    22dc:	e0006413 	li	a10,25
    22e0:	08fb48e3 	bne	s1,a11,2484 <fail>

000022e4 <test_26>:
    22e4:	20000013 	li	s2,0
    22e8:	08002813 	li	ra,10
    22ec:	00000013 	nop
    22f0:	10003413 	li	s0,13
    22f4:	18440133 	slt	s1,ra,s0
    22f8:	21000413 	add	s2,s2,1
    22fc:	28000813 	li	s3,2
    2300:	f90bd0e3 	bne	s2,s3,22e8 <test_26+0x4>
    2304:	e8000413 	li	a11,1
    2308:	e0006813 	li	a10,26
    230c:	08faf0e3 	bne	s1,a11,2484 <fail>

00002310 <test_27>:
    2310:	20000013 	li	s2,0
    2314:	08004013 	li	ra,16
    2318:	00000013 	nop
    231c:	10003413 	li	s0,13
    2320:	00000013 	nop
    2324:	18440133 	slt	s1,ra,s0
    2328:	21000413 	add	s2,s2,1
    232c:	28000813 	li	s3,2
    2330:	f90bc8e3 	bne	s2,s3,2314 <test_27+0x4>
    2334:	e8000013 	li	a11,0
    2338:	e0006c13 	li	a10,27
    233c:	08fa90e3 	bne	s1,a11,2484 <fail>

00002340 <test_28>:
    2340:	20000013 	li	s2,0
    2344:	08002413 	li	ra,9
    2348:	00000013 	nop
    234c:	00000013 	nop
    2350:	10003413 	li	s0,13
    2354:	18440133 	slt	s1,ra,s0
    2358:	21000413 	add	s2,s2,1
    235c:	28000813 	li	s3,2
    2360:	f90bc8e3 	bne	s2,s3,2344 <test_28+0x4>
    2364:	e8000413 	li	a11,1
    2368:	e0007013 	li	a10,28
    236c:	08fa30e3 	bne	s1,a11,2484 <fail>

00002370 <test_29>:
    2370:	20000013 	li	s2,0
    2374:	10003413 	li	s0,13
    2378:	08004413 	li	ra,17
    237c:	18440133 	slt	s1,ra,s0
    2380:	21000413 	add	s2,s2,1
    2384:	28000813 	li	s3,2
    2388:	f90bd8e3 	bne	s2,s3,2374 <test_29+0x4>
    238c:	e8000013 	li	a11,0
    2390:	e0007413 	li	a10,29
    2394:	00fbe0e3 	bne	s1,a11,2484 <fail>

00002398 <test_30>:
    2398:	20000013 	li	s2,0
    239c:	10003413 	li	s0,13
    23a0:	08002013 	li	ra,8
    23a4:	00000013 	nop
    23a8:	18440133 	slt	s1,ra,s0
    23ac:	21000413 	add	s2,s2,1
    23b0:	28000813 	li	s3,2
    23b4:	f90bd0e3 	bne	s2,s3,239c <test_30+0x4>
    23b8:	e8000413 	li	a11,1
    23bc:	e0007813 	li	a10,30
    23c0:	00fb88e3 	bne	s1,a11,2484 <fail>

000023c4 <test_31>:
    23c4:	20000013 	li	s2,0
    23c8:	10003413 	li	s0,13
    23cc:	08004813 	li	ra,18
    23d0:	00000013 	nop
    23d4:	00000013 	nop
    23d8:	18440133 	slt	s1,ra,s0
    23dc:	21000413 	add	s2,s2,1
    23e0:	28000813 	li	s3,2
    23e4:	f90bc8e3 	bne	s2,s3,23c8 <test_31+0x4>
    23e8:	e8000013 	li	a11,0
    23ec:	e0007c13 	li	a10,31
    23f0:	00fb28e3 	bne	s1,a11,2484 <fail>

000023f4 <test_32>:
    23f4:	20000013 	li	s2,0
    23f8:	10003413 	li	s0,13
    23fc:	00000013 	nop
    2400:	08001c13 	li	ra,7
    2404:	18440133 	slt	s1,ra,s0
    2408:	21000413 	add	s2,s2,1
    240c:	28000813 	li	s3,2
    2410:	f90bd0e3 	bne	s2,s3,23f8 <test_32+0x4>
    2414:	e8000413 	li	a11,1
    2418:	e0008013 	li	a10,32
    241c:	00fad0e3 	bne	s1,a11,2484 <fail>

00002420 <test_33>:
    2420:	20000013 	li	s2,0
    2424:	10003413 	li	s0,13
    2428:	00000013 	nop
    242c:	08004c13 	li	ra,19
    2430:	00000013 	nop
    2434:	18440133 	slt	s1,ra,s0
    2438:	21000413 	add	s2,s2,1
    243c:	28000813 	li	s3,2
    2440:	f90bc8e3 	bne	s2,s3,2424 <test_33+0x4>
    2444:	e8000013 	li	a11,0
    2448:	e0008413 	li	a10,33
    244c:	00fa70e3 	bne	s1,a11,2484 <fail>

00002450 <test_34>:
    2450:	20000013 	li	s2,0
    2454:	10003413 	li	s0,13
    2458:	00000013 	nop
    245c:	00000013 	nop
    2460:	08001813 	li	ra,6
    2464:	18440133 	slt	s1,ra,s0
    2468:	21000413 	add	s2,s2,1
    246c:	28000813 	li	s3,2
    2470:	f90bc8e3 	bne	s2,s3,2454 <test_34+0x4>
    2474:	e8000413 	li	a11,1
    2478:	e0008813 	li	a10,34
    247c:	00fa10e3 	bne	s1,a11,2484 <fail>
    2480:	003830e3 	bne	zero,a10,2498 <pass>

00002484 <fail>:
    2484:	e7000493 	sll	a10,a10,0x1
    2488:	e7000713 	or	a10,a10,1
    248c:	07b801fb 	mtpcr	zero,a10,cr30
    2490:	00000063 	b	2490 <fail+0xc>
    2494:	00000013 	nop

00002498 <pass>:
    2498:	08000413 	li	ra,1
    249c:	078201fb 	mtpcr	zero,ra,cr30
    24a0:	00000063 	b	24a0 <pass+0x8>
    24a4:	00000013 	nop
    24a8:	00000013 	nop
    24ac:	00000013 	nop
