
riscv-v2_srai:     file format elf32-littleriscv


Disassembly of section .text:

00002000 <_start>:
    2000:	0800017b 	mfpcr	ra,cr0
    2004:	087dff93 	and	ra,ra,-129
    2008:	000201fb 	mtpcr	zero,ra,cr0

0000200c <test_2>:
    200c:	0c000037 	lui	ra,0x80000
    2010:	18410293 	sra	s1,ra,0x0
    2014:	ec000037 	lui	a11,0x80000
    2018:	e0000813 	li	a10,2
    201c:	10fb08e3 	bne	s1,a11,22a0 <fail>

00002020 <test_3>:
    2020:	0c000037 	lui	ra,0x80000
    2024:	18410693 	sra	s1,ra,0x1
    2028:	ee000037 	lui	a11,0xc0000
    202c:	e0000c13 	li	a10,3
    2030:	10fae0e3 	bne	s1,a11,22a0 <fail>

00002034 <test_4>:
    2034:	0c000037 	lui	ra,0x80000
    2038:	18411e93 	sra	s1,ra,0x7
    203c:	eff80037 	lui	a11,0xff000
    2040:	e0001013 	li	a10,4
    2044:	10fab8e3 	bne	s1,a11,22a0 <fail>

00002048 <test_5>:
    2048:	0c000037 	lui	ra,0x80000
    204c:	18413a93 	sra	s1,ra,0xe
    2050:	effff037 	lui	a11,0xfffe0
    2054:	e0001413 	li	a10,5
    2058:	10fa90e3 	bne	s1,a11,22a0 <fail>

0000205c <test_6>:
    205c:	0c000037 	lui	ra,0x80000
    2060:	08400413 	add	ra,ra,1
    2064:	18417e93 	sra	s1,ra,0x1f
    2068:	e83ffc13 	li	a11,-1
    206c:	e0001813 	li	a10,6
    2070:	10fa60e3 	bne	s1,a11,22a0 <fail>

00002074 <test_7>:
    2074:	0c000037 	lui	ra,0x80000
    2078:	087ffc13 	add	ra,ra,-1
    207c:	18410293 	sra	s1,ra,0x0
    2080:	ec000037 	lui	a11,0x80000
    2084:	ef7ffc13 	add	a11,a11,-1
    2088:	e0001c13 	li	a10,7
    208c:	10fa28e3 	bne	s1,a11,22a0 <fail>

00002090 <test_8>:
    2090:	0c000037 	lui	ra,0x80000
    2094:	087ffc13 	add	ra,ra,-1
    2098:	18410693 	sra	s1,ra,0x1
    209c:	ea000037 	lui	a11,0x40000
    20a0:	ef7ffc13 	add	a11,a11,-1
    20a4:	e0002013 	li	a10,8
    20a8:	08fbf0e3 	bne	s1,a11,22a0 <fail>

000020ac <test_9>:
    20ac:	0c000037 	lui	ra,0x80000
    20b0:	087ffc13 	add	ra,ra,-1
    20b4:	18411e93 	sra	s1,ra,0x7
    20b8:	e8080037 	lui	a11,0x1000
    20bc:	ef7ffc13 	add	a11,a11,-1
    20c0:	e0002413 	li	a10,9
    20c4:	08fbb8e3 	bne	s1,a11,22a0 <fail>

000020c8 <test_10>:
    20c8:	0c000037 	lui	ra,0x80000
    20cc:	087ffc13 	add	ra,ra,-1
    20d0:	18413a93 	sra	s1,ra,0xe
    20d4:	e8001037 	lui	a11,0x20
    20d8:	ef7ffc13 	add	a11,a11,-1
    20dc:	e0002813 	li	a10,10
    20e0:	08fb80e3 	bne	s1,a11,22a0 <fail>

000020e4 <test_11>:
    20e4:	0c000037 	lui	ra,0x80000
    20e8:	087ffc13 	add	ra,ra,-1
    20ec:	18417e93 	sra	s1,ra,0x1f
    20f0:	e8000013 	li	a11,0
    20f4:	e0002c13 	li	a10,11
    20f8:	08fb50e3 	bne	s1,a11,22a0 <fail>

000020fc <test_12>:
    20fc:	0c0c0c37 	lui	ra,0x81818
    2100:	08460413 	add	ra,ra,385
    2104:	18410293 	sra	s1,ra,0x0
    2108:	ec0c0c37 	lui	a11,0x81818
    210c:	ef460413 	add	a11,a11,385
    2110:	e0003013 	li	a10,12
    2114:	08fb18e3 	bne	s1,a11,22a0 <fail>

00002118 <test_13>:
    2118:	0c0c0c37 	lui	ra,0x81818
    211c:	08460413 	add	ra,ra,385
    2120:	18410693 	sra	s1,ra,0x1
    2124:	ee060637 	lui	a11,0xc0c0c
    2128:	ef430013 	add	a11,a11,192
    212c:	e0003413 	li	a10,13
    2130:	08fae0e3 	bne	s1,a11,22a0 <fail>

00002134 <test_14>:
    2134:	0c0c0c37 	lui	ra,0x81818
    2138:	08460413 	add	ra,ra,385
    213c:	18411e93 	sra	s1,ra,0x7
    2140:	eff81837 	lui	a11,0xff030
    2144:	ef4c0c13 	add	a11,a11,771
    2148:	e0003813 	li	a10,14
    214c:	08faa8e3 	bne	s1,a11,22a0 <fail>

00002150 <test_15>:
    2150:	0c0c0c37 	lui	ra,0x81818
    2154:	08460413 	add	ra,ra,385
    2158:	18413a93 	sra	s1,ra,0xe
    215c:	effff037 	lui	a11,0xfffe0
    2160:	ef581813 	add	a11,a11,1542
    2164:	e0003c13 	li	a10,15
    2168:	08fa70e3 	bne	s1,a11,22a0 <fail>

0000216c <test_16>:
    216c:	0c0c0c37 	lui	ra,0x81818
    2170:	08460413 	add	ra,ra,385
    2174:	18417e93 	sra	s1,ra,0x1f
    2178:	e83ffc13 	li	a11,-1
    217c:	e0004013 	li	a10,16
    2180:	08fa40e3 	bne	s1,a11,22a0 <fail>

00002184 <test_17>:
    2184:	0c000037 	lui	ra,0x80000
    2188:	08411e93 	sra	ra,ra,0x7
    218c:	eff80037 	lui	a11,0xff000
    2190:	e0004413 	li	a10,17
    2194:	087a18e3 	bne	ra,a11,22a0 <fail>

00002198 <test_18>:
    2198:	20000013 	li	s2,0
    219c:	0c000037 	lui	ra,0x80000
    21a0:	18411e93 	sra	s1,ra,0x7
    21a4:	30c00013 	move	s4,s1
    21a8:	21000413 	add	s2,s2,1
    21ac:	28000813 	li	s3,2
    21b0:	f90bd8e3 	bne	s2,s3,219c <test_18+0x4>
    21b4:	eff80037 	lui	a11,0xff000
    21b8:	e0004813 	li	a10,18
    21bc:	01bbc8e3 	bne	s4,a11,22a0 <fail>

000021c0 <test_19>:
    21c0:	20000013 	li	s2,0
    21c4:	0c000037 	lui	ra,0x80000
    21c8:	18413a93 	sra	s1,ra,0xe
    21cc:	00000013 	nop
    21d0:	30c00013 	move	s4,s1
    21d4:	21000413 	add	s2,s2,1
    21d8:	28000813 	li	s3,2
    21dc:	f90bd0e3 	bne	s2,s3,21c4 <test_19+0x4>
    21e0:	effff037 	lui	a11,0xfffe0
    21e4:	e0004c13 	li	a10,19
    21e8:	01bb70e3 	bne	s4,a11,22a0 <fail>

000021ec <test_20>:
    21ec:	20000013 	li	s2,0
    21f0:	0c000037 	lui	ra,0x80000
    21f4:	08400413 	add	ra,ra,1
    21f8:	18417e93 	sra	s1,ra,0x1f
    21fc:	00000013 	nop
    2200:	00000013 	nop
    2204:	30c00013 	move	s4,s1
    2208:	21000413 	add	s2,s2,1
    220c:	28000813 	li	s3,2
    2210:	f90bc0e3 	bne	s2,s3,21f0 <test_20+0x4>
    2214:	e83ffc13 	li	a11,-1
    2218:	e0005013 	li	a10,20
    221c:	01bb08e3 	bne	s4,a11,22a0 <fail>

00002220 <test_21>:
    2220:	20000013 	li	s2,0
    2224:	0c000037 	lui	ra,0x80000
    2228:	18411e93 	sra	s1,ra,0x7
    222c:	21000413 	add	s2,s2,1
    2230:	28000813 	li	s3,2
    2234:	f90be0e3 	bne	s2,s3,2224 <test_21+0x4>
    2238:	eff80037 	lui	a11,0xff000
    223c:	e0005413 	li	a10,21
    2240:	00fac0e3 	bne	s1,a11,22a0 <fail>

00002244 <test_22>:
    2244:	20000013 	li	s2,0
    2248:	0c000037 	lui	ra,0x80000
    224c:	00000013 	nop
    2250:	18413a93 	sra	s1,ra,0xe
    2254:	21000413 	add	s2,s2,1
    2258:	28000813 	li	s3,2
    225c:	f90bd8e3 	bne	s2,s3,2248 <test_22+0x4>
    2260:	effff037 	lui	a11,0xfffe0
    2264:	e0005813 	li	a10,22
    2268:	00fa70e3 	bne	s1,a11,22a0 <fail>

0000226c <test_23>:
    226c:	20000013 	li	s2,0
    2270:	0c000037 	lui	ra,0x80000
    2274:	08400413 	add	ra,ra,1
    2278:	00000013 	nop
    227c:	00000013 	nop
    2280:	18417e93 	sra	s1,ra,0x1f
    2284:	21000413 	add	s2,s2,1
    2288:	28000813 	li	s3,2
    228c:	f90bc8e3 	bne	s2,s3,2270 <test_23+0x4>
    2290:	e83ffc13 	li	a11,-1
    2294:	e0005c13 	li	a10,23
    2298:	00fa10e3 	bne	s1,a11,22a0 <fail>
    229c:	003830e3 	bne	zero,a10,22b4 <pass>

000022a0 <fail>:
    22a0:	e7000493 	sll	a10,a10,0x1
    22a4:	e7000713 	or	a10,a10,1
    22a8:	07b801fb 	mtpcr	zero,a10,cr30
    22ac:	00000063 	b	22ac <fail+0xc>
    22b0:	00000013 	nop

000022b4 <pass>:
    22b4:	08000413 	li	ra,1
    22b8:	078201fb 	mtpcr	zero,ra,cr30
    22bc:	00000063 	b	22bc <pass+0x8>
    22c0:	00000013 	nop
    22c4:	00000013 	nop
    22c8:	00000013 	nop
    22cc:	00000013 	nop
