
riscv-v2_jal:     file format elf32-littleriscv


Disassembly of section .text:

00002000 <_start>:
    2000:	0800017b 	mfpcr	ra,cr0
    2004:	087dff93 	and	ra,ra,-129
    2008:	000201fb 	mtpcr	zero,ra,cr0

0000200c <test_2>:
    200c:	e0000813 	li	a10,2
    2010:	08000013 	li	ra,0

00002014 <linkaddr_2>:
    2014:	0000046f 	jal	2024 <target_2>
    2018:	00000013 	nop
    201c:	00000013 	nop
    2020:	00001167 	j	2064 <fail>

00002024 <target_2>:
    2024:	10000137 	lui	s0,0x2
    2028:	10805013 	add	s0,s0,20
    202c:	10801013 	add	s0,s0,4
    2030:	008268e3 	bne	s0,ra,2064 <fail>

00002034 <test_3>:
    2034:	10000413 	li	s0,1
    2038:	0000056f 	jal	204c <test_3+0x18>
    203c:	10800413 	add	s0,s0,1
    2040:	10800413 	add	s0,s0,1
    2044:	10800413 	add	s0,s0,1
    2048:	10800413 	add	s0,s0,1
    204c:	10800413 	add	s0,s0,1
    2050:	10800413 	add	s0,s0,1
    2054:	e8000c13 	li	a11,3
    2058:	e0000c13 	li	a10,3
    205c:	00ba10e3 	bne	s0,a11,2064 <fail>
    2060:	003830e3 	bne	zero,a10,2078 <pass>

00002064 <fail>:
    2064:	e7000493 	sll	a10,a10,0x1
    2068:	e7000713 	or	a10,a10,1
    206c:	07b801fb 	mtpcr	zero,a10,cr30
    2070:	00000063 	b	2070 <fail+0xc>
    2074:	00000013 	nop

00002078 <pass>:
    2078:	08000413 	li	ra,1
    207c:	078201fb 	mtpcr	zero,ra,cr30
    2080:	00000063 	b	2080 <pass+0x8>
    2084:	00000013 	nop
    2088:	00000013 	nop
    208c:	00000013 	nop
