
riscv-v2_bne:     file format elf32-littleriscv


Disassembly of section .text:

00002000 <_start>:
    2000:	0800017b 	mfpcr	ra,cr0
    2004:	087dff93 	and	ra,ra,-129
    2008:	000201fb 	mtpcr	zero,ra,cr0

0000200c <test_2>:
    200c:	e0000813 	li	a10,2
    2010:	08000013 	li	ra,0
    2014:	10000413 	li	s0,1
    2018:	004418e3 	bne	ra,s0,2024 <test_2+0x18>
    201c:	103968e3 	bne	zero,a10,22d0 <fail>
    2020:	003818e3 	bne	zero,a10,202c <test_3>
    2024:	f845f8e3 	bne	ra,s0,2020 <test_2+0x14>
    2028:	103950e3 	bne	zero,a10,22d0 <fail>

0000202c <test_3>:
    202c:	e0000c13 	li	a10,3
    2030:	08000413 	li	ra,1
    2034:	10000013 	li	s0,0
    2038:	004418e3 	bne	ra,s0,2044 <test_3+0x18>
    203c:	103928e3 	bne	zero,a10,22d0 <fail>
    2040:	003818e3 	bne	zero,a10,204c <test_4>
    2044:	f845f8e3 	bne	ra,s0,2040 <test_3+0x14>
    2048:	103910e3 	bne	zero,a10,22d0 <fail>

0000204c <test_4>:
    204c:	e0001013 	li	a10,4
    2050:	083ffc13 	li	ra,-1
    2054:	10000413 	li	s0,1
    2058:	004418e3 	bne	ra,s0,2064 <test_4+0x18>
    205c:	1038e8e3 	bne	zero,a10,22d0 <fail>
    2060:	003818e3 	bne	zero,a10,206c <test_5>
    2064:	f845f8e3 	bne	ra,s0,2060 <test_4+0x14>
    2068:	1038d0e3 	bne	zero,a10,22d0 <fail>

0000206c <test_5>:
    206c:	e0001413 	li	a10,5
    2070:	08000413 	li	ra,1
    2074:	103ffc13 	li	s0,-1
    2078:	004418e3 	bne	ra,s0,2084 <test_5+0x18>
    207c:	1038a8e3 	bne	zero,a10,22d0 <fail>
    2080:	003818e3 	bne	zero,a10,208c <test_6>
    2084:	f845f8e3 	bne	ra,s0,2080 <test_5+0x14>
    2088:	103890e3 	bne	zero,a10,22d0 <fail>

0000208c <test_6>:
    208c:	e0001813 	li	a10,6
    2090:	08000013 	li	ra,0
    2094:	10000013 	li	s0,0
    2098:	004410e3 	bne	ra,s0,20a0 <test_6+0x14>
    209c:	003810e3 	bne	zero,a10,20a4 <test_6+0x18>
    20a0:	103860e3 	bne	zero,a10,22d0 <fail>
    20a4:	f845f8e3 	bne	ra,s0,20a0 <test_6+0x14>

000020a8 <test_7>:
    20a8:	e0001c13 	li	a10,7
    20ac:	08000413 	li	ra,1
    20b0:	10000413 	li	s0,1
    20b4:	004410e3 	bne	ra,s0,20bc <test_7+0x14>
    20b8:	003810e3 	bne	zero,a10,20c0 <test_7+0x18>
    20bc:	103828e3 	bne	zero,a10,22d0 <fail>
    20c0:	f845f8e3 	bne	ra,s0,20bc <test_7+0x14>

000020c4 <test_8>:
    20c4:	e0002013 	li	a10,8
    20c8:	083ffc13 	li	ra,-1
    20cc:	103ffc13 	li	s0,-1
    20d0:	004410e3 	bne	ra,s0,20d8 <test_8+0x14>
    20d4:	003810e3 	bne	zero,a10,20dc <test_8+0x18>
    20d8:	0839f0e3 	bne	zero,a10,22d0 <fail>
    20dc:	f845f8e3 	bne	ra,s0,20d8 <test_8+0x14>

000020e0 <test_9>:
    20e0:	e0002413 	li	a10,9
    20e4:	20000013 	li	s2,0
    20e8:	08000013 	li	ra,0
    20ec:	10000013 	li	s0,0
    20f0:	0845c0e3 	bne	ra,s0,22d0 <fail>
    20f4:	21000413 	add	s2,s2,1
    20f8:	28000813 	li	s3,2
    20fc:	f90bd8e3 	bne	s2,s3,20e8 <test_9+0x8>

00002100 <test_10>:
    2100:	e0002813 	li	a10,10
    2104:	20000013 	li	s2,0
    2108:	08000013 	li	ra,0
    210c:	10000013 	li	s0,0
    2110:	00000013 	nop
    2114:	084578e3 	bne	ra,s0,22d0 <fail>
    2118:	21000413 	add	s2,s2,1
    211c:	28000813 	li	s3,2
    2120:	f90bd0e3 	bne	s2,s3,2108 <test_10+0x8>

00002124 <test_11>:
    2124:	e0002c13 	li	a10,11
    2128:	20000013 	li	s2,0
    212c:	08000013 	li	ra,0
    2130:	10000013 	li	s0,0
    2134:	00000013 	nop
    2138:	00000013 	nop
    213c:	084528e3 	bne	ra,s0,22d0 <fail>
    2140:	21000413 	add	s2,s2,1
    2144:	28000813 	li	s3,2
    2148:	f90bc8e3 	bne	s2,s3,212c <test_11+0x8>

0000214c <test_12>:
    214c:	e0003013 	li	a10,12
    2150:	20000013 	li	s2,0
    2154:	08000013 	li	ra,0
    2158:	00000013 	nop
    215c:	10000013 	li	s0,0
    2160:	0844e0e3 	bne	ra,s0,22d0 <fail>
    2164:	21000413 	add	s2,s2,1
    2168:	28000813 	li	s3,2
    216c:	f90bd0e3 	bne	s2,s3,2154 <test_12+0x8>

00002170 <test_13>:
    2170:	e0003413 	li	a10,13
    2174:	20000013 	li	s2,0
    2178:	08000013 	li	ra,0
    217c:	00000013 	nop
    2180:	10000013 	li	s0,0
    2184:	00000013 	nop
    2188:	084490e3 	bne	ra,s0,22d0 <fail>
    218c:	21000413 	add	s2,s2,1
    2190:	28000813 	li	s3,2
    2194:	f90bc8e3 	bne	s2,s3,2178 <test_13+0x8>

00002198 <test_14>:
    2198:	e0003813 	li	a10,14
    219c:	20000013 	li	s2,0
    21a0:	08000013 	li	ra,0
    21a4:	00000013 	nop
    21a8:	00000013 	nop
    21ac:	10000013 	li	s0,0
    21b0:	084440e3 	bne	ra,s0,22d0 <fail>
    21b4:	21000413 	add	s2,s2,1
    21b8:	28000813 	li	s3,2
    21bc:	f90bc8e3 	bne	s2,s3,21a0 <test_14+0x8>

000021c0 <test_15>:
    21c0:	e0003c13 	li	a10,15
    21c4:	20000013 	li	s2,0
    21c8:	08000013 	li	ra,0
    21cc:	10000013 	li	s0,0
    21d0:	084400e3 	bne	ra,s0,22d0 <fail>
    21d4:	21000413 	add	s2,s2,1
    21d8:	28000813 	li	s3,2
    21dc:	f90bd8e3 	bne	s2,s3,21c8 <test_15+0x8>

000021e0 <test_16>:
    21e0:	e0004013 	li	a10,16
    21e4:	20000013 	li	s2,0
    21e8:	08000013 	li	ra,0
    21ec:	10000013 	li	s0,0
    21f0:	00000013 	nop
    21f4:	0045b8e3 	bne	ra,s0,22d0 <fail>
    21f8:	21000413 	add	s2,s2,1
    21fc:	28000813 	li	s3,2
    2200:	f90bd0e3 	bne	s2,s3,21e8 <test_16+0x8>

00002204 <test_17>:
    2204:	e0004413 	li	a10,17
    2208:	20000013 	li	s2,0
    220c:	08000013 	li	ra,0
    2210:	10000013 	li	s0,0
    2214:	00000013 	nop
    2218:	00000013 	nop
    221c:	004568e3 	bne	ra,s0,22d0 <fail>
    2220:	21000413 	add	s2,s2,1
    2224:	28000813 	li	s3,2
    2228:	f90bc8e3 	bne	s2,s3,220c <test_17+0x8>

0000222c <test_18>:
    222c:	e0004813 	li	a10,18
    2230:	20000013 	li	s2,0
    2234:	08000013 	li	ra,0
    2238:	00000013 	nop
    223c:	10000013 	li	s0,0
    2240:	004520e3 	bne	ra,s0,22d0 <fail>
    2244:	21000413 	add	s2,s2,1
    2248:	28000813 	li	s3,2
    224c:	f90bd0e3 	bne	s2,s3,2234 <test_18+0x8>

00002250 <test_19>:
    2250:	e0004c13 	li	a10,19
    2254:	20000013 	li	s2,0
    2258:	08000013 	li	ra,0
    225c:	00000013 	nop
    2260:	10000013 	li	s0,0
    2264:	00000013 	nop
    2268:	0044d0e3 	bne	ra,s0,22d0 <fail>
    226c:	21000413 	add	s2,s2,1
    2270:	28000813 	li	s3,2
    2274:	f90bc8e3 	bne	s2,s3,2258 <test_19+0x8>

00002278 <test_20>:
    2278:	e0005013 	li	a10,20
    227c:	20000013 	li	s2,0
    2280:	08000013 	li	ra,0
    2284:	00000013 	nop
    2288:	00000013 	nop
    228c:	10000013 	li	s0,0
    2290:	004480e3 	bne	ra,s0,22d0 <fail>
    2294:	21000413 	add	s2,s2,1
    2298:	28000813 	li	s3,2
    229c:	f90bc8e3 	bne	s2,s3,2280 <test_20+0x8>

000022a0 <test_21>:
    22a0:	08000413 	li	ra,1
    22a4:	004028e3 	bnez	ra,22b8 <test_21+0x18>
    22a8:	08400413 	add	ra,ra,1
    22ac:	08400413 	add	ra,ra,1
    22b0:	08400413 	add	ra,ra,1
    22b4:	08400413 	add	ra,ra,1
    22b8:	08400413 	add	ra,ra,1
    22bc:	08400413 	add	ra,ra,1
    22c0:	e8000c13 	li	a11,3
    22c4:	e0005413 	li	a10,21
    22c8:	007a10e3 	bne	ra,a11,22d0 <fail>
    22cc:	003830e3 	bne	zero,a10,22e4 <pass>

000022d0 <fail>:
    22d0:	e7000493 	sll	a10,a10,0x1
    22d4:	e7000713 	or	a10,a10,1
    22d8:	07b801fb 	mtpcr	zero,a10,cr30
    22dc:	00000063 	b	22dc <fail+0xc>
    22e0:	00000013 	nop

000022e4 <pass>:
    22e4:	08000413 	li	ra,1
    22e8:	078201fb 	mtpcr	zero,ra,cr30
    22ec:	00000063 	b	22ec <pass+0x8>
    22f0:	00000013 	nop
    22f4:	00000013 	nop
    22f8:	00000013 	nop
    22fc:	00000013 	nop
