
riscv-v2_sub:     file format elf32-littleriscv


Disassembly of section .text:

00002000 <_start>:
    2000:	0800017b 	mfpcr	ra,cr0
    2004:	087dff93 	and	ra,ra,-129
    2008:	000201fb 	mtpcr	zero,ra,cr0

0000200c <test_2>:
    200c:	08000013 	li	ra,0
    2010:	10000013 	li	s0,0
    2014:	18450033 	sub	s1,ra,s0
    2018:	e8000013 	li	a11,0
    201c:	e0000813 	li	a10,2
    2020:	20fab8e3 	bne	s1,a11,247c <fail>

00002024 <test_3>:
    2024:	08000413 	li	ra,1
    2028:	10000413 	li	s0,1
    202c:	18450033 	sub	s1,ra,s0
    2030:	e8000013 	li	a11,0
    2034:	e0000c13 	li	a10,3
    2038:	20fa88e3 	bne	s1,a11,247c <fail>

0000203c <test_4>:
    203c:	08000c13 	li	ra,3
    2040:	10001c13 	li	s0,7
    2044:	18450033 	sub	s1,ra,s0
    2048:	e83ff013 	li	a11,-4
    204c:	e0001013 	li	a10,4
    2050:	20fa58e3 	bne	s1,a11,247c <fail>

00002054 <test_5>:
    2054:	08000013 	li	ra,0
    2058:	17fffc37 	lui	s0,0xffff8
    205c:	18450033 	sub	s1,ra,s0
    2060:	e8000437 	lui	a11,0x8
    2064:	e0001413 	li	a10,5
    2068:	20fa28e3 	bne	s1,a11,247c <fail>

0000206c <test_6>:
    206c:	0c000037 	lui	ra,0x80000
    2070:	10000013 	li	s0,0
    2074:	18450033 	sub	s1,ra,s0
    2078:	ec000037 	lui	a11,0x80000
    207c:	e0001813 	li	a10,6
    2080:	18fbf8e3 	bne	s1,a11,247c <fail>

00002084 <test_7>:
    2084:	0c000037 	lui	ra,0x80000
    2088:	17fffc37 	lui	s0,0xffff8
    208c:	18450033 	sub	s1,ra,s0
    2090:	ec000437 	lui	a11,0x80008
    2094:	e0001c13 	li	a10,7
    2098:	18fbc8e3 	bne	s1,a11,247c <fail>

0000209c <test_8>:
    209c:	08000013 	li	ra,0
    20a0:	10000437 	lui	s0,0x8
    20a4:	10bffc13 	add	s0,s0,-1
    20a8:	18450033 	sub	s1,ra,s0
    20ac:	effffc37 	lui	a11,0xffff8
    20b0:	ef400413 	add	a11,a11,1
    20b4:	e0002013 	li	a10,8
    20b8:	18fb88e3 	bne	s1,a11,247c <fail>

000020bc <test_9>:
    20bc:	0c000037 	lui	ra,0x80000
    20c0:	087ffc13 	add	ra,ra,-1
    20c4:	10000013 	li	s0,0
    20c8:	18450033 	sub	s1,ra,s0
    20cc:	ec000037 	lui	a11,0x80000
    20d0:	ef7ffc13 	add	a11,a11,-1
    20d4:	e0002413 	li	a10,9
    20d8:	18fb48e3 	bne	s1,a11,247c <fail>

000020dc <test_10>:
    20dc:	0c000037 	lui	ra,0x80000
    20e0:	087ffc13 	add	ra,ra,-1
    20e4:	10000437 	lui	s0,0x8
    20e8:	10bffc13 	add	s0,s0,-1
    20ec:	18450033 	sub	s1,ra,s0
    20f0:	ebfffc37 	lui	a11,0x7fff8
    20f4:	e0002813 	li	a10,10
    20f8:	18fb08e3 	bne	s1,a11,247c <fail>

000020fc <test_11>:
    20fc:	0c000037 	lui	ra,0x80000
    2100:	10000437 	lui	s0,0x8
    2104:	10bffc13 	add	s0,s0,-1
    2108:	18450033 	sub	s1,ra,s0
    210c:	ebfffc37 	lui	a11,0x7fff8
    2110:	ef400413 	add	a11,a11,1
    2114:	e0002c13 	li	a10,11
    2118:	18fac8e3 	bne	s1,a11,247c <fail>

0000211c <test_12>:
    211c:	0c000037 	lui	ra,0x80000
    2120:	087ffc13 	add	ra,ra,-1
    2124:	17fffc37 	lui	s0,0xffff8
    2128:	18450033 	sub	s1,ra,s0
    212c:	ec000437 	lui	a11,0x80008
    2130:	ef7ffc13 	add	a11,a11,-1
    2134:	e0003013 	li	a10,12
    2138:	18fa88e3 	bne	s1,a11,247c <fail>

0000213c <test_13>:
    213c:	08000013 	li	ra,0
    2140:	103ffc13 	li	s0,-1
    2144:	18450033 	sub	s1,ra,s0
    2148:	e8000413 	li	a11,1
    214c:	e0003413 	li	a10,13
    2150:	18fa58e3 	bne	s1,a11,247c <fail>

00002154 <test_14>:
    2154:	083ffc13 	li	ra,-1
    2158:	10000413 	li	s0,1
    215c:	18450033 	sub	s1,ra,s0
    2160:	e83ff813 	li	a11,-2
    2164:	e0003813 	li	a10,14
    2168:	18fa28e3 	bne	s1,a11,247c <fail>

0000216c <test_15>:
    216c:	083ffc13 	li	ra,-1
    2170:	103ffc13 	li	s0,-1
    2174:	18450033 	sub	s1,ra,s0
    2178:	e8000013 	li	a11,0
    217c:	e0003c13 	li	a10,15
    2180:	10fbf8e3 	bne	s1,a11,247c <fail>

00002184 <test_16>:
    2184:	08003413 	li	ra,13
    2188:	10002c13 	li	s0,11
    218c:	08450033 	sub	ra,ra,s0
    2190:	e8000813 	li	a11,2
    2194:	e0004013 	li	a10,16
    2198:	107bc8e3 	bne	ra,a11,247c <fail>

0000219c <test_17>:
    219c:	08003813 	li	ra,14
    21a0:	10002c13 	li	s0,11
    21a4:	10450033 	sub	s0,ra,s0
    21a8:	e8000c13 	li	a11,3
    21ac:	e0004413 	li	a10,17
    21b0:	10bb98e3 	bne	s0,a11,247c <fail>

000021b4 <test_18>:
    21b4:	08003413 	li	ra,13
    21b8:	08430033 	sub	ra,ra,ra
    21bc:	e8000013 	li	a11,0
    21c0:	e0004813 	li	a10,18
    21c4:	107b70e3 	bne	ra,a11,247c <fail>

000021c8 <test_19>:
    21c8:	20000013 	li	s2,0
    21cc:	08003413 	li	ra,13
    21d0:	10002c13 	li	s0,11
    21d4:	18450033 	sub	s1,ra,s0
    21d8:	30c00013 	move	s4,s1
    21dc:	21000413 	add	s2,s2,1
    21e0:	28000813 	li	s3,2
    21e4:	f90bd0e3 	bne	s2,s3,21cc <test_19+0x4>
    21e8:	e8000813 	li	a11,2
    21ec:	e0004c13 	li	a10,19
    21f0:	11bb18e3 	bne	s4,a11,247c <fail>

000021f4 <test_20>:
    21f4:	20000013 	li	s2,0
    21f8:	08003813 	li	ra,14
    21fc:	10002c13 	li	s0,11
    2200:	18450033 	sub	s1,ra,s0
    2204:	00000013 	nop
    2208:	30c00013 	move	s4,s1
    220c:	21000413 	add	s2,s2,1
    2210:	28000813 	li	s3,2
    2214:	f90bc8e3 	bne	s2,s3,21f8 <test_20+0x4>
    2218:	e8000c13 	li	a11,3
    221c:	e0005013 	li	a10,20
    2220:	11bab8e3 	bne	s4,a11,247c <fail>

00002224 <test_21>:
    2224:	20000013 	li	s2,0
    2228:	08003c13 	li	ra,15
    222c:	10002c13 	li	s0,11
    2230:	18450033 	sub	s1,ra,s0
    2234:	00000013 	nop
    2238:	00000013 	nop
    223c:	30c00013 	move	s4,s1
    2240:	21000413 	add	s2,s2,1
    2244:	28000813 	li	s3,2
    2248:	f90bc0e3 	bne	s2,s3,2228 <test_21+0x4>
    224c:	e8001013 	li	a11,4
    2250:	e0005413 	li	a10,21
    2254:	11ba50e3 	bne	s4,a11,247c <fail>

00002258 <test_22>:
    2258:	20000013 	li	s2,0
    225c:	08003413 	li	ra,13
    2260:	10002c13 	li	s0,11
    2264:	18450033 	sub	s1,ra,s0
    2268:	21000413 	add	s2,s2,1
    226c:	28000813 	li	s3,2
    2270:	f90bd8e3 	bne	s2,s3,225c <test_22+0x4>
    2274:	e8000813 	li	a11,2
    2278:	e0005813 	li	a10,22
    227c:	10fa00e3 	bne	s1,a11,247c <fail>

00002280 <test_23>:
    2280:	20000013 	li	s2,0
    2284:	08003813 	li	ra,14
    2288:	10002c13 	li	s0,11
    228c:	00000013 	nop
    2290:	18450033 	sub	s1,ra,s0
    2294:	21000413 	add	s2,s2,1
    2298:	28000813 	li	s3,2
    229c:	f90bd0e3 	bne	s2,s3,2284 <test_23+0x4>
    22a0:	e8000c13 	li	a11,3
    22a4:	e0005c13 	li	a10,23
    22a8:	08fba8e3 	bne	s1,a11,247c <fail>

000022ac <test_24>:
    22ac:	20000013 	li	s2,0
    22b0:	08003c13 	li	ra,15
    22b4:	10002c13 	li	s0,11
    22b8:	00000013 	nop
    22bc:	00000013 	nop
    22c0:	18450033 	sub	s1,ra,s0
    22c4:	21000413 	add	s2,s2,1
    22c8:	28000813 	li	s3,2
    22cc:	f90bc8e3 	bne	s2,s3,22b0 <test_24+0x4>
    22d0:	e8001013 	li	a11,4
    22d4:	e0006013 	li	a10,24
    22d8:	08fb48e3 	bne	s1,a11,247c <fail>

000022dc <test_25>:
    22dc:	20000013 	li	s2,0
    22e0:	08003413 	li	ra,13
    22e4:	00000013 	nop
    22e8:	10002c13 	li	s0,11
    22ec:	18450033 	sub	s1,ra,s0
    22f0:	21000413 	add	s2,s2,1
    22f4:	28000813 	li	s3,2
    22f8:	f90bd0e3 	bne	s2,s3,22e0 <test_25+0x4>
    22fc:	e8000813 	li	a11,2
    2300:	e0006413 	li	a10,25
    2304:	08faf0e3 	bne	s1,a11,247c <fail>

00002308 <test_26>:
    2308:	20000013 	li	s2,0
    230c:	08003813 	li	ra,14
    2310:	00000013 	nop
    2314:	10002c13 	li	s0,11
    2318:	00000013 	nop
    231c:	18450033 	sub	s1,ra,s0
    2320:	21000413 	add	s2,s2,1
    2324:	28000813 	li	s3,2
    2328:	f90bc8e3 	bne	s2,s3,230c <test_26+0x4>
    232c:	e8000c13 	li	a11,3
    2330:	e0006813 	li	a10,26
    2334:	08fa90e3 	bne	s1,a11,247c <fail>

00002338 <test_27>:
    2338:	20000013 	li	s2,0
    233c:	08003c13 	li	ra,15
    2340:	00000013 	nop
    2344:	00000013 	nop
    2348:	10002c13 	li	s0,11
    234c:	18450033 	sub	s1,ra,s0
    2350:	21000413 	add	s2,s2,1
    2354:	28000813 	li	s3,2
    2358:	f90bc8e3 	bne	s2,s3,233c <test_27+0x4>
    235c:	e8001013 	li	a11,4
    2360:	e0006c13 	li	a10,27
    2364:	08fa30e3 	bne	s1,a11,247c <fail>

00002368 <test_28>:
    2368:	20000013 	li	s2,0
    236c:	10002c13 	li	s0,11
    2370:	08003413 	li	ra,13
    2374:	18450033 	sub	s1,ra,s0
    2378:	21000413 	add	s2,s2,1
    237c:	28000813 	li	s3,2
    2380:	f90bd8e3 	bne	s2,s3,236c <test_28+0x4>
    2384:	e8000813 	li	a11,2
    2388:	e0007013 	li	a10,28
    238c:	00fbe0e3 	bne	s1,a11,247c <fail>

00002390 <test_29>:
    2390:	20000013 	li	s2,0
    2394:	10002c13 	li	s0,11
    2398:	08003813 	li	ra,14
    239c:	00000013 	nop
    23a0:	18450033 	sub	s1,ra,s0
    23a4:	21000413 	add	s2,s2,1
    23a8:	28000813 	li	s3,2
    23ac:	f90bd0e3 	bne	s2,s3,2394 <test_29+0x4>
    23b0:	e8000c13 	li	a11,3
    23b4:	e0007413 	li	a10,29
    23b8:	00fb88e3 	bne	s1,a11,247c <fail>

000023bc <test_30>:
    23bc:	20000013 	li	s2,0
    23c0:	10002c13 	li	s0,11
    23c4:	08003c13 	li	ra,15
    23c8:	00000013 	nop
    23cc:	00000013 	nop
    23d0:	18450033 	sub	s1,ra,s0
    23d4:	21000413 	add	s2,s2,1
    23d8:	28000813 	li	s3,2
    23dc:	f90bc8e3 	bne	s2,s3,23c0 <test_30+0x4>
    23e0:	e8001013 	li	a11,4
    23e4:	e0007813 	li	a10,30
    23e8:	00fb28e3 	bne	s1,a11,247c <fail>

000023ec <test_31>:
    23ec:	20000013 	li	s2,0
    23f0:	10002c13 	li	s0,11
    23f4:	00000013 	nop
    23f8:	08003413 	li	ra,13
    23fc:	18450033 	sub	s1,ra,s0
    2400:	21000413 	add	s2,s2,1
    2404:	28000813 	li	s3,2
    2408:	f90bd0e3 	bne	s2,s3,23f0 <test_31+0x4>
    240c:	e8000813 	li	a11,2
    2410:	e0007c13 	li	a10,31
    2414:	00fad0e3 	bne	s1,a11,247c <fail>

00002418 <test_32>:
    2418:	20000013 	li	s2,0
    241c:	10002c13 	li	s0,11
    2420:	00000013 	nop
    2424:	08003813 	li	ra,14
    2428:	00000013 	nop
    242c:	18450033 	sub	s1,ra,s0
    2430:	21000413 	add	s2,s2,1
    2434:	28000813 	li	s3,2
    2438:	f90bc8e3 	bne	s2,s3,241c <test_32+0x4>
    243c:	e8000c13 	li	a11,3
    2440:	e0008013 	li	a10,32
    2444:	00fa70e3 	bne	s1,a11,247c <fail>

00002448 <test_33>:
    2448:	20000013 	li	s2,0
    244c:	10002c13 	li	s0,11
    2450:	00000013 	nop
    2454:	00000013 	nop
    2458:	08003c13 	li	ra,15
    245c:	18450033 	sub	s1,ra,s0
    2460:	21000413 	add	s2,s2,1
    2464:	28000813 	li	s3,2
    2468:	f90bc8e3 	bne	s2,s3,244c <test_33+0x4>
    246c:	e8001013 	li	a11,4
    2470:	e0008413 	li	a10,33
    2474:	00fa10e3 	bne	s1,a11,247c <fail>
    2478:	003830e3 	bne	zero,a10,2490 <pass>

0000247c <fail>:
    247c:	e7000493 	sll	a10,a10,0x1
    2480:	e7000713 	or	a10,a10,1
    2484:	07b801fb 	mtpcr	zero,a10,cr30
    2488:	00000063 	b	2488 <fail+0xc>
    248c:	00000013 	nop

00002490 <pass>:
    2490:	08000413 	li	ra,1
    2494:	078201fb 	mtpcr	zero,ra,cr30
    2498:	00000063 	b	2498 <pass+0x8>
    249c:	00000013 	nop
