
riscv-vu_addm:     file format elf32-littleriscv


Disassembly of section .text:

00002000 <_start>:
    2000:	0800017b 	mfpcr	ra,cr0
    2004:	087dff93 	and	ra,ra,-129
    2008:	000201fb 	mtpcr	zero,ra,cr0
    200c:	08000137 	lui	ra,0x2
    2010:	08424013 	add	ra,ra,144
    2014:	10000137 	lui	s0,0x2
    2018:	10825013 	add	s0,s0,148
    201c:	18000137 	lui	s1,0x2
    2020:	18c26013 	add	s1,s1,152
    2024:	1845fffb 	0x1845fffb
    2028:	20c00103 	lw	s2,0(s1)
    202c:	28001413 	li	s3,5
    2030:	010a3863 	beq	s2,s3,204c <pass>

00002034 <fail>:
    2034:	08000813 	li	ra,2
    2038:	078201fb 	mtpcr	zero,ra,cr30
    203c:	00000013 	nop
    2040:	00000013 	nop
    2044:	00000013 	nop
    2048:	00000063 	b	2048 <fail+0x14>

0000204c <pass>:
    204c:	08000413 	li	ra,1
    2050:	078201fb 	mtpcr	zero,ra,cr30
    2054:	00000013 	nop
    2058:	00000013 	nop
    205c:	00000013 	nop
    2060:	00000013 	nop
    2064:	00000013 	nop
    2068:	00000013 	nop
    206c:	00000013 	nop
    2070:	00000013 	nop
    2074:	00000013 	nop
    2078:	00000013 	nop
    207c:	00000013 	nop
    2080:	00000063 	b	2080 <pass+0x34>
    2084:	00000013 	nop
    2088:	00000013 	nop
    208c:	00000013 	nop
