
riscv-v2_sw:     file format elf32-littleriscv


Disassembly of section .text:

00002000 <_start>:
    2000:	0800017b 	mfpcr	ra,cr0
    2004:	087dff93 	and	ra,ra,-129
    2008:	000201fb 	mtpcr	zero,ra,cr0

0000200c <test_2>:
    200c:	08000137 	lui	ra,0x2
    2010:	08530013 	add	ra,ra,1216
    2014:	10055037 	lui	s0,0xaa0
    2018:	1082a813 	add	s0,s0,170
    201c:	00440123 	sw	s0,0(ra)
    2020:	18400103 	lw	s1,0(ra)
    2024:	e8055037 	lui	a11,0xaa0
    2028:	ef42a813 	add	a11,a11,170
    202c:	e0000813 	li	a10,2
    2030:	20fac0e3 	bne	s1,a11,2490 <fail>

00002034 <test_3>:
    2034:	08000137 	lui	ra,0x2
    2038:	08530013 	add	ra,ra,1216
    203c:	155005b7 	lui	s0,0xaa00b
    2040:	10a80013 	add	s0,s0,-1536
    2044:	00441123 	sw	s0,4(ra)
    2048:	18401103 	lw	s1,4(ra)
    204c:	ed5005b7 	lui	a11,0xaa00b
    2050:	ef680013 	add	a11,a11,-1536
    2054:	e0000c13 	li	a10,3
    2058:	20fa70e3 	bne	s1,a11,2490 <fail>

0000205c <test_4>:
    205c:	08000137 	lui	ra,0x2
    2060:	08530013 	add	ra,ra,1216
    2064:	105500b7 	lui	s0,0xaa01
    2068:	10aa8013 	add	s0,s0,-1376
    206c:	00442123 	sw	s0,8(ra)
    2070:	18402103 	lw	s1,8(ra)
    2074:	e85500b7 	lui	a11,0xaa01
    2078:	ef6a8013 	add	a11,a11,-1376
    207c:	e0001013 	li	a10,4
    2080:	20fa20e3 	bne	s1,a11,2490 <fail>

00002084 <test_5>:
    2084:	08000137 	lui	ra,0x2
    2088:	08530013 	add	ra,ra,1216
    208c:	15005537 	lui	s0,0xa00aa
    2090:	10802813 	add	s0,s0,10
    2094:	00443123 	sw	s0,12(ra)
    2098:	18403103 	lw	s1,12(ra)
    209c:	ed005537 	lui	a11,0xa00aa
    20a0:	ef402813 	add	a11,a11,10
    20a4:	e0001413 	li	a10,5
    20a8:	18fbd0e3 	bne	s1,a11,2490 <fail>

000020ac <test_6>:
    20ac:	08000137 	lui	ra,0x2
    20b0:	08537013 	add	ra,ra,1244
    20b4:	10055037 	lui	s0,0xaa0
    20b8:	1082a813 	add	s0,s0,170
    20bc:	f845d123 	sw	s0,-12(ra)
    20c0:	187fd103 	lw	s1,-12(ra)
    20c4:	e8055037 	lui	a11,0xaa0
    20c8:	ef42a813 	add	a11,a11,170
    20cc:	e0001813 	li	a10,6
    20d0:	18fb80e3 	bne	s1,a11,2490 <fail>

000020d4 <test_7>:
    20d4:	08000137 	lui	ra,0x2
    20d8:	08537013 	add	ra,ra,1244
    20dc:	155005b7 	lui	s0,0xaa00b
    20e0:	10a80013 	add	s0,s0,-1536
    20e4:	f845e123 	sw	s0,-8(ra)
    20e8:	187fe103 	lw	s1,-8(ra)
    20ec:	ed5005b7 	lui	a11,0xaa00b
    20f0:	ef680013 	add	a11,a11,-1536
    20f4:	e0001c13 	li	a10,7
    20f8:	18fb30e3 	bne	s1,a11,2490 <fail>

000020fc <test_8>:
    20fc:	08000137 	lui	ra,0x2
    2100:	08537013 	add	ra,ra,1244
    2104:	105500b7 	lui	s0,0xaa01
    2108:	10aa8013 	add	s0,s0,-1376
    210c:	f845f123 	sw	s0,-4(ra)
    2110:	187ff103 	lw	s1,-4(ra)
    2114:	e85500b7 	lui	a11,0xaa01
    2118:	ef6a8013 	add	a11,a11,-1376
    211c:	e0002013 	li	a10,8
    2120:	18fae0e3 	bne	s1,a11,2490 <fail>

00002124 <test_9>:
    2124:	08000137 	lui	ra,0x2
    2128:	08537013 	add	ra,ra,1244
    212c:	15005537 	lui	s0,0xa00aa
    2130:	10802813 	add	s0,s0,10
    2134:	00440123 	sw	s0,0(ra)
    2138:	18400103 	lw	s1,0(ra)
    213c:	ed005537 	lui	a11,0xa00aa
    2140:	ef402813 	add	a11,a11,10
    2144:	e0002413 	li	a10,9
    2148:	18fa90e3 	bne	s1,a11,2490 <fail>

0000214c <test_10>:
    214c:	08000137 	lui	ra,0x2
    2150:	08538013 	add	ra,ra,1248
    2154:	1091a2b7 	lui	s0,0x12345
    2158:	1099e013 	add	s0,s0,1656
    215c:	207f8013 	add	s2,ra,-32
    2160:	01048123 	sw	s0,32(s2)
    2164:	18400103 	lw	s1,0(ra)
    2168:	e891a2b7 	lui	a11,0x12345
    216c:	ef59e013 	add	a11,a11,1656
    2170:	e0002813 	li	a10,10
    2174:	18fa38e3 	bne	s1,a11,2490 <fail>

00002178 <test_11>:
    2178:	08000137 	lui	ra,0x2
    217c:	08538013 	add	ra,ra,1248
    2180:	12c109b7 	lui	s0,0x58213
    2184:	10826013 	add	s0,s0,152
    2188:	087ff413 	add	ra,ra,-3
    218c:	00441d23 	sw	s0,7(ra)
    2190:	20000137 	lui	s2,0x2
    2194:	21139013 	add	s2,s2,1252
    2198:	19000103 	lw	s1,0(s2)
    219c:	eac109b7 	lui	a11,0x58213
    21a0:	ef426013 	add	a11,a11,152
    21a4:	e0002c13 	li	a10,11
    21a8:	10fbd0e3 	bne	s1,a11,2490 <fail>

000021ac <test_12>:
    21ac:	e0003013 	li	a10,12
    21b0:	20000013 	li	s2,0
    21b4:	0d55deb7 	lui	ra,0xaabbd
    21b8:	08737413 	add	ra,ra,-803
    21bc:	10000137 	lui	s0,0x2
    21c0:	10930013 	add	s0,s0,1216
    21c4:	00820123 	sw	ra,0(s0)
    21c8:	18800103 	lw	s1,0(s0)
    21cc:	ed55deb7 	lui	a11,0xaabbd
    21d0:	ef737413 	add	a11,a11,-803
    21d4:	10fb78e3 	bne	s1,a11,2490 <fail>
    21d8:	21000413 	add	s2,s2,1
    21dc:	28000813 	li	s3,2
    21e0:	f90ba8e3 	bne	s2,s3,21b4 <test_12+0x8>

000021e4 <test_13>:
    21e4:	e0003413 	li	a10,13
    21e8:	20000013 	li	s2,0
    21ec:	0ed55e37 	lui	ra,0xdaabc
    21f0:	08733413 	add	ra,ra,-819
    21f4:	10000137 	lui	s0,0x2
    21f8:	10930013 	add	s0,s0,1216
    21fc:	00000013 	nop
    2200:	00821123 	sw	ra,4(s0)
    2204:	18801103 	lw	s1,4(s0)
    2208:	eed55e37 	lui	a11,0xdaabc
    220c:	ef733413 	add	a11,a11,-819
    2210:	10fb00e3 	bne	s1,a11,2490 <fail>
    2214:	21000413 	add	s2,s2,1
    2218:	28000813 	li	s3,2
    221c:	f90ba0e3 	bne	s2,s3,21ec <test_13+0x8>

00002220 <test_14>:
    2220:	e0003813 	li	a10,14
    2224:	20000013 	li	s2,0
    2228:	0eed5637 	lui	ra,0xddaac
    222c:	086f3013 	add	ra,ra,-1076
    2230:	10000137 	lui	s0,0x2
    2234:	10930013 	add	s0,s0,1216
    2238:	00000013 	nop
    223c:	00000013 	nop
    2240:	00822123 	sw	ra,8(s0)
    2244:	18802103 	lw	s1,8(s0)
    2248:	eeed5637 	lui	a11,0xddaac
    224c:	ef6f3013 	add	a11,a11,-1076
    2250:	10fa80e3 	bne	s1,a11,2490 <fail>
    2254:	21000413 	add	s2,s2,1
    2258:	28000813 	li	s3,2
    225c:	f90b98e3 	bne	s2,s3,2228 <test_14+0x8>

00002260 <test_15>:
    2260:	e0003c13 	li	a10,15
    2264:	20000013 	li	s2,0
    2268:	0e6ed5b7 	lui	ra,0xcddab
    226c:	086ef013 	add	ra,ra,-1092
    2270:	00000013 	nop
    2274:	10000137 	lui	s0,0x2
    2278:	10930013 	add	s0,s0,1216
    227c:	00823123 	sw	ra,12(s0)
    2280:	18803103 	lw	s1,12(s0)
    2284:	ee6ed5b7 	lui	a11,0xcddab
    2288:	ef6ef013 	add	a11,a11,-1092
    228c:	10fa08e3 	bne	s1,a11,2490 <fail>
    2290:	21000413 	add	s2,s2,1
    2294:	28000813 	li	s3,2
    2298:	f90ba0e3 	bne	s2,s3,2268 <test_15+0x8>

0000229c <test_16>:
    229c:	e0004013 	li	a10,16
    22a0:	20000013 	li	s2,0
    22a4:	0e66edb7 	lui	ra,0xccddb
    22a8:	086aec13 	add	ra,ra,-1349
    22ac:	00000013 	nop
    22b0:	10000137 	lui	s0,0x2
    22b4:	10930013 	add	s0,s0,1216
    22b8:	00000013 	nop
    22bc:	00824123 	sw	ra,16(s0)
    22c0:	18804103 	lw	s1,16(s0)
    22c4:	ee66edb7 	lui	a11,0xccddb
    22c8:	ef6aec13 	add	a11,a11,-1349
    22cc:	08fb88e3 	bne	s1,a11,2490 <fail>
    22d0:	21000413 	add	s2,s2,1
    22d4:	28000813 	li	s3,2
    22d8:	f90b98e3 	bne	s2,s3,22a4 <test_16+0x8>

000022dc <test_17>:
    22dc:	e0004413 	li	a10,17
    22e0:	20000013 	li	s2,0
    22e4:	0de66f37 	lui	ra,0xbccde
    22e8:	086aac13 	add	ra,ra,-1365
    22ec:	00000013 	nop
    22f0:	00000013 	nop
    22f4:	10000137 	lui	s0,0x2
    22f8:	10930013 	add	s0,s0,1216
    22fc:	00825123 	sw	ra,20(s0)
    2300:	18805103 	lw	s1,20(s0)
    2304:	ede66f37 	lui	a11,0xbccde
    2308:	ef6aac13 	add	a11,a11,-1365
    230c:	08fb08e3 	bne	s1,a11,2490 <fail>
    2310:	21000413 	add	s2,s2,1
    2314:	28000813 	li	s3,2
    2318:	f90b98e3 	bne	s2,s3,22e4 <test_17+0x8>

0000231c <test_18>:
    231c:	e0004813 	li	a10,18
    2320:	20000013 	li	s2,0
    2324:	10000137 	lui	s0,0x2
    2328:	10930013 	add	s0,s0,1216
    232c:	08008937 	lui	ra,0x112
    2330:	0848cc13 	add	ra,ra,563
    2334:	00820123 	sw	ra,0(s0)
    2338:	18800103 	lw	s1,0(s0)
    233c:	e8008937 	lui	a11,0x112
    2340:	ef48cc13 	add	a11,a11,563
    2344:	08fa98e3 	bne	s1,a11,2490 <fail>
    2348:	21000413 	add	s2,s2,1
    234c:	28000813 	li	s3,2
    2350:	f90ba8e3 	bne	s2,s3,2324 <test_18+0x8>

00002354 <test_19>:
    2354:	e0004c13 	li	a10,19
    2358:	20000013 	li	s2,0
    235c:	10000137 	lui	s0,0x2
    2360:	10930013 	add	s0,s0,1216
    2364:	098008b7 	lui	ra,0x30011
    2368:	08488c13 	add	ra,ra,547
    236c:	00000013 	nop
    2370:	00821123 	sw	ra,4(s0)
    2374:	18801103 	lw	s1,4(s0)
    2378:	e98008b7 	lui	a11,0x30011
    237c:	ef488c13 	add	a11,a11,547
    2380:	08fa20e3 	bne	s1,a11,2490 <fail>
    2384:	21000413 	add	s2,s2,1
    2388:	28000813 	li	s3,2
    238c:	f90ba0e3 	bne	s2,s3,235c <test_19+0x8>

00002390 <test_20>:
    2390:	e0005013 	li	a10,20
    2394:	20000013 	li	s2,0
    2398:	10000137 	lui	s0,0x2
    239c:	10930013 	add	s0,s0,1216
    23a0:	099800b7 	lui	ra,0x33001
    23a4:	08448813 	add	ra,ra,290
    23a8:	00000013 	nop
    23ac:	00000013 	nop
    23b0:	00822123 	sw	ra,8(s0)
    23b4:	18802103 	lw	s1,8(s0)
    23b8:	e99800b7 	lui	a11,0x33001
    23bc:	ef448813 	add	a11,a11,290
    23c0:	00fba0e3 	bne	s1,a11,2490 <fail>
    23c4:	21000413 	add	s2,s2,1
    23c8:	28000813 	li	s3,2
    23cc:	f90b98e3 	bne	s2,s3,2398 <test_20+0x8>

000023d0 <test_21>:
    23d0:	e0005413 	li	a10,21
    23d4:	20000013 	li	s2,0
    23d8:	10000137 	lui	s0,0x2
    23dc:	10930013 	add	s0,s0,1216
    23e0:	00000013 	nop
    23e4:	09198037 	lui	ra,0x23300
    23e8:	08444813 	add	ra,ra,274
    23ec:	00823123 	sw	ra,12(s0)
    23f0:	18803103 	lw	s1,12(s0)
    23f4:	e9198037 	lui	a11,0x23300
    23f8:	ef444813 	add	a11,a11,274
    23fc:	00fb28e3 	bne	s1,a11,2490 <fail>
    2400:	21000413 	add	s2,s2,1
    2404:	28000813 	li	s3,2
    2408:	f90ba0e3 	bne	s2,s3,23d8 <test_21+0x8>

0000240c <test_22>:
    240c:	e0005813 	li	a10,22
    2410:	20000013 	li	s2,0
    2414:	10000137 	lui	s0,0x2
    2418:	10930013 	add	s0,s0,1216
    241c:	00000013 	nop
    2420:	09119837 	lui	ra,0x22330
    2424:	08404413 	add	ra,ra,17
    2428:	00000013 	nop
    242c:	00824123 	sw	ra,16(s0)
    2430:	18804103 	lw	s1,16(s0)
    2434:	e9119837 	lui	a11,0x22330
    2438:	ef404413 	add	a11,a11,17
    243c:	00faa8e3 	bne	s1,a11,2490 <fail>
    2440:	21000413 	add	s2,s2,1
    2444:	28000813 	li	s3,2
    2448:	f90b98e3 	bne	s2,s3,2414 <test_22+0x8>

0000244c <test_23>:
    244c:	e0005c13 	li	a10,23
    2450:	20000013 	li	s2,0
    2454:	10000137 	lui	s0,0x2
    2458:	10930013 	add	s0,s0,1216
    245c:	00000013 	nop
    2460:	00000013 	nop
    2464:	089119b7 	lui	ra,0x12233
    2468:	08400413 	add	ra,ra,1
    246c:	00825123 	sw	ra,20(s0)
    2470:	18805103 	lw	s1,20(s0)
    2474:	e89119b7 	lui	a11,0x12233
    2478:	ef400413 	add	a11,a11,1
    247c:	00fa28e3 	bne	s1,a11,2490 <fail>
    2480:	21000413 	add	s2,s2,1
    2484:	28000813 	li	s3,2
    2488:	f90b98e3 	bne	s2,s3,2454 <test_23+0x8>
    248c:	003830e3 	bne	zero,a10,24a4 <pass>

00002490 <fail>:
    2490:	e7000493 	sll	a10,a10,0x1
    2494:	e7000713 	or	a10,a10,1
    2498:	07b801fb 	mtpcr	zero,a10,cr30
    249c:	00000063 	b	249c <fail+0xc>
    24a0:	00000013 	nop

000024a4 <pass>:
    24a4:	08000413 	li	ra,1
    24a8:	078201fb 	mtpcr	zero,ra,cr30
    24ac:	00000063 	b	24ac <pass+0x8>
    24b0:	00000013 	nop
    24b4:	00000013 	nop
    24b8:	00000013 	nop
    24bc:	00000013 	nop
