
riscv-v2_sltiu:     file format elf32-littleriscv


Disassembly of section .text:

00002000 <_start>:
    2000:	0800017b 	mfpcr	ra,cr0
    2004:	087dff93 	and	ra,ra,-129
    2008:	000201fb 	mtpcr	zero,ra,cr0

0000200c <test_2>:
    200c:	08000013 	li	ra,0
    2010:	18400193 	sltu	s1,ra,0
    2014:	e8000013 	li	a11,0
    2018:	e0000813 	li	a10,2
    201c:	10fa78e3 	bne	s1,a11,2258 <fail>

00002020 <test_3>:
    2020:	08000413 	li	ra,1
    2024:	18400593 	sltu	s1,ra,1
    2028:	e8000013 	li	a11,0
    202c:	e0000c13 	li	a10,3
    2030:	10fa50e3 	bne	s1,a11,2258 <fail>

00002034 <test_4>:
    2034:	08000c13 	li	ra,3
    2038:	18401d93 	sltu	s1,ra,7
    203c:	e8000413 	li	a11,1
    2040:	e0001013 	li	a10,4
    2044:	10fa28e3 	bne	s1,a11,2258 <fail>

00002048 <test_5>:
    2048:	08001c13 	li	ra,7
    204c:	18400d93 	sltu	s1,ra,3
    2050:	e8000013 	li	a11,0
    2054:	e0001413 	li	a10,5
    2058:	10fa00e3 	bne	s1,a11,2258 <fail>

0000205c <test_6>:
    205c:	08000013 	li	ra,0
    2060:	18600193 	sltu	s1,ra,-2048
    2064:	e8000413 	li	a11,1
    2068:	e0001813 	li	a10,6
    206c:	08fbd8e3 	bne	s1,a11,2258 <fail>

00002070 <test_7>:
    2070:	0c000037 	lui	ra,0x80000
    2074:	18400193 	sltu	s1,ra,0
    2078:	e8000013 	li	a11,0
    207c:	e0001c13 	li	a10,7
    2080:	08fbb0e3 	bne	s1,a11,2258 <fail>

00002084 <test_8>:
    2084:	0c000037 	lui	ra,0x80000
    2088:	18600193 	sltu	s1,ra,-2048
    208c:	e8000413 	li	a11,1
    2090:	e0002013 	li	a10,8
    2094:	08fb88e3 	bne	s1,a11,2258 <fail>

00002098 <test_9>:
    2098:	08000013 	li	ra,0
    209c:	185ffd93 	sltu	s1,ra,2047
    20a0:	e8000413 	li	a11,1
    20a4:	e0002413 	li	a10,9
    20a8:	08fb60e3 	bne	s1,a11,2258 <fail>

000020ac <test_10>:
    20ac:	0c000037 	lui	ra,0x80000
    20b0:	087ffc13 	add	ra,ra,-1
    20b4:	18400193 	sltu	s1,ra,0
    20b8:	e8000013 	li	a11,0
    20bc:	e0002813 	li	a10,10
    20c0:	08fb30e3 	bne	s1,a11,2258 <fail>

000020c4 <test_11>:
    20c4:	0c000037 	lui	ra,0x80000
    20c8:	087ffc13 	add	ra,ra,-1
    20cc:	185ffd93 	sltu	s1,ra,2047
    20d0:	e8000013 	li	a11,0
    20d4:	e0002c13 	li	a10,11
    20d8:	08fb00e3 	bne	s1,a11,2258 <fail>

000020dc <test_12>:
    20dc:	0c000037 	lui	ra,0x80000
    20e0:	185ffd93 	sltu	s1,ra,2047
    20e4:	e8000013 	li	a11,0
    20e8:	e0003013 	li	a10,12
    20ec:	08fad8e3 	bne	s1,a11,2258 <fail>

000020f0 <test_13>:
    20f0:	0c000037 	lui	ra,0x80000
    20f4:	087ffc13 	add	ra,ra,-1
    20f8:	18600193 	sltu	s1,ra,-2048
    20fc:	e8000413 	li	a11,1
    2100:	e0003413 	li	a10,13
    2104:	08faa8e3 	bne	s1,a11,2258 <fail>

00002108 <test_14>:
    2108:	08000013 	li	ra,0
    210c:	187ffd93 	sltu	s1,ra,-1
    2110:	e8000413 	li	a11,1
    2114:	e0003813 	li	a10,14
    2118:	08fa80e3 	bne	s1,a11,2258 <fail>

0000211c <test_15>:
    211c:	083ffc13 	li	ra,-1
    2120:	18400593 	sltu	s1,ra,1
    2124:	e8000013 	li	a11,0
    2128:	e0003c13 	li	a10,15
    212c:	08fa58e3 	bne	s1,a11,2258 <fail>

00002130 <test_16>:
    2130:	083ffc13 	li	ra,-1
    2134:	187ffd93 	sltu	s1,ra,-1
    2138:	e8000013 	li	a11,0
    213c:	e0004013 	li	a10,16
    2140:	08fa30e3 	bne	s1,a11,2258 <fail>

00002144 <test_17>:
    2144:	08002c13 	li	ra,11
    2148:	08403593 	sltu	ra,ra,13
    214c:	e8000413 	li	a11,1
    2150:	e0004413 	li	a10,17
    2154:	087a08e3 	bne	ra,a11,2258 <fail>

00002158 <test_18>:
    2158:	20000013 	li	s2,0
    215c:	08003c13 	li	ra,15
    2160:	18402993 	sltu	s1,ra,10
    2164:	30c00013 	move	s4,s1
    2168:	21000413 	add	s2,s2,1
    216c:	28000813 	li	s3,2
    2170:	f90bd8e3 	bne	s2,s3,215c <test_18+0x4>
    2174:	e8000013 	li	a11,0
    2178:	e0004813 	li	a10,18
    217c:	01bbb8e3 	bne	s4,a11,2258 <fail>

00002180 <test_19>:
    2180:	20000013 	li	s2,0
    2184:	08002813 	li	ra,10
    2188:	18404193 	sltu	s1,ra,16
    218c:	00000013 	nop
    2190:	30c00013 	move	s4,s1
    2194:	21000413 	add	s2,s2,1
    2198:	28000813 	li	s3,2
    219c:	f90bd0e3 	bne	s2,s3,2184 <test_19+0x4>
    21a0:	e8000413 	li	a11,1
    21a4:	e0004c13 	li	a10,19
    21a8:	01bb60e3 	bne	s4,a11,2258 <fail>

000021ac <test_20>:
    21ac:	20000013 	li	s2,0
    21b0:	08004013 	li	ra,16
    21b4:	18402593 	sltu	s1,ra,9
    21b8:	00000013 	nop
    21bc:	00000013 	nop
    21c0:	30c00013 	move	s4,s1
    21c4:	21000413 	add	s2,s2,1
    21c8:	28000813 	li	s3,2
    21cc:	f90bc8e3 	bne	s2,s3,21b0 <test_20+0x4>
    21d0:	e8000013 	li	a11,0
    21d4:	e0005013 	li	a10,20
    21d8:	01bb00e3 	bne	s4,a11,2258 <fail>

000021dc <test_21>:
    21dc:	20000013 	li	s2,0
    21e0:	08002c13 	li	ra,11
    21e4:	18403d93 	sltu	s1,ra,15
    21e8:	21000413 	add	s2,s2,1
    21ec:	28000813 	li	s3,2
    21f0:	f90be0e3 	bne	s2,s3,21e0 <test_21+0x4>
    21f4:	e8000413 	li	a11,1
    21f8:	e0005413 	li	a10,21
    21fc:	00fab8e3 	bne	s1,a11,2258 <fail>

00002200 <test_22>:
    2200:	20000013 	li	s2,0
    2204:	08004413 	li	ra,17
    2208:	00000013 	nop
    220c:	18402193 	sltu	s1,ra,8
    2210:	21000413 	add	s2,s2,1
    2214:	28000813 	li	s3,2
    2218:	f90bd8e3 	bne	s2,s3,2204 <test_22+0x4>
    221c:	e8000013 	li	a11,0
    2220:	e0005813 	li	a10,22
    2224:	00fa68e3 	bne	s1,a11,2258 <fail>

00002228 <test_23>:
    2228:	20000013 	li	s2,0
    222c:	08003013 	li	ra,12
    2230:	00000013 	nop
    2234:	00000013 	nop
    2238:	18403993 	sltu	s1,ra,14
    223c:	21000413 	add	s2,s2,1
    2240:	28000813 	li	s3,2
    2244:	f90bd0e3 	bne	s2,s3,222c <test_23+0x4>
    2248:	e8000413 	li	a11,1
    224c:	e0005c13 	li	a10,23
    2250:	00fa10e3 	bne	s1,a11,2258 <fail>
    2254:	003830e3 	bne	zero,a10,226c <pass>

00002258 <fail>:
    2258:	e7000493 	sll	a10,a10,0x1
    225c:	e7000713 	or	a10,a10,1
    2260:	07b801fb 	mtpcr	zero,a10,cr30
    2264:	00000063 	b	2264 <fail+0xc>
    2268:	00000013 	nop

0000226c <pass>:
    226c:	08000413 	li	ra,1
    2270:	078201fb 	mtpcr	zero,ra,cr30
    2274:	00000063 	b	2274 <pass+0x8>
    2278:	00000013 	nop
    227c:	00000013 	nop
