
riscv-v2_xor:     file format elf32-littleriscv


Disassembly of section .text:

00002000 <_start>:
    2000:	0800017b 	mfpcr	ra,cr0
    2004:	087dff93 	and	ra,ra,-129
    2008:	000201fb 	mtpcr	zero,ra,cr0

0000200c <test_2>:
    200c:	0ff80837 	lui	ra,0xff010
    2010:	087c0013 	add	ra,ra,-256
    2014:	107878b7 	lui	s0,0xf0f1
    2018:	10bc3c13 	add	s0,s0,-241
    201c:	18440233 	xor	s1,ra,s0
    2020:	ef807fb7 	lui	a11,0xf00ff
    2024:	ef403c13 	add	a11,a11,15
    2028:	e0000813 	li	a10,2
    202c:	20fa70e3 	bne	s1,a11,2464 <fail>

00002030 <test_3>:
    2030:	087f80b7 	lui	ra,0xff01
    2034:	087fc013 	add	ra,ra,-16
    2038:	178787b7 	lui	s0,0xf0f0f
    203c:	1083c013 	add	s0,s0,240
    2040:	18440233 	xor	s1,ra,s0
    2044:	eff80837 	lui	a11,0xff010
    2048:	ef7c0013 	add	a11,a11,-256
    204c:	e0000c13 	li	a10,3
    2050:	20fa28e3 	bne	s1,a11,2464 <fail>

00002054 <test_4>:
    2054:	0807f837 	lui	ra,0xff0
    2058:	0843fc13 	add	ra,ra,255
    205c:	107878b7 	lui	s0,0xf0f1
    2060:	10bc3c13 	add	s0,s0,-241
    2064:	18440233 	xor	s1,ra,s0
    2068:	e87f80b7 	lui	a11,0xff01
    206c:	ef7fc013 	add	a11,a11,-16
    2070:	e0001013 	li	a10,4
    2074:	18fbe0e3 	bne	s1,a11,2464 <fail>

00002078 <test_5>:
    2078:	0f807fb7 	lui	ra,0xf00ff
    207c:	08403c13 	add	ra,ra,15
    2080:	178787b7 	lui	s0,0xf0f0f
    2084:	1083c013 	add	s0,s0,240
    2088:	18440233 	xor	s1,ra,s0
    208c:	e807f837 	lui	a11,0xff0
    2090:	ef43fc13 	add	a11,a11,255
    2094:	e0001413 	li	a10,5
    2098:	18fb98e3 	bne	s1,a11,2464 <fail>

0000209c <test_6>:
    209c:	0ff80837 	lui	ra,0xff010
    20a0:	087c0013 	add	ra,ra,-256
    20a4:	107878b7 	lui	s0,0xf0f1
    20a8:	10bc3c13 	add	s0,s0,-241
    20ac:	08440233 	xor	ra,ra,s0
    20b0:	ef807fb7 	lui	a11,0xf00ff
    20b4:	ef403c13 	add	a11,a11,15
    20b8:	e0001813 	li	a10,6
    20bc:	187b50e3 	bne	ra,a11,2464 <fail>

000020c0 <test_7>:
    20c0:	0ff80837 	lui	ra,0xff010
    20c4:	087c0013 	add	ra,ra,-256
    20c8:	107878b7 	lui	s0,0xf0f1
    20cc:	10bc3c13 	add	s0,s0,-241
    20d0:	10440233 	xor	s0,ra,s0
    20d4:	ef807fb7 	lui	a11,0xf00ff
    20d8:	ef403c13 	add	a11,a11,15
    20dc:	e0001c13 	li	a10,7
    20e0:	18bb08e3 	bne	s0,a11,2464 <fail>

000020e4 <test_8>:
    20e4:	0ff80837 	lui	ra,0xff010
    20e8:	087c0013 	add	ra,ra,-256
    20ec:	08420233 	xor	ra,ra,ra
    20f0:	e8000013 	li	a11,0
    20f4:	e0002013 	li	a10,8
    20f8:	187ad8e3 	bne	ra,a11,2464 <fail>

000020fc <test_9>:
    20fc:	20000013 	li	s2,0
    2100:	0ff80837 	lui	ra,0xff010
    2104:	087c0013 	add	ra,ra,-256
    2108:	107878b7 	lui	s0,0xf0f1
    210c:	10bc3c13 	add	s0,s0,-241
    2110:	18440233 	xor	s1,ra,s0
    2114:	30c00013 	move	s4,s1
    2118:	21000413 	add	s2,s2,1
    211c:	28000813 	li	s3,2
    2120:	f90bc0e3 	bne	s2,s3,2100 <test_9+0x4>
    2124:	ef807fb7 	lui	a11,0xf00ff
    2128:	ef403c13 	add	a11,a11,15
    212c:	e0002413 	li	a10,9
    2130:	19ba68e3 	bne	s4,a11,2464 <fail>

00002134 <test_10>:
    2134:	20000013 	li	s2,0
    2138:	087f80b7 	lui	ra,0xff01
    213c:	087fc013 	add	ra,ra,-16
    2140:	178787b7 	lui	s0,0xf0f0f
    2144:	1083c013 	add	s0,s0,240
    2148:	18440233 	xor	s1,ra,s0
    214c:	00000013 	nop
    2150:	30c00013 	move	s4,s1
    2154:	21000413 	add	s2,s2,1
    2158:	28000813 	li	s3,2
    215c:	f90bb8e3 	bne	s2,s3,2138 <test_10+0x4>
    2160:	eff80837 	lui	a11,0xff010
    2164:	ef7c0013 	add	a11,a11,-256
    2168:	e0002813 	li	a10,10
    216c:	11bbf0e3 	bne	s4,a11,2464 <fail>

00002170 <test_11>:
    2170:	20000013 	li	s2,0
    2174:	0807f837 	lui	ra,0xff0
    2178:	0843fc13 	add	ra,ra,255
    217c:	107878b7 	lui	s0,0xf0f1
    2180:	10bc3c13 	add	s0,s0,-241
    2184:	18440233 	xor	s1,ra,s0
    2188:	00000013 	nop
    218c:	00000013 	nop
    2190:	30c00013 	move	s4,s1
    2194:	21000413 	add	s2,s2,1
    2198:	28000813 	li	s3,2
    219c:	f90bb0e3 	bne	s2,s3,2174 <test_11+0x4>
    21a0:	e87f80b7 	lui	a11,0xff01
    21a4:	ef7fc013 	add	a11,a11,-16
    21a8:	e0002c13 	li	a10,11
    21ac:	11bb70e3 	bne	s4,a11,2464 <fail>

000021b0 <test_12>:
    21b0:	20000013 	li	s2,0
    21b4:	0ff80837 	lui	ra,0xff010
    21b8:	087c0013 	add	ra,ra,-256
    21bc:	107878b7 	lui	s0,0xf0f1
    21c0:	10bc3c13 	add	s0,s0,-241
    21c4:	18440233 	xor	s1,ra,s0
    21c8:	21000413 	add	s2,s2,1
    21cc:	28000813 	li	s3,2
    21d0:	f90bc8e3 	bne	s2,s3,21b4 <test_12+0x4>
    21d4:	ef807fb7 	lui	a11,0xf00ff
    21d8:	ef403c13 	add	a11,a11,15
    21dc:	e0003013 	li	a10,12
    21e0:	10fb08e3 	bne	s1,a11,2464 <fail>

000021e4 <test_13>:
    21e4:	20000013 	li	s2,0
    21e8:	087f80b7 	lui	ra,0xff01
    21ec:	087fc013 	add	ra,ra,-16
    21f0:	178787b7 	lui	s0,0xf0f0f
    21f4:	1083c013 	add	s0,s0,240
    21f8:	00000013 	nop
    21fc:	18440233 	xor	s1,ra,s0
    2200:	21000413 	add	s2,s2,1
    2204:	28000813 	li	s3,2
    2208:	f90bc0e3 	bne	s2,s3,21e8 <test_13+0x4>
    220c:	eff80837 	lui	a11,0xff010
    2210:	ef7c0013 	add	a11,a11,-256
    2214:	e0003413 	li	a10,13
    2218:	10fa98e3 	bne	s1,a11,2464 <fail>

0000221c <test_14>:
    221c:	20000013 	li	s2,0
    2220:	0807f837 	lui	ra,0xff0
    2224:	0843fc13 	add	ra,ra,255
    2228:	107878b7 	lui	s0,0xf0f1
    222c:	10bc3c13 	add	s0,s0,-241
    2230:	00000013 	nop
    2234:	00000013 	nop
    2238:	18440233 	xor	s1,ra,s0
    223c:	21000413 	add	s2,s2,1
    2240:	28000813 	li	s3,2
    2244:	f90bb8e3 	bne	s2,s3,2220 <test_14+0x4>
    2248:	e87f80b7 	lui	a11,0xff01
    224c:	ef7fc013 	add	a11,a11,-16
    2250:	e0003813 	li	a10,14
    2254:	10fa20e3 	bne	s1,a11,2464 <fail>

00002258 <test_15>:
    2258:	20000013 	li	s2,0
    225c:	0ff80837 	lui	ra,0xff010
    2260:	087c0013 	add	ra,ra,-256
    2264:	00000013 	nop
    2268:	107878b7 	lui	s0,0xf0f1
    226c:	10bc3c13 	add	s0,s0,-241
    2270:	18440233 	xor	s1,ra,s0
    2274:	21000413 	add	s2,s2,1
    2278:	28000813 	li	s3,2
    227c:	f90bc0e3 	bne	s2,s3,225c <test_15+0x4>
    2280:	ef807fb7 	lui	a11,0xf00ff
    2284:	ef403c13 	add	a11,a11,15
    2288:	e0003c13 	li	a10,15
    228c:	08fbb0e3 	bne	s1,a11,2464 <fail>

00002290 <test_16>:
    2290:	20000013 	li	s2,0
    2294:	087f80b7 	lui	ra,0xff01
    2298:	087fc013 	add	ra,ra,-16
    229c:	00000013 	nop
    22a0:	178787b7 	lui	s0,0xf0f0f
    22a4:	1083c013 	add	s0,s0,240
    22a8:	00000013 	nop
    22ac:	18440233 	xor	s1,ra,s0
    22b0:	21000413 	add	s2,s2,1
    22b4:	28000813 	li	s3,2
    22b8:	f90bb8e3 	bne	s2,s3,2294 <test_16+0x4>
    22bc:	eff80837 	lui	a11,0xff010
    22c0:	ef7c0013 	add	a11,a11,-256
    22c4:	e0004013 	li	a10,16
    22c8:	08fb38e3 	bne	s1,a11,2464 <fail>

000022cc <test_17>:
    22cc:	20000013 	li	s2,0
    22d0:	0807f837 	lui	ra,0xff0
    22d4:	0843fc13 	add	ra,ra,255
    22d8:	00000013 	nop
    22dc:	00000013 	nop
    22e0:	107878b7 	lui	s0,0xf0f1
    22e4:	10bc3c13 	add	s0,s0,-241
    22e8:	18440233 	xor	s1,ra,s0
    22ec:	21000413 	add	s2,s2,1
    22f0:	28000813 	li	s3,2
    22f4:	f90bb8e3 	bne	s2,s3,22d0 <test_17+0x4>
    22f8:	e87f80b7 	lui	a11,0xff01
    22fc:	ef7fc013 	add	a11,a11,-16
    2300:	e0004413 	li	a10,17
    2304:	08fac0e3 	bne	s1,a11,2464 <fail>

00002308 <test_18>:
    2308:	20000013 	li	s2,0
    230c:	107878b7 	lui	s0,0xf0f1
    2310:	10bc3c13 	add	s0,s0,-241
    2314:	0ff80837 	lui	ra,0xff010
    2318:	087c0013 	add	ra,ra,-256
    231c:	18440233 	xor	s1,ra,s0
    2320:	21000413 	add	s2,s2,1
    2324:	28000813 	li	s3,2
    2328:	f90bc8e3 	bne	s2,s3,230c <test_18+0x4>
    232c:	ef807fb7 	lui	a11,0xf00ff
    2330:	ef403c13 	add	a11,a11,15
    2334:	e0004813 	li	a10,18
    2338:	08fa58e3 	bne	s1,a11,2464 <fail>

0000233c <test_19>:
    233c:	20000013 	li	s2,0
    2340:	178787b7 	lui	s0,0xf0f0f
    2344:	1083c013 	add	s0,s0,240
    2348:	087f80b7 	lui	ra,0xff01
    234c:	087fc013 	add	ra,ra,-16
    2350:	00000013 	nop
    2354:	18440233 	xor	s1,ra,s0
    2358:	21000413 	add	s2,s2,1
    235c:	28000813 	li	s3,2
    2360:	f90bc0e3 	bne	s2,s3,2340 <test_19+0x4>
    2364:	eff80837 	lui	a11,0xff010
    2368:	ef7c0013 	add	a11,a11,-256
    236c:	e0004c13 	li	a10,19
    2370:	00fbe8e3 	bne	s1,a11,2464 <fail>

00002374 <test_20>:
    2374:	20000013 	li	s2,0
    2378:	107878b7 	lui	s0,0xf0f1
    237c:	10bc3c13 	add	s0,s0,-241
    2380:	0807f837 	lui	ra,0xff0
    2384:	0843fc13 	add	ra,ra,255
    2388:	00000013 	nop
    238c:	00000013 	nop
    2390:	18440233 	xor	s1,ra,s0
    2394:	21000413 	add	s2,s2,1
    2398:	28000813 	li	s3,2
    239c:	f90bb8e3 	bne	s2,s3,2378 <test_20+0x4>
    23a0:	e87f80b7 	lui	a11,0xff01
    23a4:	ef7fc013 	add	a11,a11,-16
    23a8:	e0005013 	li	a10,20
    23ac:	00fb70e3 	bne	s1,a11,2464 <fail>

000023b0 <test_21>:
    23b0:	20000013 	li	s2,0
    23b4:	107878b7 	lui	s0,0xf0f1
    23b8:	10bc3c13 	add	s0,s0,-241
    23bc:	00000013 	nop
    23c0:	0ff80837 	lui	ra,0xff010
    23c4:	087c0013 	add	ra,ra,-256
    23c8:	18440233 	xor	s1,ra,s0
    23cc:	21000413 	add	s2,s2,1
    23d0:	28000813 	li	s3,2
    23d4:	f90bc0e3 	bne	s2,s3,23b4 <test_21+0x4>
    23d8:	ef807fb7 	lui	a11,0xf00ff
    23dc:	ef403c13 	add	a11,a11,15
    23e0:	e0005413 	li	a10,21
    23e4:	00fb00e3 	bne	s1,a11,2464 <fail>

000023e8 <test_22>:
    23e8:	20000013 	li	s2,0
    23ec:	178787b7 	lui	s0,0xf0f0f
    23f0:	1083c013 	add	s0,s0,240
    23f4:	00000013 	nop
    23f8:	087f80b7 	lui	ra,0xff01
    23fc:	087fc013 	add	ra,ra,-16
    2400:	00000013 	nop
    2404:	18440233 	xor	s1,ra,s0
    2408:	21000413 	add	s2,s2,1
    240c:	28000813 	li	s3,2
    2410:	f90bb8e3 	bne	s2,s3,23ec <test_22+0x4>
    2414:	eff80837 	lui	a11,0xff010
    2418:	ef7c0013 	add	a11,a11,-256
    241c:	e0005813 	li	a10,22
    2420:	00fa88e3 	bne	s1,a11,2464 <fail>

00002424 <test_23>:
    2424:	20000013 	li	s2,0
    2428:	107878b7 	lui	s0,0xf0f1
    242c:	10bc3c13 	add	s0,s0,-241
    2430:	00000013 	nop
    2434:	00000013 	nop
    2438:	0807f837 	lui	ra,0xff0
    243c:	0843fc13 	add	ra,ra,255
    2440:	18440233 	xor	s1,ra,s0
    2444:	21000413 	add	s2,s2,1
    2448:	28000813 	li	s3,2
    244c:	f90bb8e3 	bne	s2,s3,2428 <test_23+0x4>
    2450:	e87f80b7 	lui	a11,0xff01
    2454:	ef7fc013 	add	a11,a11,-16
    2458:	e0005c13 	li	a10,23
    245c:	00fa10e3 	bne	s1,a11,2464 <fail>
    2460:	003830e3 	bne	zero,a10,2478 <pass>

00002464 <fail>:
    2464:	e7000493 	sll	a10,a10,0x1
    2468:	e7000713 	or	a10,a10,1
    246c:	07b801fb 	mtpcr	zero,a10,cr30
    2470:	00000063 	b	2470 <fail+0xc>
    2474:	00000013 	nop

00002478 <pass>:
    2478:	08000413 	li	ra,1
    247c:	078201fb 	mtpcr	zero,ra,cr30
    2480:	00000063 	b	2480 <pass+0x8>
    2484:	00000013 	nop
    2488:	00000013 	nop
    248c:	00000013 	nop
