
riscv-v2_srl:     file format elf32-littleriscv


Disassembly of section .text:

00002000 <_start>:
    2000:	0800017b 	mfpcr	ra,cr0
    2004:	087dff93 	and	ra,ra,-129
    2008:	000201fb 	mtpcr	zero,ra,cr0

0000200c <test_2>:
    200c:	0c000037 	lui	ra,0x80000
    2010:	10000013 	li	s0,0
    2014:	184402b3 	srl	s1,ra,s0
    2018:	ec000037 	lui	a11,0x80000
    201c:	e0000813 	li	a10,2
    2020:	28fa38e3 	bne	s1,a11,253c <fail>

00002024 <test_3>:
    2024:	0c000037 	lui	ra,0x80000
    2028:	10000413 	li	s0,1
    202c:	184402b3 	srl	s1,ra,s0
    2030:	ea000037 	lui	a11,0x40000
    2034:	e0000c13 	li	a10,3
    2038:	28fa08e3 	bne	s1,a11,253c <fail>

0000203c <test_4>:
    203c:	0c000037 	lui	ra,0x80000
    2040:	10001c13 	li	s0,7
    2044:	184402b3 	srl	s1,ra,s0
    2048:	e8080037 	lui	a11,0x1000
    204c:	e0001013 	li	a10,4
    2050:	20fbd8e3 	bne	s1,a11,253c <fail>

00002054 <test_5>:
    2054:	0c000037 	lui	ra,0x80000
    2058:	10003813 	li	s0,14
    205c:	184402b3 	srl	s1,ra,s0
    2060:	e8001037 	lui	a11,0x20
    2064:	e0001413 	li	a10,5
    2068:	20fba8e3 	bne	s1,a11,253c <fail>

0000206c <test_6>:
    206c:	0c000037 	lui	ra,0x80000
    2070:	08400413 	add	ra,ra,1
    2074:	10007c13 	li	s0,31
    2078:	184402b3 	srl	s1,ra,s0
    207c:	e8000413 	li	a11,1
    2080:	e0001813 	li	a10,6
    2084:	20fb70e3 	bne	s1,a11,253c <fail>

00002088 <test_7>:
    2088:	083ffc13 	li	ra,-1
    208c:	10000013 	li	s0,0
    2090:	184402b3 	srl	s1,ra,s0
    2094:	e83ffc13 	li	a11,-1
    2098:	e0001c13 	li	a10,7
    209c:	20fb40e3 	bne	s1,a11,253c <fail>

000020a0 <test_8>:
    20a0:	083ffc13 	li	ra,-1
    20a4:	10000413 	li	s0,1
    20a8:	184402b3 	srl	s1,ra,s0
    20ac:	ec000037 	lui	a11,0x80000
    20b0:	ef7ffc13 	add	a11,a11,-1
    20b4:	e0002013 	li	a10,8
    20b8:	20fb08e3 	bne	s1,a11,253c <fail>

000020bc <test_9>:
    20bc:	083ffc13 	li	ra,-1
    20c0:	10001c13 	li	s0,7
    20c4:	184402b3 	srl	s1,ra,s0
    20c8:	e8100037 	lui	a11,0x2000
    20cc:	ef7ffc13 	add	a11,a11,-1
    20d0:	e0002413 	li	a10,9
    20d4:	20fad0e3 	bne	s1,a11,253c <fail>

000020d8 <test_10>:
    20d8:	083ffc13 	li	ra,-1
    20dc:	10003813 	li	s0,14
    20e0:	184402b3 	srl	s1,ra,s0
    20e4:	e8002037 	lui	a11,0x40
    20e8:	ef7ffc13 	add	a11,a11,-1
    20ec:	e0002813 	li	a10,10
    20f0:	20fa98e3 	bne	s1,a11,253c <fail>

000020f4 <test_11>:
    20f4:	083ffc13 	li	ra,-1
    20f8:	10007c13 	li	s0,31
    20fc:	184402b3 	srl	s1,ra,s0
    2100:	e8000413 	li	a11,1
    2104:	e0002c13 	li	a10,11
    2108:	20fa68e3 	bne	s1,a11,253c <fail>

0000210c <test_12>:
    210c:	09090937 	lui	ra,0x21212
    2110:	08448413 	add	ra,ra,289
    2114:	10000013 	li	s0,0
    2118:	184402b3 	srl	s1,ra,s0
    211c:	e9090937 	lui	a11,0x21212
    2120:	ef448413 	add	a11,a11,289
    2124:	e0003013 	li	a10,12
    2128:	20fa28e3 	bne	s1,a11,253c <fail>

0000212c <test_13>:
    212c:	09090937 	lui	ra,0x21212
    2130:	08448413 	add	ra,ra,289
    2134:	10000413 	li	s0,1
    2138:	184402b3 	srl	s1,ra,s0
    213c:	e88484b7 	lui	a11,0x10909
    2140:	ef424013 	add	a11,a11,144
    2144:	e0003413 	li	a10,13
    2148:	18fbe8e3 	bne	s1,a11,253c <fail>

0000214c <test_14>:
    214c:	09090937 	lui	ra,0x21212
    2150:	08448413 	add	ra,ra,289
    2154:	10001c13 	li	s0,7
    2158:	184402b3 	srl	s1,ra,s0
    215c:	e8021237 	lui	a11,0x424
    2160:	ef490813 	add	a11,a11,578
    2164:	e0003813 	li	a10,14
    2168:	18fba8e3 	bne	s1,a11,253c <fail>

0000216c <test_15>:
    216c:	09090937 	lui	ra,0x21212
    2170:	08448413 	add	ra,ra,289
    2174:	10003813 	li	s0,14
    2178:	184402b3 	srl	s1,ra,s0
    217c:	e8000437 	lui	a11,0x8
    2180:	ef521013 	add	a11,a11,1156
    2184:	e0003c13 	li	a10,15
    2188:	18fb68e3 	bne	s1,a11,253c <fail>

0000218c <test_16>:
    218c:	09090937 	lui	ra,0x21212
    2190:	08448413 	add	ra,ra,289
    2194:	10007c13 	li	s0,31
    2198:	184402b3 	srl	s1,ra,s0
    219c:	e8000013 	li	a11,0
    21a0:	e0004013 	li	a10,16
    21a4:	18fb30e3 	bne	s1,a11,253c <fail>

000021a8 <test_17>:
    21a8:	09090937 	lui	ra,0x21212
    21ac:	08448413 	add	ra,ra,289
    21b0:	103f8013 	li	s0,-32
    21b4:	184402b3 	srl	s1,ra,s0
    21b8:	e9090937 	lui	a11,0x21212
    21bc:	ef448413 	add	a11,a11,289
    21c0:	e0004413 	li	a10,17
    21c4:	18faf0e3 	bne	s1,a11,253c <fail>

000021c8 <test_18>:
    21c8:	09090937 	lui	ra,0x21212
    21cc:	08448413 	add	ra,ra,289
    21d0:	103f8413 	li	s0,-31
    21d4:	184402b3 	srl	s1,ra,s0
    21d8:	e88484b7 	lui	a11,0x10909
    21dc:	ef424013 	add	a11,a11,144
    21e0:	e0004813 	li	a10,18
    21e4:	18fab0e3 	bne	s1,a11,253c <fail>

000021e8 <test_19>:
    21e8:	09090937 	lui	ra,0x21212
    21ec:	08448413 	add	ra,ra,289
    21f0:	103f9c13 	li	s0,-25
    21f4:	184402b3 	srl	s1,ra,s0
    21f8:	e8021237 	lui	a11,0x424
    21fc:	ef490813 	add	a11,a11,578
    2200:	e0004c13 	li	a10,19
    2204:	18fa70e3 	bne	s1,a11,253c <fail>

00002208 <test_20>:
    2208:	09090937 	lui	ra,0x21212
    220c:	08448413 	add	ra,ra,289
    2210:	103fb813 	li	s0,-18
    2214:	184402b3 	srl	s1,ra,s0
    2218:	e8000437 	lui	a11,0x8
    221c:	ef521013 	add	a11,a11,1156
    2220:	e0005013 	li	a10,20
    2224:	18fa30e3 	bne	s1,a11,253c <fail>

00002228 <test_21>:
    2228:	09090937 	lui	ra,0x21212
    222c:	08448413 	add	ra,ra,289
    2230:	103ffc13 	li	s0,-1
    2234:	184402b3 	srl	s1,ra,s0
    2238:	e8000013 	li	a11,0
    223c:	e0005413 	li	a10,21
    2240:	10fbf8e3 	bne	s1,a11,253c <fail>

00002244 <test_22>:
    2244:	0c000037 	lui	ra,0x80000
    2248:	10001c13 	li	s0,7
    224c:	084402b3 	srl	ra,ra,s0
    2250:	e8080037 	lui	a11,0x1000
    2254:	e0005813 	li	a10,22
    2258:	107bc8e3 	bne	ra,a11,253c <fail>

0000225c <test_23>:
    225c:	0c000037 	lui	ra,0x80000
    2260:	10003813 	li	s0,14
    2264:	104402b3 	srl	s0,ra,s0
    2268:	e8001037 	lui	a11,0x20
    226c:	e0005c13 	li	a10,23
    2270:	10bb98e3 	bne	s0,a11,253c <fail>

00002274 <test_24>:
    2274:	08001c13 	li	ra,7
    2278:	084202b3 	srl	ra,ra,ra
    227c:	e8000013 	li	a11,0
    2280:	e0006013 	li	a10,24
    2284:	107b70e3 	bne	ra,a11,253c <fail>

00002288 <test_25>:
    2288:	20000013 	li	s2,0
    228c:	0c000037 	lui	ra,0x80000
    2290:	10001c13 	li	s0,7
    2294:	184402b3 	srl	s1,ra,s0
    2298:	30c00013 	move	s4,s1
    229c:	21000413 	add	s2,s2,1
    22a0:	28000813 	li	s3,2
    22a4:	f90bd0e3 	bne	s2,s3,228c <test_25+0x4>
    22a8:	e8080037 	lui	a11,0x1000
    22ac:	e0006413 	li	a10,25
    22b0:	11bb18e3 	bne	s4,a11,253c <fail>

000022b4 <test_26>:
    22b4:	20000013 	li	s2,0
    22b8:	0c000037 	lui	ra,0x80000
    22bc:	10003813 	li	s0,14
    22c0:	184402b3 	srl	s1,ra,s0
    22c4:	00000013 	nop
    22c8:	30c00013 	move	s4,s1
    22cc:	21000413 	add	s2,s2,1
    22d0:	28000813 	li	s3,2
    22d4:	f90bc8e3 	bne	s2,s3,22b8 <test_26+0x4>
    22d8:	e8001037 	lui	a11,0x20
    22dc:	e0006813 	li	a10,26
    22e0:	11bab8e3 	bne	s4,a11,253c <fail>

000022e4 <test_27>:
    22e4:	20000013 	li	s2,0
    22e8:	0c000037 	lui	ra,0x80000
    22ec:	10007c13 	li	s0,31
    22f0:	184402b3 	srl	s1,ra,s0
    22f4:	00000013 	nop
    22f8:	00000013 	nop
    22fc:	30c00013 	move	s4,s1
    2300:	21000413 	add	s2,s2,1
    2304:	28000813 	li	s3,2
    2308:	f90bc0e3 	bne	s2,s3,22e8 <test_27+0x4>
    230c:	e8000413 	li	a11,1
    2310:	e0006c13 	li	a10,27
    2314:	11ba50e3 	bne	s4,a11,253c <fail>

00002318 <test_28>:
    2318:	20000013 	li	s2,0
    231c:	0c000037 	lui	ra,0x80000
    2320:	10001c13 	li	s0,7
    2324:	184402b3 	srl	s1,ra,s0
    2328:	21000413 	add	s2,s2,1
    232c:	28000813 	li	s3,2
    2330:	f90bd8e3 	bne	s2,s3,231c <test_28+0x4>
    2334:	e8080037 	lui	a11,0x1000
    2338:	e0007013 	li	a10,28
    233c:	10fa00e3 	bne	s1,a11,253c <fail>

00002340 <test_29>:
    2340:	20000013 	li	s2,0
    2344:	0c000037 	lui	ra,0x80000
    2348:	10003813 	li	s0,14
    234c:	00000013 	nop
    2350:	184402b3 	srl	s1,ra,s0
    2354:	21000413 	add	s2,s2,1
    2358:	28000813 	li	s3,2
    235c:	f90bd0e3 	bne	s2,s3,2344 <test_29+0x4>
    2360:	e8001037 	lui	a11,0x20
    2364:	e0007413 	li	a10,29
    2368:	08fba8e3 	bne	s1,a11,253c <fail>

0000236c <test_30>:
    236c:	20000013 	li	s2,0
    2370:	0c000037 	lui	ra,0x80000
    2374:	10007c13 	li	s0,31
    2378:	00000013 	nop
    237c:	00000013 	nop
    2380:	184402b3 	srl	s1,ra,s0
    2384:	21000413 	add	s2,s2,1
    2388:	28000813 	li	s3,2
    238c:	f90bc8e3 	bne	s2,s3,2370 <test_30+0x4>
    2390:	e8000413 	li	a11,1
    2394:	e0007813 	li	a10,30
    2398:	08fb48e3 	bne	s1,a11,253c <fail>

0000239c <test_31>:
    239c:	20000013 	li	s2,0
    23a0:	0c000037 	lui	ra,0x80000
    23a4:	00000013 	nop
    23a8:	10001c13 	li	s0,7
    23ac:	184402b3 	srl	s1,ra,s0
    23b0:	21000413 	add	s2,s2,1
    23b4:	28000813 	li	s3,2
    23b8:	f90bd0e3 	bne	s2,s3,23a0 <test_31+0x4>
    23bc:	e8080037 	lui	a11,0x1000
    23c0:	e0007c13 	li	a10,31
    23c4:	08faf0e3 	bne	s1,a11,253c <fail>

000023c8 <test_32>:
    23c8:	20000013 	li	s2,0
    23cc:	0c000037 	lui	ra,0x80000
    23d0:	00000013 	nop
    23d4:	10003813 	li	s0,14
    23d8:	00000013 	nop
    23dc:	184402b3 	srl	s1,ra,s0
    23e0:	21000413 	add	s2,s2,1
    23e4:	28000813 	li	s3,2
    23e8:	f90bc8e3 	bne	s2,s3,23cc <test_32+0x4>
    23ec:	e8001037 	lui	a11,0x20
    23f0:	e0008013 	li	a10,32
    23f4:	08fa90e3 	bne	s1,a11,253c <fail>

000023f8 <test_33>:
    23f8:	20000013 	li	s2,0
    23fc:	0c000037 	lui	ra,0x80000
    2400:	00000013 	nop
    2404:	00000013 	nop
    2408:	10007c13 	li	s0,31
    240c:	184402b3 	srl	s1,ra,s0
    2410:	21000413 	add	s2,s2,1
    2414:	28000813 	li	s3,2
    2418:	f90bc8e3 	bne	s2,s3,23fc <test_33+0x4>
    241c:	e8000413 	li	a11,1
    2420:	e0008413 	li	a10,33
    2424:	08fa30e3 	bne	s1,a11,253c <fail>

00002428 <test_34>:
    2428:	20000013 	li	s2,0
    242c:	10001c13 	li	s0,7
    2430:	0c000037 	lui	ra,0x80000
    2434:	184402b3 	srl	s1,ra,s0
    2438:	21000413 	add	s2,s2,1
    243c:	28000813 	li	s3,2
    2440:	f90bd8e3 	bne	s2,s3,242c <test_34+0x4>
    2444:	e8080037 	lui	a11,0x1000
    2448:	e0008813 	li	a10,34
    244c:	00fbe0e3 	bne	s1,a11,253c <fail>

00002450 <test_35>:
    2450:	20000013 	li	s2,0
    2454:	10003813 	li	s0,14
    2458:	0c000037 	lui	ra,0x80000
    245c:	00000013 	nop
    2460:	184402b3 	srl	s1,ra,s0
    2464:	21000413 	add	s2,s2,1
    2468:	28000813 	li	s3,2
    246c:	f90bd0e3 	bne	s2,s3,2454 <test_35+0x4>
    2470:	e8001037 	lui	a11,0x20
    2474:	e0008c13 	li	a10,35
    2478:	00fb88e3 	bne	s1,a11,253c <fail>

0000247c <test_36>:
    247c:	20000013 	li	s2,0
    2480:	10007c13 	li	s0,31
    2484:	0c000037 	lui	ra,0x80000
    2488:	00000013 	nop
    248c:	00000013 	nop
    2490:	184402b3 	srl	s1,ra,s0
    2494:	21000413 	add	s2,s2,1
    2498:	28000813 	li	s3,2
    249c:	f90bc8e3 	bne	s2,s3,2480 <test_36+0x4>
    24a0:	e8000413 	li	a11,1
    24a4:	e0009013 	li	a10,36
    24a8:	00fb28e3 	bne	s1,a11,253c <fail>

000024ac <test_37>:
    24ac:	20000013 	li	s2,0
    24b0:	10001c13 	li	s0,7
    24b4:	00000013 	nop
    24b8:	0c000037 	lui	ra,0x80000
    24bc:	184402b3 	srl	s1,ra,s0
    24c0:	21000413 	add	s2,s2,1
    24c4:	28000813 	li	s3,2
    24c8:	f90bd0e3 	bne	s2,s3,24b0 <test_37+0x4>
    24cc:	e8080037 	lui	a11,0x1000
    24d0:	e0009413 	li	a10,37
    24d4:	00fad0e3 	bne	s1,a11,253c <fail>

000024d8 <test_38>:
    24d8:	20000013 	li	s2,0
    24dc:	10003813 	li	s0,14
    24e0:	00000013 	nop
    24e4:	0c000037 	lui	ra,0x80000
    24e8:	00000013 	nop
    24ec:	184402b3 	srl	s1,ra,s0
    24f0:	21000413 	add	s2,s2,1
    24f4:	28000813 	li	s3,2
    24f8:	f90bc8e3 	bne	s2,s3,24dc <test_38+0x4>
    24fc:	e8001037 	lui	a11,0x20
    2500:	e0009813 	li	a10,38
    2504:	00fa70e3 	bne	s1,a11,253c <fail>

00002508 <test_39>:
    2508:	20000013 	li	s2,0
    250c:	10007c13 	li	s0,31
    2510:	00000013 	nop
    2514:	00000013 	nop
    2518:	0c000037 	lui	ra,0x80000
    251c:	184402b3 	srl	s1,ra,s0
    2520:	21000413 	add	s2,s2,1
    2524:	28000813 	li	s3,2
    2528:	f90bc8e3 	bne	s2,s3,250c <test_39+0x4>
    252c:	e8000413 	li	a11,1
    2530:	e0009c13 	li	a10,39
    2534:	00fa10e3 	bne	s1,a11,253c <fail>
    2538:	003830e3 	bne	zero,a10,2550 <pass>

0000253c <fail>:
    253c:	e7000493 	sll	a10,a10,0x1
    2540:	e7000713 	or	a10,a10,1
    2544:	07b801fb 	mtpcr	zero,a10,cr30
    2548:	00000063 	b	2548 <fail+0xc>
    254c:	00000013 	nop

00002550 <pass>:
    2550:	08000413 	li	ra,1
    2554:	078201fb 	mtpcr	zero,ra,cr30
    2558:	00000063 	b	2558 <pass+0x8>
    255c:	00000013 	nop
