
riscv-v2_sra:     file format elf32-littleriscv


Disassembly of section .text:

00002000 <_start>:
    2000:	0800017b 	mfpcr	ra,cr0
    2004:	087dff93 	and	ra,ra,-129
    2008:	000201fb 	mtpcr	zero,ra,cr0

0000200c <test_2>:
    200c:	0c000037 	lui	ra,0x80000
    2010:	10000013 	li	s0,0
    2014:	184502b3 	sra	s1,ra,s0
    2018:	ec000037 	lui	a11,0x80000
    201c:	e0000813 	li	a10,2
    2020:	28fa68e3 	bne	s1,a11,2554 <fail>

00002024 <test_3>:
    2024:	0c000037 	lui	ra,0x80000
    2028:	10000413 	li	s0,1
    202c:	184502b3 	sra	s1,ra,s0
    2030:	ee000037 	lui	a11,0xc0000
    2034:	e0000c13 	li	a10,3
    2038:	28fa38e3 	bne	s1,a11,2554 <fail>

0000203c <test_4>:
    203c:	0c000037 	lui	ra,0x80000
    2040:	10001c13 	li	s0,7
    2044:	184502b3 	sra	s1,ra,s0
    2048:	eff80037 	lui	a11,0xff000
    204c:	e0001013 	li	a10,4
    2050:	28fa08e3 	bne	s1,a11,2554 <fail>

00002054 <test_5>:
    2054:	0c000037 	lui	ra,0x80000
    2058:	10003813 	li	s0,14
    205c:	184502b3 	sra	s1,ra,s0
    2060:	effff037 	lui	a11,0xfffe0
    2064:	e0001413 	li	a10,5
    2068:	20fbd8e3 	bne	s1,a11,2554 <fail>

0000206c <test_6>:
    206c:	0c000037 	lui	ra,0x80000
    2070:	08400413 	add	ra,ra,1
    2074:	10007c13 	li	s0,31
    2078:	184502b3 	sra	s1,ra,s0
    207c:	e83ffc13 	li	a11,-1
    2080:	e0001813 	li	a10,6
    2084:	20fba0e3 	bne	s1,a11,2554 <fail>

00002088 <test_7>:
    2088:	0c000037 	lui	ra,0x80000
    208c:	087ffc13 	add	ra,ra,-1
    2090:	10000013 	li	s0,0
    2094:	184502b3 	sra	s1,ra,s0
    2098:	ec000037 	lui	a11,0x80000
    209c:	ef7ffc13 	add	a11,a11,-1
    20a0:	e0001c13 	li	a10,7
    20a4:	20fb60e3 	bne	s1,a11,2554 <fail>

000020a8 <test_8>:
    20a8:	0c000037 	lui	ra,0x80000
    20ac:	087ffc13 	add	ra,ra,-1
    20b0:	10000413 	li	s0,1
    20b4:	184502b3 	sra	s1,ra,s0
    20b8:	ea000037 	lui	a11,0x40000
    20bc:	ef7ffc13 	add	a11,a11,-1
    20c0:	e0002013 	li	a10,8
    20c4:	20fb20e3 	bne	s1,a11,2554 <fail>

000020c8 <test_9>:
    20c8:	0c000037 	lui	ra,0x80000
    20cc:	087ffc13 	add	ra,ra,-1
    20d0:	10001c13 	li	s0,7
    20d4:	184502b3 	sra	s1,ra,s0
    20d8:	e8080037 	lui	a11,0x1000
    20dc:	ef7ffc13 	add	a11,a11,-1
    20e0:	e0002413 	li	a10,9
    20e4:	20fae0e3 	bne	s1,a11,2554 <fail>

000020e8 <test_10>:
    20e8:	0c000037 	lui	ra,0x80000
    20ec:	087ffc13 	add	ra,ra,-1
    20f0:	10003813 	li	s0,14
    20f4:	184502b3 	sra	s1,ra,s0
    20f8:	e8001037 	lui	a11,0x20
    20fc:	ef7ffc13 	add	a11,a11,-1
    2100:	e0002813 	li	a10,10
    2104:	20faa0e3 	bne	s1,a11,2554 <fail>

00002108 <test_11>:
    2108:	0c000037 	lui	ra,0x80000
    210c:	087ffc13 	add	ra,ra,-1
    2110:	10007c13 	li	s0,31
    2114:	184502b3 	sra	s1,ra,s0
    2118:	e8000013 	li	a11,0
    211c:	e0002c13 	li	a10,11
    2120:	20fa68e3 	bne	s1,a11,2554 <fail>

00002124 <test_12>:
    2124:	0c0c0c37 	lui	ra,0x81818
    2128:	08460413 	add	ra,ra,385
    212c:	10000013 	li	s0,0
    2130:	184502b3 	sra	s1,ra,s0
    2134:	ec0c0c37 	lui	a11,0x81818
    2138:	ef460413 	add	a11,a11,385
    213c:	e0003013 	li	a10,12
    2140:	20fa28e3 	bne	s1,a11,2554 <fail>

00002144 <test_13>:
    2144:	0c0c0c37 	lui	ra,0x81818
    2148:	08460413 	add	ra,ra,385
    214c:	10000413 	li	s0,1
    2150:	184502b3 	sra	s1,ra,s0
    2154:	ee060637 	lui	a11,0xc0c0c
    2158:	ef430013 	add	a11,a11,192
    215c:	e0003413 	li	a10,13
    2160:	18fbe8e3 	bne	s1,a11,2554 <fail>

00002164 <test_14>:
    2164:	0c0c0c37 	lui	ra,0x81818
    2168:	08460413 	add	ra,ra,385
    216c:	10001c13 	li	s0,7
    2170:	184502b3 	sra	s1,ra,s0
    2174:	eff81837 	lui	a11,0xff030
    2178:	ef4c0c13 	add	a11,a11,771
    217c:	e0003813 	li	a10,14
    2180:	18fba8e3 	bne	s1,a11,2554 <fail>

00002184 <test_15>:
    2184:	0c0c0c37 	lui	ra,0x81818
    2188:	08460413 	add	ra,ra,385
    218c:	10003813 	li	s0,14
    2190:	184502b3 	sra	s1,ra,s0
    2194:	effff037 	lui	a11,0xfffe0
    2198:	ef581813 	add	a11,a11,1542
    219c:	e0003c13 	li	a10,15
    21a0:	18fb68e3 	bne	s1,a11,2554 <fail>

000021a4 <test_16>:
    21a4:	0c0c0c37 	lui	ra,0x81818
    21a8:	08460413 	add	ra,ra,385
    21ac:	10007c13 	li	s0,31
    21b0:	184502b3 	sra	s1,ra,s0
    21b4:	e83ffc13 	li	a11,-1
    21b8:	e0004013 	li	a10,16
    21bc:	18fb30e3 	bne	s1,a11,2554 <fail>

000021c0 <test_17>:
    21c0:	0c0c0c37 	lui	ra,0x81818
    21c4:	08460413 	add	ra,ra,385
    21c8:	103f8013 	li	s0,-32
    21cc:	184502b3 	sra	s1,ra,s0
    21d0:	ec0c0c37 	lui	a11,0x81818
    21d4:	ef460413 	add	a11,a11,385
    21d8:	e0004413 	li	a10,17
    21dc:	18faf0e3 	bne	s1,a11,2554 <fail>

000021e0 <test_18>:
    21e0:	0c0c0c37 	lui	ra,0x81818
    21e4:	08460413 	add	ra,ra,385
    21e8:	103f8413 	li	s0,-31
    21ec:	184502b3 	sra	s1,ra,s0
    21f0:	ee060637 	lui	a11,0xc0c0c
    21f4:	ef430013 	add	a11,a11,192
    21f8:	e0004813 	li	a10,18
    21fc:	18fab0e3 	bne	s1,a11,2554 <fail>

00002200 <test_19>:
    2200:	0c0c0c37 	lui	ra,0x81818
    2204:	08460413 	add	ra,ra,385
    2208:	103f9c13 	li	s0,-25
    220c:	184502b3 	sra	s1,ra,s0
    2210:	eff81837 	lui	a11,0xff030
    2214:	ef4c0c13 	add	a11,a11,771
    2218:	e0004c13 	li	a10,19
    221c:	18fa70e3 	bne	s1,a11,2554 <fail>

00002220 <test_20>:
    2220:	0c0c0c37 	lui	ra,0x81818
    2224:	08460413 	add	ra,ra,385
    2228:	103fb813 	li	s0,-18
    222c:	184502b3 	sra	s1,ra,s0
    2230:	effff037 	lui	a11,0xfffe0
    2234:	ef581813 	add	a11,a11,1542
    2238:	e0005013 	li	a10,20
    223c:	18fa30e3 	bne	s1,a11,2554 <fail>

00002240 <test_21>:
    2240:	0c0c0c37 	lui	ra,0x81818
    2244:	08460413 	add	ra,ra,385
    2248:	103ffc13 	li	s0,-1
    224c:	184502b3 	sra	s1,ra,s0
    2250:	e83ffc13 	li	a11,-1
    2254:	e0005413 	li	a10,21
    2258:	10fbf8e3 	bne	s1,a11,2554 <fail>

0000225c <test_22>:
    225c:	0c000037 	lui	ra,0x80000
    2260:	10001c13 	li	s0,7
    2264:	084502b3 	sra	ra,ra,s0
    2268:	eff80037 	lui	a11,0xff000
    226c:	e0005813 	li	a10,22
    2270:	107bc8e3 	bne	ra,a11,2554 <fail>

00002274 <test_23>:
    2274:	0c000037 	lui	ra,0x80000
    2278:	10003813 	li	s0,14
    227c:	104502b3 	sra	s0,ra,s0
    2280:	effff037 	lui	a11,0xfffe0
    2284:	e0005c13 	li	a10,23
    2288:	10bb98e3 	bne	s0,a11,2554 <fail>

0000228c <test_24>:
    228c:	08001c13 	li	ra,7
    2290:	084302b3 	sra	ra,ra,ra
    2294:	e8000013 	li	a11,0
    2298:	e0006013 	li	a10,24
    229c:	107b70e3 	bne	ra,a11,2554 <fail>

000022a0 <test_25>:
    22a0:	20000013 	li	s2,0
    22a4:	0c000037 	lui	ra,0x80000
    22a8:	10001c13 	li	s0,7
    22ac:	184502b3 	sra	s1,ra,s0
    22b0:	30c00013 	move	s4,s1
    22b4:	21000413 	add	s2,s2,1
    22b8:	28000813 	li	s3,2
    22bc:	f90bd0e3 	bne	s2,s3,22a4 <test_25+0x4>
    22c0:	eff80037 	lui	a11,0xff000
    22c4:	e0006413 	li	a10,25
    22c8:	11bb18e3 	bne	s4,a11,2554 <fail>

000022cc <test_26>:
    22cc:	20000013 	li	s2,0
    22d0:	0c000037 	lui	ra,0x80000
    22d4:	10003813 	li	s0,14
    22d8:	184502b3 	sra	s1,ra,s0
    22dc:	00000013 	nop
    22e0:	30c00013 	move	s4,s1
    22e4:	21000413 	add	s2,s2,1
    22e8:	28000813 	li	s3,2
    22ec:	f90bc8e3 	bne	s2,s3,22d0 <test_26+0x4>
    22f0:	effff037 	lui	a11,0xfffe0
    22f4:	e0006813 	li	a10,26
    22f8:	11bab8e3 	bne	s4,a11,2554 <fail>

000022fc <test_27>:
    22fc:	20000013 	li	s2,0
    2300:	0c000037 	lui	ra,0x80000
    2304:	10007c13 	li	s0,31
    2308:	184502b3 	sra	s1,ra,s0
    230c:	00000013 	nop
    2310:	00000013 	nop
    2314:	30c00013 	move	s4,s1
    2318:	21000413 	add	s2,s2,1
    231c:	28000813 	li	s3,2
    2320:	f90bc0e3 	bne	s2,s3,2300 <test_27+0x4>
    2324:	e83ffc13 	li	a11,-1
    2328:	e0006c13 	li	a10,27
    232c:	11ba50e3 	bne	s4,a11,2554 <fail>

00002330 <test_28>:
    2330:	20000013 	li	s2,0
    2334:	0c000037 	lui	ra,0x80000
    2338:	10001c13 	li	s0,7
    233c:	184502b3 	sra	s1,ra,s0
    2340:	21000413 	add	s2,s2,1
    2344:	28000813 	li	s3,2
    2348:	f90bd8e3 	bne	s2,s3,2334 <test_28+0x4>
    234c:	eff80037 	lui	a11,0xff000
    2350:	e0007013 	li	a10,28
    2354:	10fa00e3 	bne	s1,a11,2554 <fail>

00002358 <test_29>:
    2358:	20000013 	li	s2,0
    235c:	0c000037 	lui	ra,0x80000
    2360:	10003813 	li	s0,14
    2364:	00000013 	nop
    2368:	184502b3 	sra	s1,ra,s0
    236c:	21000413 	add	s2,s2,1
    2370:	28000813 	li	s3,2
    2374:	f90bd0e3 	bne	s2,s3,235c <test_29+0x4>
    2378:	effff037 	lui	a11,0xfffe0
    237c:	e0007413 	li	a10,29
    2380:	08fba8e3 	bne	s1,a11,2554 <fail>

00002384 <test_30>:
    2384:	20000013 	li	s2,0
    2388:	0c000037 	lui	ra,0x80000
    238c:	10007c13 	li	s0,31
    2390:	00000013 	nop
    2394:	00000013 	nop
    2398:	184502b3 	sra	s1,ra,s0
    239c:	21000413 	add	s2,s2,1
    23a0:	28000813 	li	s3,2
    23a4:	f90bc8e3 	bne	s2,s3,2388 <test_30+0x4>
    23a8:	e83ffc13 	li	a11,-1
    23ac:	e0007813 	li	a10,30
    23b0:	08fb48e3 	bne	s1,a11,2554 <fail>

000023b4 <test_31>:
    23b4:	20000013 	li	s2,0
    23b8:	0c000037 	lui	ra,0x80000
    23bc:	00000013 	nop
    23c0:	10001c13 	li	s0,7
    23c4:	184502b3 	sra	s1,ra,s0
    23c8:	21000413 	add	s2,s2,1
    23cc:	28000813 	li	s3,2
    23d0:	f90bd0e3 	bne	s2,s3,23b8 <test_31+0x4>
    23d4:	eff80037 	lui	a11,0xff000
    23d8:	e0007c13 	li	a10,31
    23dc:	08faf0e3 	bne	s1,a11,2554 <fail>

000023e0 <test_32>:
    23e0:	20000013 	li	s2,0
    23e4:	0c000037 	lui	ra,0x80000
    23e8:	00000013 	nop
    23ec:	10003813 	li	s0,14
    23f0:	00000013 	nop
    23f4:	184502b3 	sra	s1,ra,s0
    23f8:	21000413 	add	s2,s2,1
    23fc:	28000813 	li	s3,2
    2400:	f90bc8e3 	bne	s2,s3,23e4 <test_32+0x4>
    2404:	effff037 	lui	a11,0xfffe0
    2408:	e0008013 	li	a10,32
    240c:	08fa90e3 	bne	s1,a11,2554 <fail>

00002410 <test_33>:
    2410:	20000013 	li	s2,0
    2414:	0c000037 	lui	ra,0x80000
    2418:	00000013 	nop
    241c:	00000013 	nop
    2420:	10007c13 	li	s0,31
    2424:	184502b3 	sra	s1,ra,s0
    2428:	21000413 	add	s2,s2,1
    242c:	28000813 	li	s3,2
    2430:	f90bc8e3 	bne	s2,s3,2414 <test_33+0x4>
    2434:	e83ffc13 	li	a11,-1
    2438:	e0008413 	li	a10,33
    243c:	08fa30e3 	bne	s1,a11,2554 <fail>

00002440 <test_34>:
    2440:	20000013 	li	s2,0
    2444:	10001c13 	li	s0,7
    2448:	0c000037 	lui	ra,0x80000
    244c:	184502b3 	sra	s1,ra,s0
    2450:	21000413 	add	s2,s2,1
    2454:	28000813 	li	s3,2
    2458:	f90bd8e3 	bne	s2,s3,2444 <test_34+0x4>
    245c:	eff80037 	lui	a11,0xff000
    2460:	e0008813 	li	a10,34
    2464:	00fbe0e3 	bne	s1,a11,2554 <fail>

00002468 <test_35>:
    2468:	20000013 	li	s2,0
    246c:	10003813 	li	s0,14
    2470:	0c000037 	lui	ra,0x80000
    2474:	00000013 	nop
    2478:	184502b3 	sra	s1,ra,s0
    247c:	21000413 	add	s2,s2,1
    2480:	28000813 	li	s3,2
    2484:	f90bd0e3 	bne	s2,s3,246c <test_35+0x4>
    2488:	effff037 	lui	a11,0xfffe0
    248c:	e0008c13 	li	a10,35
    2490:	00fb88e3 	bne	s1,a11,2554 <fail>

00002494 <test_36>:
    2494:	20000013 	li	s2,0
    2498:	10007c13 	li	s0,31
    249c:	0c000037 	lui	ra,0x80000
    24a0:	00000013 	nop
    24a4:	00000013 	nop
    24a8:	184502b3 	sra	s1,ra,s0
    24ac:	21000413 	add	s2,s2,1
    24b0:	28000813 	li	s3,2
    24b4:	f90bc8e3 	bne	s2,s3,2498 <test_36+0x4>
    24b8:	e83ffc13 	li	a11,-1
    24bc:	e0009013 	li	a10,36
    24c0:	00fb28e3 	bne	s1,a11,2554 <fail>

000024c4 <test_37>:
    24c4:	20000013 	li	s2,0
    24c8:	10001c13 	li	s0,7
    24cc:	00000013 	nop
    24d0:	0c000037 	lui	ra,0x80000
    24d4:	184502b3 	sra	s1,ra,s0
    24d8:	21000413 	add	s2,s2,1
    24dc:	28000813 	li	s3,2
    24e0:	f90bd0e3 	bne	s2,s3,24c8 <test_37+0x4>
    24e4:	eff80037 	lui	a11,0xff000
    24e8:	e0009413 	li	a10,37
    24ec:	00fad0e3 	bne	s1,a11,2554 <fail>

000024f0 <test_38>:
    24f0:	20000013 	li	s2,0
    24f4:	10003813 	li	s0,14
    24f8:	00000013 	nop
    24fc:	0c000037 	lui	ra,0x80000
    2500:	00000013 	nop
    2504:	184502b3 	sra	s1,ra,s0
    2508:	21000413 	add	s2,s2,1
    250c:	28000813 	li	s3,2
    2510:	f90bc8e3 	bne	s2,s3,24f4 <test_38+0x4>
    2514:	effff037 	lui	a11,0xfffe0
    2518:	e0009813 	li	a10,38
    251c:	00fa70e3 	bne	s1,a11,2554 <fail>

00002520 <test_39>:
    2520:	20000013 	li	s2,0
    2524:	10007c13 	li	s0,31
    2528:	00000013 	nop
    252c:	00000013 	nop
    2530:	0c000037 	lui	ra,0x80000
    2534:	184502b3 	sra	s1,ra,s0
    2538:	21000413 	add	s2,s2,1
    253c:	28000813 	li	s3,2
    2540:	f90bc8e3 	bne	s2,s3,2524 <test_39+0x4>
    2544:	e83ffc13 	li	a11,-1
    2548:	e0009c13 	li	a10,39
    254c:	00fa10e3 	bne	s1,a11,2554 <fail>
    2550:	003830e3 	bne	zero,a10,2568 <pass>

00002554 <fail>:
    2554:	e7000493 	sll	a10,a10,0x1
    2558:	e7000713 	or	a10,a10,1
    255c:	07b801fb 	mtpcr	zero,a10,cr30
    2560:	00000063 	b	2560 <fail+0xc>
    2564:	00000013 	nop

00002568 <pass>:
    2568:	08000413 	li	ra,1
    256c:	078201fb 	mtpcr	zero,ra,cr30
    2570:	00000063 	b	2570 <pass+0x8>
    2574:	00000013 	nop
    2578:	00000013 	nop
    257c:	00000013 	nop
