
riscv-v3_lhu:     file format elf32-littleriscv


Disassembly of section .text:

00002000 <_start>:
    2000:	0800017b 	mfpcr	ra,cr0
    2004:	087dff93 	and	ra,ra,-129
    2008:	000201fb 	mtpcr	zero,ra,cr0

0000200c <test_2>:
    200c:	08000137 	lui	ra,0x2
    2010:	084ac013 	add	ra,ra,688
    2014:	18400283 	lhu	s1,0(ra)
    2018:	e803fc13 	li	a11,255
    201c:	e0000813 	li	a10,2
    2020:	10fad8e3 	bne	s1,a11,228c <fail>

00002024 <test_3>:
    2024:	08000137 	lui	ra,0x2
    2028:	084ac013 	add	ra,ra,688
    202c:	18400a83 	lhu	s1,2(ra)
    2030:	e8000837 	lui	a11,0x10
    2034:	ef7c0013 	add	a11,a11,-256
    2038:	e0000c13 	li	a10,3
    203c:	10faa0e3 	bne	s1,a11,228c <fail>

00002040 <test_4>:
    2040:	08000137 	lui	ra,0x2
    2044:	084ac013 	add	ra,ra,688
    2048:	18401283 	lhu	s1,4(ra)
    204c:	e80000b7 	lui	a11,0x1
    2050:	ef7fc013 	add	a11,a11,-16
    2054:	e0001013 	li	a10,4
    2058:	10fa68e3 	bne	s1,a11,228c <fail>

0000205c <test_5>:
    205c:	08000137 	lui	ra,0x2
    2060:	084ac013 	add	ra,ra,688
    2064:	18401a83 	lhu	s1,6(ra)
    2068:	e80007b7 	lui	a11,0xf
    206c:	ef403c13 	add	a11,a11,15
    2070:	e0001413 	li	a10,5
    2074:	10fa30e3 	bne	s1,a11,228c <fail>

00002078 <test_6>:
    2078:	08000137 	lui	ra,0x2
    207c:	084ad813 	add	ra,ra,694
    2080:	187fea83 	lhu	s1,-6(ra)
    2084:	e803fc13 	li	a11,255
    2088:	e0001813 	li	a10,6
    208c:	10fa00e3 	bne	s1,a11,228c <fail>

00002090 <test_7>:
    2090:	08000137 	lui	ra,0x2
    2094:	084ad813 	add	ra,ra,694
    2098:	187ff283 	lhu	s1,-4(ra)
    209c:	e8000837 	lui	a11,0x10
    20a0:	ef7c0013 	add	a11,a11,-256
    20a4:	e0001c13 	li	a10,7
    20a8:	08fbc8e3 	bne	s1,a11,228c <fail>

000020ac <test_8>:
    20ac:	08000137 	lui	ra,0x2
    20b0:	084ad813 	add	ra,ra,694
    20b4:	187ffa83 	lhu	s1,-2(ra)
    20b8:	e80000b7 	lui	a11,0x1
    20bc:	ef7fc013 	add	a11,a11,-16
    20c0:	e0002013 	li	a10,8
    20c4:	08fb90e3 	bne	s1,a11,228c <fail>

000020c8 <test_9>:
    20c8:	08000137 	lui	ra,0x2
    20cc:	084ad813 	add	ra,ra,694
    20d0:	18400283 	lhu	s1,0(ra)
    20d4:	e80007b7 	lui	a11,0xf
    20d8:	ef403c13 	add	a11,a11,15
    20dc:	e0002413 	li	a10,9
    20e0:	08fb58e3 	bne	s1,a11,228c <fail>

000020e4 <test_10>:
    20e4:	08000137 	lui	ra,0x2
    20e8:	084ac013 	add	ra,ra,688
    20ec:	087f8013 	add	ra,ra,-32
    20f0:	18408283 	lhu	s1,32(ra)
    20f4:	e803fc13 	li	a11,255
    20f8:	e0002813 	li	a10,10
    20fc:	08fb20e3 	bne	s1,a11,228c <fail>

00002100 <test_11>:
    2100:	08000137 	lui	ra,0x2
    2104:	084ac013 	add	ra,ra,688
    2108:	087fec13 	add	ra,ra,-5
    210c:	18401e83 	lhu	s1,7(ra)
    2110:	e8000837 	lui	a11,0x10
    2114:	ef7c0013 	add	a11,a11,-256
    2118:	e0002c13 	li	a10,11
    211c:	08fae0e3 	bne	s1,a11,228c <fail>

00002120 <test_12>:
    2120:	e0003013 	li	a10,12
    2124:	20000013 	li	s2,0
    2128:	08000137 	lui	ra,0x2
    212c:	084ac813 	add	ra,ra,690
    2130:	18400a83 	lhu	s1,2(ra)
    2134:	30c00013 	move	s4,s1
    2138:	e80000b7 	lui	a11,0x1
    213c:	ef7fc013 	add	a11,a11,-16
    2140:	09ba98e3 	bne	s4,a11,228c <fail>
    2144:	21000413 	add	s2,s2,1
    2148:	28000813 	li	s3,2
    214c:	f90bb8e3 	bne	s2,s3,2128 <test_12+0x8>

00002150 <test_13>:
    2150:	e0003413 	li	a10,13
    2154:	20000013 	li	s2,0
    2158:	08000137 	lui	ra,0x2
    215c:	084ad013 	add	ra,ra,692
    2160:	18400a83 	lhu	s1,2(ra)
    2164:	00000013 	nop
    2168:	30c00013 	move	s4,s1
    216c:	e80007b7 	lui	a11,0xf
    2170:	ef403c13 	add	a11,a11,15
    2174:	09ba30e3 	bne	s4,a11,228c <fail>
    2178:	21000413 	add	s2,s2,1
    217c:	28000813 	li	s3,2
    2180:	f90bb0e3 	bne	s2,s3,2158 <test_13+0x8>

00002184 <test_14>:
    2184:	e0003813 	li	a10,14
    2188:	20000013 	li	s2,0
    218c:	08000137 	lui	ra,0x2
    2190:	084ac013 	add	ra,ra,688
    2194:	18400a83 	lhu	s1,2(ra)
    2198:	00000013 	nop
    219c:	00000013 	nop
    21a0:	30c00013 	move	s4,s1
    21a4:	e8000837 	lui	a11,0x10
    21a8:	ef7c0013 	add	a11,a11,-256
    21ac:	01bbc0e3 	bne	s4,a11,228c <fail>
    21b0:	21000413 	add	s2,s2,1
    21b4:	28000813 	li	s3,2
    21b8:	f90ba8e3 	bne	s2,s3,218c <test_14+0x8>

000021bc <test_15>:
    21bc:	e0003c13 	li	a10,15
    21c0:	20000013 	li	s2,0
    21c4:	08000137 	lui	ra,0x2
    21c8:	084ac813 	add	ra,ra,690
    21cc:	18400a83 	lhu	s1,2(ra)
    21d0:	e80000b7 	lui	a11,0x1
    21d4:	ef7fc013 	add	a11,a11,-16
    21d8:	00fb68e3 	bne	s1,a11,228c <fail>
    21dc:	21000413 	add	s2,s2,1
    21e0:	28000813 	li	s3,2
    21e4:	f90bc0e3 	bne	s2,s3,21c4 <test_15+0x8>

000021e8 <test_16>:
    21e8:	e0004013 	li	a10,16
    21ec:	20000013 	li	s2,0
    21f0:	08000137 	lui	ra,0x2
    21f4:	084ad013 	add	ra,ra,692
    21f8:	00000013 	nop
    21fc:	18400a83 	lhu	s1,2(ra)
    2200:	e80007b7 	lui	a11,0xf
    2204:	ef403c13 	add	a11,a11,15
    2208:	00fb08e3 	bne	s1,a11,228c <fail>
    220c:	21000413 	add	s2,s2,1
    2210:	28000813 	li	s3,2
    2214:	f90bb8e3 	bne	s2,s3,21f0 <test_16+0x8>

00002218 <test_17>:
    2218:	e0004413 	li	a10,17
    221c:	20000013 	li	s2,0
    2220:	08000137 	lui	ra,0x2
    2224:	084ac013 	add	ra,ra,688
    2228:	00000013 	nop
    222c:	00000013 	nop
    2230:	18400a83 	lhu	s1,2(ra)
    2234:	e8000837 	lui	a11,0x10
    2238:	ef7c0013 	add	a11,a11,-256
    223c:	00faa0e3 	bne	s1,a11,228c <fail>
    2240:	21000413 	add	s2,s2,1
    2244:	28000813 	li	s3,2
    2248:	f90bb0e3 	bne	s2,s3,2220 <test_17+0x8>

0000224c <test_18>:
    224c:	18000137 	lui	s1,0x2
    2250:	18cac013 	add	s1,s1,688
    2254:	10c00283 	lhu	s0,0(s1)
    2258:	10000813 	li	s0,2
    225c:	e8000813 	li	a11,2
    2260:	e0004813 	li	a10,18
    2264:	00ba50e3 	bne	s0,a11,228c <fail>

00002268 <test_19>:
    2268:	18000137 	lui	s1,0x2
    226c:	18cac013 	add	s1,s1,688
    2270:	10c00283 	lhu	s0,0(s1)
    2274:	00000013 	nop
    2278:	10000813 	li	s0,2
    227c:	e8000813 	li	a11,2
    2280:	e0004c13 	li	a10,19
    2284:	00ba10e3 	bne	s0,a11,228c <fail>
    2288:	003830e3 	bne	zero,a10,22a0 <pass>

0000228c <fail>:
    228c:	e7000493 	sll	a10,a10,0x1
    2290:	e7000713 	or	a10,a10,1
    2294:	07b801fb 	mtpcr	zero,a10,cr30
    2298:	00000063 	b	2298 <fail+0xc>
    229c:	00000013 	nop

000022a0 <pass>:
    22a0:	08000413 	li	ra,1
    22a4:	078201fb 	mtpcr	zero,ra,cr30
    22a8:	00000063 	b	22a8 <pass+0x8>
    22ac:	00000013 	nop
