
riscv-v2_jalr:     file format elf32-littleriscv


Disassembly of section .text:

00002000 <_start>:
    2000:	0800017b 	mfpcr	ra,cr0
    2004:	087dff93 	and	ra,ra,-129
    2008:	000201fb 	mtpcr	zero,ra,cr0

0000200c <test_2>:
    200c:	e0000813 	li	a10,2
    2010:	f8000013 	li	a13,0
    2014:	10000137 	lui	s0,0x2
    2018:	1080b013 	add	s0,s0,44

0000201c <linkaddr_2>:
    201c:	9880006b 	jalr	a1,s0
    2020:	00000013 	nop
    2024:	00000013 	nop
    2028:	00003967 	j	210c <fail>

0000202c <target_2>:
    202c:	08000137 	lui	ra,0x2
    2030:	08407013 	add	ra,ra,28
    2034:	08401013 	add	ra,ra,4
    2038:	0067a8e3 	bne	ra,a1,210c <fail>

0000203c <test_3>:
    203c:	e0000c13 	li	a10,3
    2040:	f8000013 	li	a13,0
    2044:	18000137 	lui	s1,0x2
    2048:	18c16013 	add	s1,s1,88

0000204c <linkaddr_3>:
    204c:	00c0006b 	jalr	zero,s1
    2050:	00000013 	nop
    2054:	00002e67 	j	210c <fail>

00002058 <target_3>:
    2058:	07c168e3 	bnez	a13,210c <fail>

0000205c <test_4>:
    205c:	e0001013 	li	a10,4
    2060:	20000013 	li	s2,0
    2064:	30000137 	lui	s4,0x2
    2068:	3181d013 	add	s4,s4,116
    206c:	9980006b 	jalr	a1,s4
    2070:	003938e3 	bne	zero,a10,210c <fail>
    2074:	21000413 	add	s2,s2,1
    2078:	28000813 	li	s3,2
    207c:	f90bd0e3 	bne	s2,s3,2064 <test_4+0x8>

00002080 <test_5>:
    2080:	e0001413 	li	a10,5
    2084:	20000013 	li	s2,0
    2088:	30000137 	lui	s4,0x2
    208c:	31827013 	add	s4,s4,156
    2090:	00000013 	nop
    2094:	9980006b 	jalr	a1,s4
    2098:	0038e8e3 	bne	zero,a10,210c <fail>
    209c:	21000413 	add	s2,s2,1
    20a0:	28000813 	li	s3,2
    20a4:	f90bc8e3 	bne	s2,s3,2088 <test_5+0x8>

000020a8 <test_6>:
    20a8:	e0001813 	li	a10,6
    20ac:	20000013 	li	s2,0
    20b0:	30000137 	lui	s4,0x2
    20b4:	31832013 	add	s4,s4,200
    20b8:	00000013 	nop
    20bc:	00000013 	nop
    20c0:	9980006b 	jalr	a1,s4
    20c4:	003890e3 	bne	zero,a10,210c <fail>
    20c8:	21000413 	add	s2,s2,1
    20cc:	28000813 	li	s3,2
    20d0:	f90bc0e3 	bne	s2,s3,20b0 <test_6+0x8>

000020d4 <test_7>:
    20d4:	08000413 	li	ra,1
    20d8:	10000137 	lui	s0,0x2
    20dc:	1083d013 	add	s0,s0,244
    20e0:	9880006b 	jalr	a1,s0
    20e4:	08400413 	add	ra,ra,1
    20e8:	08400413 	add	ra,ra,1
    20ec:	08400413 	add	ra,ra,1
    20f0:	08400413 	add	ra,ra,1
    20f4:	08400413 	add	ra,ra,1
    20f8:	08400413 	add	ra,ra,1
    20fc:	e8000c13 	li	a11,3
    2100:	e0001c13 	li	a10,7
    2104:	007a10e3 	bne	ra,a11,210c <fail>
    2108:	003830e3 	bne	zero,a10,2120 <pass>

0000210c <fail>:
    210c:	e7000493 	sll	a10,a10,0x1
    2110:	e7000713 	or	a10,a10,1
    2114:	07b801fb 	mtpcr	zero,a10,cr30
    2118:	00000063 	b	2118 <fail+0xc>
    211c:	00000013 	nop

00002120 <pass>:
    2120:	08000413 	li	ra,1
    2124:	078201fb 	mtpcr	zero,ra,cr30
    2128:	00000063 	b	2128 <pass+0x8>
    212c:	00000013 	nop
