
riscv-v2_add:     file format elf32-littleriscv


Disassembly of section .text:

00002000 <_start>:
    2000:	0800017b 	mfpcr	ra,cr0
    2004:	087dff93 	and	ra,ra,-129
    2008:	000201fb 	mtpcr	zero,ra,cr0

0000200c <test_2>:
    200c:	08000013 	li	ra,0
    2010:	10000013 	li	s0,0
    2014:	18440033 	add	s1,ra,s0
    2018:	e8000013 	li	a11,0
    201c:	e0000813 	li	a10,2
    2020:	20fac0e3 	bne	s1,a11,2480 <fail>

00002024 <test_3>:
    2024:	08000413 	li	ra,1
    2028:	10000413 	li	s0,1
    202c:	18440033 	add	s1,ra,s0
    2030:	e8000813 	li	a11,2
    2034:	e0000c13 	li	a10,3
    2038:	20fa90e3 	bne	s1,a11,2480 <fail>

0000203c <test_4>:
    203c:	08000c13 	li	ra,3
    2040:	10001c13 	li	s0,7
    2044:	18440033 	add	s1,ra,s0
    2048:	e8002813 	li	a11,10
    204c:	e0001013 	li	a10,4
    2050:	20fa60e3 	bne	s1,a11,2480 <fail>

00002054 <test_5>:
    2054:	08000013 	li	ra,0
    2058:	17fffc37 	lui	s0,0xffff8
    205c:	18440033 	add	s1,ra,s0
    2060:	effffc37 	lui	a11,0xffff8
    2064:	e0001413 	li	a10,5
    2068:	20fa30e3 	bne	s1,a11,2480 <fail>

0000206c <test_6>:
    206c:	0c000037 	lui	ra,0x80000
    2070:	10000013 	li	s0,0
    2074:	18440033 	add	s1,ra,s0
    2078:	ec000037 	lui	a11,0x80000
    207c:	e0001813 	li	a10,6
    2080:	20fa00e3 	bne	s1,a11,2480 <fail>

00002084 <test_7>:
    2084:	0c000037 	lui	ra,0x80000
    2088:	17fffc37 	lui	s0,0xffff8
    208c:	18440033 	add	s1,ra,s0
    2090:	ebfffc37 	lui	a11,0x7fff8
    2094:	e0001c13 	li	a10,7
    2098:	18fbd0e3 	bne	s1,a11,2480 <fail>

0000209c <test_8>:
    209c:	08000013 	li	ra,0
    20a0:	10000437 	lui	s0,0x8
    20a4:	10bffc13 	add	s0,s0,-1
    20a8:	18440033 	add	s1,ra,s0
    20ac:	e8000437 	lui	a11,0x8
    20b0:	ef7ffc13 	add	a11,a11,-1
    20b4:	e0002013 	li	a10,8
    20b8:	18fb90e3 	bne	s1,a11,2480 <fail>

000020bc <test_9>:
    20bc:	0c000037 	lui	ra,0x80000
    20c0:	087ffc13 	add	ra,ra,-1
    20c4:	10000013 	li	s0,0
    20c8:	18440033 	add	s1,ra,s0
    20cc:	ec000037 	lui	a11,0x80000
    20d0:	ef7ffc13 	add	a11,a11,-1
    20d4:	e0002413 	li	a10,9
    20d8:	18fb50e3 	bne	s1,a11,2480 <fail>

000020dc <test_10>:
    20dc:	0c000037 	lui	ra,0x80000
    20e0:	087ffc13 	add	ra,ra,-1
    20e4:	10000437 	lui	s0,0x8
    20e8:	10bffc13 	add	s0,s0,-1
    20ec:	18440033 	add	s1,ra,s0
    20f0:	ec000437 	lui	a11,0x80008
    20f4:	ef7ff813 	add	a11,a11,-2
    20f8:	e0002813 	li	a10,10
    20fc:	18fb08e3 	bne	s1,a11,2480 <fail>

00002100 <test_11>:
    2100:	0c000037 	lui	ra,0x80000
    2104:	10000437 	lui	s0,0x8
    2108:	10bffc13 	add	s0,s0,-1
    210c:	18440033 	add	s1,ra,s0
    2110:	ec000437 	lui	a11,0x80008
    2114:	ef7ffc13 	add	a11,a11,-1
    2118:	e0002c13 	li	a10,11
    211c:	18fac8e3 	bne	s1,a11,2480 <fail>

00002120 <test_12>:
    2120:	0c000037 	lui	ra,0x80000
    2124:	087ffc13 	add	ra,ra,-1
    2128:	17fffc37 	lui	s0,0xffff8
    212c:	18440033 	add	s1,ra,s0
    2130:	ebfffc37 	lui	a11,0x7fff8
    2134:	ef7ffc13 	add	a11,a11,-1
    2138:	e0003013 	li	a10,12
    213c:	18fa88e3 	bne	s1,a11,2480 <fail>

00002140 <test_13>:
    2140:	08000013 	li	ra,0
    2144:	103ffc13 	li	s0,-1
    2148:	18440033 	add	s1,ra,s0
    214c:	e83ffc13 	li	a11,-1
    2150:	e0003413 	li	a10,13
    2154:	18fa58e3 	bne	s1,a11,2480 <fail>

00002158 <test_14>:
    2158:	083ffc13 	li	ra,-1
    215c:	10000413 	li	s0,1
    2160:	18440033 	add	s1,ra,s0
    2164:	e8000013 	li	a11,0
    2168:	e0003813 	li	a10,14
    216c:	18fa28e3 	bne	s1,a11,2480 <fail>

00002170 <test_15>:
    2170:	083ffc13 	li	ra,-1
    2174:	103ffc13 	li	s0,-1
    2178:	18440033 	add	s1,ra,s0
    217c:	e83ff813 	li	a11,-2
    2180:	e0003c13 	li	a10,15
    2184:	10fbf8e3 	bne	s1,a11,2480 <fail>

00002188 <test_16>:
    2188:	08003413 	li	ra,13
    218c:	10002c13 	li	s0,11
    2190:	08440033 	add	ra,ra,s0
    2194:	e8006013 	li	a11,24
    2198:	e0004013 	li	a10,16
    219c:	107bc8e3 	bne	ra,a11,2480 <fail>

000021a0 <test_17>:
    21a0:	08003813 	li	ra,14
    21a4:	10002c13 	li	s0,11
    21a8:	10440033 	add	s0,ra,s0
    21ac:	e8006413 	li	a11,25
    21b0:	e0004413 	li	a10,17
    21b4:	10bb98e3 	bne	s0,a11,2480 <fail>

000021b8 <test_18>:
    21b8:	08003413 	li	ra,13
    21bc:	08420033 	add	ra,ra,ra
    21c0:	e8006813 	li	a11,26
    21c4:	e0004813 	li	a10,18
    21c8:	107b70e3 	bne	ra,a11,2480 <fail>

000021cc <test_19>:
    21cc:	20000013 	li	s2,0
    21d0:	08003413 	li	ra,13
    21d4:	10002c13 	li	s0,11
    21d8:	18440033 	add	s1,ra,s0
    21dc:	30c00013 	move	s4,s1
    21e0:	21000413 	add	s2,s2,1
    21e4:	28000813 	li	s3,2
    21e8:	f90bd0e3 	bne	s2,s3,21d0 <test_19+0x4>
    21ec:	e8006013 	li	a11,24
    21f0:	e0004c13 	li	a10,19
    21f4:	11bb18e3 	bne	s4,a11,2480 <fail>

000021f8 <test_20>:
    21f8:	20000013 	li	s2,0
    21fc:	08003813 	li	ra,14
    2200:	10002c13 	li	s0,11
    2204:	18440033 	add	s1,ra,s0
    2208:	00000013 	nop
    220c:	30c00013 	move	s4,s1
    2210:	21000413 	add	s2,s2,1
    2214:	28000813 	li	s3,2
    2218:	f90bc8e3 	bne	s2,s3,21fc <test_20+0x4>
    221c:	e8006413 	li	a11,25
    2220:	e0005013 	li	a10,20
    2224:	11bab8e3 	bne	s4,a11,2480 <fail>

00002228 <test_21>:
    2228:	20000013 	li	s2,0
    222c:	08003c13 	li	ra,15
    2230:	10002c13 	li	s0,11
    2234:	18440033 	add	s1,ra,s0
    2238:	00000013 	nop
    223c:	00000013 	nop
    2240:	30c00013 	move	s4,s1
    2244:	21000413 	add	s2,s2,1
    2248:	28000813 	li	s3,2
    224c:	f90bc0e3 	bne	s2,s3,222c <test_21+0x4>
    2250:	e8006813 	li	a11,26
    2254:	e0005413 	li	a10,21
    2258:	11ba50e3 	bne	s4,a11,2480 <fail>

0000225c <test_22>:
    225c:	20000013 	li	s2,0
    2260:	08003413 	li	ra,13
    2264:	10002c13 	li	s0,11
    2268:	18440033 	add	s1,ra,s0
    226c:	21000413 	add	s2,s2,1
    2270:	28000813 	li	s3,2
    2274:	f90bd8e3 	bne	s2,s3,2260 <test_22+0x4>
    2278:	e8006013 	li	a11,24
    227c:	e0005813 	li	a10,22
    2280:	10fa00e3 	bne	s1,a11,2480 <fail>

00002284 <test_23>:
    2284:	20000013 	li	s2,0
    2288:	08003813 	li	ra,14
    228c:	10002c13 	li	s0,11
    2290:	00000013 	nop
    2294:	18440033 	add	s1,ra,s0
    2298:	21000413 	add	s2,s2,1
    229c:	28000813 	li	s3,2
    22a0:	f90bd0e3 	bne	s2,s3,2288 <test_23+0x4>
    22a4:	e8006413 	li	a11,25
    22a8:	e0005c13 	li	a10,23
    22ac:	08fba8e3 	bne	s1,a11,2480 <fail>

000022b0 <test_24>:
    22b0:	20000013 	li	s2,0
    22b4:	08003c13 	li	ra,15
    22b8:	10002c13 	li	s0,11
    22bc:	00000013 	nop
    22c0:	00000013 	nop
    22c4:	18440033 	add	s1,ra,s0
    22c8:	21000413 	add	s2,s2,1
    22cc:	28000813 	li	s3,2
    22d0:	f90bc8e3 	bne	s2,s3,22b4 <test_24+0x4>
    22d4:	e8006813 	li	a11,26
    22d8:	e0006013 	li	a10,24
    22dc:	08fb48e3 	bne	s1,a11,2480 <fail>

000022e0 <test_25>:
    22e0:	20000013 	li	s2,0
    22e4:	08003413 	li	ra,13
    22e8:	00000013 	nop
    22ec:	10002c13 	li	s0,11
    22f0:	18440033 	add	s1,ra,s0
    22f4:	21000413 	add	s2,s2,1
    22f8:	28000813 	li	s3,2
    22fc:	f90bd0e3 	bne	s2,s3,22e4 <test_25+0x4>
    2300:	e8006013 	li	a11,24
    2304:	e0006413 	li	a10,25
    2308:	08faf0e3 	bne	s1,a11,2480 <fail>

0000230c <test_26>:
    230c:	20000013 	li	s2,0
    2310:	08003813 	li	ra,14
    2314:	00000013 	nop
    2318:	10002c13 	li	s0,11
    231c:	00000013 	nop
    2320:	18440033 	add	s1,ra,s0
    2324:	21000413 	add	s2,s2,1
    2328:	28000813 	li	s3,2
    232c:	f90bc8e3 	bne	s2,s3,2310 <test_26+0x4>
    2330:	e8006413 	li	a11,25
    2334:	e0006813 	li	a10,26
    2338:	08fa90e3 	bne	s1,a11,2480 <fail>

0000233c <test_27>:
    233c:	20000013 	li	s2,0
    2340:	08003c13 	li	ra,15
    2344:	00000013 	nop
    2348:	00000013 	nop
    234c:	10002c13 	li	s0,11
    2350:	18440033 	add	s1,ra,s0
    2354:	21000413 	add	s2,s2,1
    2358:	28000813 	li	s3,2
    235c:	f90bc8e3 	bne	s2,s3,2340 <test_27+0x4>
    2360:	e8006813 	li	a11,26
    2364:	e0006c13 	li	a10,27
    2368:	08fa30e3 	bne	s1,a11,2480 <fail>

0000236c <test_28>:
    236c:	20000013 	li	s2,0
    2370:	10002c13 	li	s0,11
    2374:	08003413 	li	ra,13
    2378:	18440033 	add	s1,ra,s0
    237c:	21000413 	add	s2,s2,1
    2380:	28000813 	li	s3,2
    2384:	f90bd8e3 	bne	s2,s3,2370 <test_28+0x4>
    2388:	e8006013 	li	a11,24
    238c:	e0007013 	li	a10,28
    2390:	00fbe0e3 	bne	s1,a11,2480 <fail>

00002394 <test_29>:
    2394:	20000013 	li	s2,0
    2398:	10002c13 	li	s0,11
    239c:	08003813 	li	ra,14
    23a0:	00000013 	nop
    23a4:	18440033 	add	s1,ra,s0
    23a8:	21000413 	add	s2,s2,1
    23ac:	28000813 	li	s3,2
    23b0:	f90bd0e3 	bne	s2,s3,2398 <test_29+0x4>
    23b4:	e8006413 	li	a11,25
    23b8:	e0007413 	li	a10,29
    23bc:	00fb88e3 	bne	s1,a11,2480 <fail>

000023c0 <test_30>:
    23c0:	20000013 	li	s2,0
    23c4:	10002c13 	li	s0,11
    23c8:	08003c13 	li	ra,15
    23cc:	00000013 	nop
    23d0:	00000013 	nop
    23d4:	18440033 	add	s1,ra,s0
    23d8:	21000413 	add	s2,s2,1
    23dc:	28000813 	li	s3,2
    23e0:	f90bc8e3 	bne	s2,s3,23c4 <test_30+0x4>
    23e4:	e8006813 	li	a11,26
    23e8:	e0007813 	li	a10,30
    23ec:	00fb28e3 	bne	s1,a11,2480 <fail>

000023f0 <test_31>:
    23f0:	20000013 	li	s2,0
    23f4:	10002c13 	li	s0,11
    23f8:	00000013 	nop
    23fc:	08003413 	li	ra,13
    2400:	18440033 	add	s1,ra,s0
    2404:	21000413 	add	s2,s2,1
    2408:	28000813 	li	s3,2
    240c:	f90bd0e3 	bne	s2,s3,23f4 <test_31+0x4>
    2410:	e8006013 	li	a11,24
    2414:	e0007c13 	li	a10,31
    2418:	00fad0e3 	bne	s1,a11,2480 <fail>

0000241c <test_32>:
    241c:	20000013 	li	s2,0
    2420:	10002c13 	li	s0,11
    2424:	00000013 	nop
    2428:	08003813 	li	ra,14
    242c:	00000013 	nop
    2430:	18440033 	add	s1,ra,s0
    2434:	21000413 	add	s2,s2,1
    2438:	28000813 	li	s3,2
    243c:	f90bc8e3 	bne	s2,s3,2420 <test_32+0x4>
    2440:	e8006413 	li	a11,25
    2444:	e0008013 	li	a10,32
    2448:	00fa70e3 	bne	s1,a11,2480 <fail>

0000244c <test_33>:
    244c:	20000013 	li	s2,0
    2450:	10002c13 	li	s0,11
    2454:	00000013 	nop
    2458:	00000013 	nop
    245c:	08003c13 	li	ra,15
    2460:	18440033 	add	s1,ra,s0
    2464:	21000413 	add	s2,s2,1
    2468:	28000813 	li	s3,2
    246c:	f90bc8e3 	bne	s2,s3,2450 <test_33+0x4>
    2470:	e8006813 	li	a11,26
    2474:	e0008413 	li	a10,33
    2478:	00fa10e3 	bne	s1,a11,2480 <fail>
    247c:	003830e3 	bne	zero,a10,2494 <pass>

00002480 <fail>:
    2480:	e7000493 	sll	a10,a10,0x1
    2484:	e7000713 	or	a10,a10,1
    2488:	07b801fb 	mtpcr	zero,a10,cr30
    248c:	00000063 	b	248c <fail+0xc>
    2490:	00000013 	nop

00002494 <pass>:
    2494:	08000413 	li	ra,1
    2498:	078201fb 	mtpcr	zero,ra,cr30
    249c:	00000063 	b	249c <pass+0x8>
    24a0:	00000013 	nop
    24a4:	00000013 	nop
    24a8:	00000013 	nop
    24ac:	00000013 	nop
