
dhrystone.riscv:     file format elf32-littleriscv


Disassembly of section .text:

00002000 <_start>:
    2000:	00000093 	li	ra,0
    2004:	00000113 	li	s0,0
    2008:	00000193 	li	s1,0
    200c:	00000213 	li	s2,0
    2010:	00000293 	li	s3,0
    2014:	00000313 	li	s4,0
    2018:	00000393 	li	s5,0
    201c:	00000413 	li	s6,0
    2020:	00000493 	li	s7,0
    2024:	00000513 	li	s8,0
    2028:	00000593 	li	s9,0
    202c:	00000613 	li	s10,0
    2030:	00000693 	li	s11,0
    2034:	00000713 	li	sp,0
    2038:	00000793 	li	tp,0
    203c:	00000813 	li	v0,0
    2040:	00000893 	li	v1,0
    2044:	00000913 	li	a0,0
    2048:	00000993 	li	a1,0
    204c:	00000a13 	li	a2,0
    2050:	00000a93 	li	a3,0
    2054:	00000b13 	li	a4,0
    2058:	00000b93 	li	a5,0
    205c:	00000c13 	li	a6,0
    2060:	00000c93 	li	a7,0
    2064:	00000d13 	li	t0,0
    2068:	00000d93 	li	t1,0
    206c:	00000e13 	li	t2,0
    2070:	00000e93 	li	t3,0
    2074:	00000f13 	li	t4,0
    2078:	00000f93 	li	gp,0
    207c:	50b02973 	csrr	a0,hartid
    2080:	fe091ee3 	bnez	a0,207c <_start+0x7c>
    2084:	00023717 	auipc	sp,0x23
    2088:	38070713 	add	sp,sp,896 # 25380 <stacktop>
    208c:	6ec000ef 	jal	2778 <main>
    2090:	00000013 	nop
    2094:	00000013 	nop
    2098:	00000063 	b	2098 <_start+0x98>

0000209c <__do_global_dtors_aux>:
    209c:	fe070713 	add	sp,sp,-32
    20a0:	00272c23 	sw	s0,24(sp)
    20a4:	00023117 	auipc	s0,0x23
    20a8:	38014803 	lbu	v0,896(s0) # 25380 <stacktop>
    20ac:	00172e23 	sw	ra,28(sp)
    20b0:	00372a23 	sw	s1,20(sp)
    20b4:	00472823 	sw	s2,16(sp)
    20b8:	00572623 	sw	s3,12(sp)
    20bc:	06081863 	bnez	v0,212c <__do_global_dtors_aux+0x90>
    20c0:	00001297 	auipc	s3,0x1
    20c4:	00001217 	auipc	s2,0x1
    20c8:	00023197 	auipc	s1,0x23
    20cc:	b7828293 	add	s3,s3,-1160 # 2b78 <__DTOR_LIST__>
    20d0:	b7c20213 	add	s2,s2,-1156 # 2b7c <__DTOR_END__>
    20d4:	40520233 	sub	s2,s2,s3
    20d8:	3841a803 	lw	v0,900(s1) # 25384 <dtor_idx.2406>
    20dc:	40225213 	sra	s2,s2,0x2
    20e0:	fff20213 	add	s2,s2,-1
    20e4:	02487263 	bleu	s2,v0,2108 <__do_global_dtors_aux+0x6c>
    20e8:	00180813 	add	v0,v0,1
    20ec:	00281893 	sll	v1,v0,0x2
    20f0:	011288b3 	add	v1,s3,v1
    20f4:	0008a883 	lw	v1,0(v1)
    20f8:	3901a223 	sw	v0,900(s1)
    20fc:	000880e7 	jalr	v1
    2100:	3841a803 	lw	v0,900(s1)
    2104:	fe4862e3 	bltu	v0,s2,20e8 <__do_global_dtors_aux+0x4c>
    2108:	ffffe817 	auipc	v0,0xffffe
    210c:	00000813 	li	v0,0
    2110:	00080a63 	beqz	v0,2124 <__do_global_dtors_aux+0x88>
    2114:	00001917 	auipc	a0,0x1
    2118:	ae490913 	add	a0,a0,-1308 # 2ae4 <__EH_FRAME_BEGIN__>
    211c:	00000d17 	auipc	t0,0x0
    2120:	11cd00e7 	jalr	t0,284 # 211c <__do_global_dtors_aux+0x80>
    2124:	00100813 	li	v0,1
    2128:	39010023 	sb	v0,896(s0)
    212c:	01c72083 	lw	ra,28(sp)
    2130:	01872103 	lw	s0,24(sp)
    2134:	01472183 	lw	s1,20(sp)
    2138:	01072203 	lw	s2,16(sp)
    213c:	00c72283 	lw	s3,12(sp)
    2140:	02070713 	add	sp,sp,32
    2144:	00008067 	ret

00002148 <call___do_global_dtors_aux>:
    2148:	ff070713 	add	sp,sp,-16
    214c:	00172623 	sw	ra,12(sp)
    2150:	00c72083 	lw	ra,12(sp)
    2154:	01070713 	add	sp,sp,16
    2158:	00008067 	ret

0000215c <frame_dummy>:
    215c:	ffffe817 	auipc	v0,0xffffe
    2160:	ff070713 	add	sp,sp,-16
    2164:	00000813 	li	v0,0
    2168:	00172623 	sw	ra,12(sp)
    216c:	00080e63 	beqz	v0,2188 <frame_dummy+0x2c>
    2170:	00001917 	auipc	a0,0x1
    2174:	00001997 	auipc	a1,0x1
    2178:	ae490913 	add	a0,a0,-1308 # 2ae4 <__EH_FRAME_BEGIN__>
    217c:	b9098993 	add	a1,a1,-1136 # 2b90 <object.2419>
    2180:	00000d17 	auipc	t0,0x0
    2184:	180d00e7 	jalr	t0,384 # 2180 <frame_dummy+0x24>
    2188:	00001917 	auipc	a0,0x1
    218c:	b8092803 	lw	v0,-1152(a0) # 2b80 <__JCR_END__>
    2190:	02080063 	beqz	v0,21b0 <frame_dummy+0x54>
    2194:	ffffed17 	auipc	t0,0xffffe
    2198:	00000d13 	li	t0,0
    219c:	000d0a63 	beqz	t0,21b0 <frame_dummy+0x54>
    21a0:	00c72083 	lw	ra,12(sp)
    21a4:	b8090913 	add	a0,a0,-1152
    21a8:	01070713 	add	sp,sp,16
    21ac:	000d0067 	jr	t0
    21b0:	00c72083 	lw	ra,12(sp)
    21b4:	01070713 	add	sp,sp,16
    21b8:	00008067 	ret

000021bc <call_frame_dummy>:
    21bc:	ff070713 	add	sp,sp,-16
    21c0:	00172623 	sw	ra,12(sp)
    21c4:	00c72083 	lw	ra,12(sp)
    21c8:	01070713 	add	sp,sp,16
    21cc:	00008067 	ret

000021d0 <barrier>:
    21d0:	ffff98b7 	lui	v1,0xffff9
    21d4:	0ff0000f 	fence
    21d8:	00f888b3 	add	v1,v1,tp
    21dc:	0008a903 	lw	a0,0(v1)
    21e0:	00023817 	auipc	v0,0x23
    21e4:	3b880a13 	add	a2,v0,952 # 253b8 <count.2366>
    21e8:	00193913 	seqz	a0,a0
    21ec:	0128a023 	sw	a0,0(v1)
    21f0:	00100913 	li	a0,1
    21f4:	012a29af 	amoadd.w	a1,a0,(a2)
    21f8:	00001917 	auipc	a0,0x1
    21fc:	b8892903 	lw	a0,-1144(a0) # 2b88 <ncores>
    2200:	fff90913 	add	a0,a0,-1
    2204:	01298e63 	beq	a1,a0,2220 <barrier+0x50>
    2208:	0008a903 	lw	a0,0(v1)
    220c:	00023897 	auipc	v1,0x23
    2210:	3b48a803 	lw	v0,948(v1) # 253b4 <sense.2365>
    2214:	ff281ee3 	bne	v0,a0,2210 <barrier+0x40>
    2218:	0ff0000f 	fence
    221c:	00008067 	ret
    2220:	0008a883 	lw	v1,0(v1)
    2224:	3a082c23 	sw	zero,952(v0)
    2228:	00023817 	auipc	v0,0x23
    222c:	3b182a23 	sw	v1,948(v0) # 253b4 <sense.2365>
    2230:	0ff0000f 	fence
    2234:	00008067 	ret

00002238 <finishTest>:
    2238:	51e91073 	csrw	tohost,a0
    223c:	00008067 	ret

00002240 <do_fprintf>:
    2240:	fe070713 	add	sp,sp,-32
    2244:	01472423 	sw	a2,8(sp)
    2248:	01572623 	sw	a3,12(sp)
    224c:	01672823 	sw	a4,16(sp)
    2250:	01772a23 	sw	a5,20(sp)
    2254:	01872c23 	sw	a6,24(sp)
    2258:	01972e23 	sw	a7,28(sp)
    225c:	00000813 	li	v0,0
    2260:	02070713 	add	sp,sp,32
    2264:	00008067 	ret

00002268 <setStats>:
    2268:	00008067 	ret

0000226c <Proc_2>:
    226c:	00023817 	auipc	v0,0x23
    2270:	3a184803 	lbu	v0,929(v0) # 253a1 <Ch_1_Glob>
    2274:	04100893 	li	v1,65
    2278:	00092983 	lw	a1,0(a0)
    227c:	01180463 	beq	v0,v1,2284 <Proc_2+0x18>
    2280:	00008067 	ret
    2284:	00023817 	auipc	v0,0x23
    2288:	3a882803 	lw	v0,936(v0) # 253a8 <Int_Glob>
    228c:	00998993 	add	a1,a1,9
    2290:	410989b3 	sub	a1,a1,v0
    2294:	01392023 	sw	a1,0(a0)
    2298:	00008067 	ret

0000229c <Proc_3>:
    229c:	00023817 	auipc	v0,0x23
    22a0:	3b082883 	lw	v1,944(v0) # 253b0 <Ptr_Glob>
    22a4:	00000a13 	li	a2,0
    22a8:	00088863 	beqz	v1,22b8 <Proc_3+0x1c>
    22ac:	0008a883 	lw	v1,0(v1)
    22b0:	01192023 	sw	v1,0(a0)
    22b4:	3b082a03 	lw	a2,944(v0)
    22b8:	00023817 	auipc	v0,0x23
    22bc:	3a882983 	lw	a1,936(v0) # 253a8 <Int_Glob>
    22c0:	00a00913 	li	a0,10
    22c4:	00ca0a13 	add	a2,a2,12
    22c8:	1b40006f 	j	247c <Proc_7>

000022cc <Proc_1>:
    22cc:	ff070713 	add	sp,sp,-16
    22d0:	00372223 	sw	s1,4(sp)
    22d4:	00023197 	auipc	s1,0x23
    22d8:	00272423 	sw	s0,8(sp)
    22dc:	3b01a803 	lw	v0,944(s1) # 253b0 <Ptr_Glob>
    22e0:	00092103 	lw	s0,0(a0)
    22e4:	00472023 	sw	s2,0(sp)
    22e8:	00172623 	sw	ra,12(sp)
    22ec:	00090213 	mv	s2,a0
    22f0:	00010893 	mv	v1,s0
    22f4:	03080913 	add	a0,v0,48
    22f8:	00082b03 	lw	a4,0(v0)
    22fc:	00482a83 	lw	a3,4(v0)
    2300:	00882a03 	lw	a2,8(v0)
    2304:	00c82983 	lw	a1,12(v0)
    2308:	01080813 	add	v0,v0,16
    230c:	0168a023 	sw	a4,0(v1)
    2310:	0158a223 	sw	a3,4(v1)
    2314:	0148a423 	sw	a2,8(v1)
    2318:	0138a623 	sw	a1,12(v1)
    231c:	01088893 	add	v1,v1,16
    2320:	fd281ce3 	bne	v0,a0,22f8 <Proc_1+0x2c>
    2324:	00022883 	lw	v1,0(s2)
    2328:	00500813 	li	v0,5
    232c:	01022623 	sw	v0,12(s2)
    2330:	01112023 	sw	v1,0(s0)
    2334:	01012623 	sw	v0,12(s0)
    2338:	00010913 	mv	a0,s0
    233c:	f61ff0ef 	jal	229c <Proc_3>
    2340:	00412803 	lw	v0,4(s0)
    2344:	04080863 	beqz	v0,2394 <Proc_1+0xc8>
    2348:	00022803 	lw	v0,0(s2)
    234c:	03080893 	add	v1,v0,48
    2350:	00082a83 	lw	a3,0(v0)
    2354:	00482a03 	lw	a2,4(v0)
    2358:	00882983 	lw	a1,8(v0)
    235c:	00c82903 	lw	a0,12(v0)
    2360:	01080813 	add	v0,v0,16
    2364:	01522023 	sw	a3,0(s2)
    2368:	01422223 	sw	a2,4(s2)
    236c:	01322423 	sw	a1,8(s2)
    2370:	01222623 	sw	a0,12(s2)
    2374:	01020213 	add	s2,s2,16
    2378:	fd181ce3 	bne	v0,v1,2350 <Proc_1+0x84>
    237c:	00c72083 	lw	ra,12(sp)
    2380:	00872103 	lw	s0,8(sp)
    2384:	00472183 	lw	s1,4(sp)
    2388:	00072203 	lw	s2,0(sp)
    238c:	01070713 	add	sp,sp,16
    2390:	00008067 	ret
    2394:	00822903 	lw	a0,8(s2)
    2398:	00600813 	li	v0,6
    239c:	00810993 	add	a1,s0,8
    23a0:	01012623 	sw	v0,12(s0)
    23a4:	07c000ef 	jal	2420 <Proc_6>
    23a8:	3b01a803 	lw	v0,944(s1)
    23ac:	00c12903 	lw	a0,12(s0)
    23b0:	00c10a13 	add	a2,s0,12
    23b4:	00082803 	lw	v0,0(v0)
    23b8:	00c72083 	lw	ra,12(sp)
    23bc:	00472183 	lw	s1,4(sp)
    23c0:	01012023 	sw	v0,0(s0)
    23c4:	00072203 	lw	s2,0(sp)
    23c8:	00872103 	lw	s0,8(sp)
    23cc:	00a00993 	li	a1,10
    23d0:	01070713 	add	sp,sp,16
    23d4:	0a80006f 	j	247c <Proc_7>

000023d8 <Proc_4>:
    23d8:	00023817 	auipc	v0,0x23
    23dc:	3a184883 	lbu	v1,929(v0) # 253a1 <Ch_1_Glob>
    23e0:	00023817 	auipc	v0,0x23
    23e4:	3a482903 	lw	a0,932(v0) # 253a4 <Bool_Glob>
    23e8:	fbf88893 	add	v1,v1,-65
    23ec:	0018b893 	seqz	v1,v1
    23f0:	0128e8b3 	or	v1,v1,a0
    23f4:	3b182223 	sw	v1,932(v0)
    23f8:	04200893 	li	v1,66
    23fc:	00023817 	auipc	v0,0x23
    2400:	3b180023 	sb	v1,928(v0) # 253a0 <Ch_2_Glob>
    2404:	00008067 	ret

00002408 <Proc_5>:
    2408:	00023817 	auipc	v0,0x23
    240c:	04100893 	li	v1,65
    2410:	3b1800a3 	sb	v1,929(v0) # 253a1 <Ch_1_Glob>
    2414:	00023817 	auipc	v0,0x23
    2418:	3a082223 	sw	zero,932(v0) # 253a4 <Bool_Glob>
    241c:	00008067 	ret

00002420 <Proc_6>:
    2420:	00200813 	li	v0,2
    2424:	0129a023 	sw	a0,0(a1)
    2428:	03090a63 	beq	a0,v0,245c <Proc_6+0x3c>
    242c:	00300893 	li	v1,3
    2430:	0119a023 	sw	v1,0(a1)
    2434:	00100893 	li	v1,1
    2438:	03190863 	beq	a0,v1,2468 <Proc_6+0x48>
    243c:	00091663 	bnez	a0,2448 <Proc_6+0x28>
    2440:	0009a023 	sw	zero,0(a1)
    2444:	00008067 	ret
    2448:	01090a63 	beq	a0,v0,245c <Proc_6+0x3c>
    244c:	00400893 	li	v1,4
    2450:	03191463 	bne	a0,v1,2478 <Proc_6+0x58>
    2454:	0109a023 	sw	v0,0(a1)
    2458:	00008067 	ret
    245c:	00100813 	li	v0,1
    2460:	0109a023 	sw	v0,0(a1)
    2464:	00008067 	ret
    2468:	00023817 	auipc	v0,0x23
    246c:	3a882803 	lw	v0,936(v0) # 253a8 <Int_Glob>
    2470:	06582813 	slt	v0,v0,101
    2474:	fc0806e3 	beqz	v0,2440 <Proc_6+0x20>
    2478:	00008067 	ret

0000247c <Proc_7>:
    247c:	00290913 	add	a0,a0,2
    2480:	01298933 	add	a0,a1,a0
    2484:	012a2023 	sw	a0,0(a2)
    2488:	00008067 	ret

0000248c <Proc_8>:
    248c:	005a0813 	add	v0,a2,5
    2490:	00381b13 	sll	a4,v0,0x3
    2494:	00581893 	sll	v1,v0,0x5
    2498:	011b08b3 	add	v1,a4,v1
    249c:	00289c13 	sll	a6,v1,0x2
    24a0:	006a0b93 	add	a5,a2,6
    24a4:	023a0b13 	add	a4,a2,35
    24a8:	018888b3 	add	v1,v1,a6
    24ac:	011988b3 	add	v1,a1,v1
    24b0:	002b9b93 	sll	a5,a5,0x2
    24b4:	00281993 	sll	a1,v0,0x2
    24b8:	002b1b13 	sll	a4,a4,0x2
    24bc:	004a0a13 	add	a2,a2,4
    24c0:	01390c33 	add	a6,a0,a1
    24c4:	01790d33 	add	t0,a0,a5
    24c8:	01388cb3 	add	a7,v1,a1
    24cc:	01690b33 	add	a4,a0,a4
    24d0:	01788bb3 	add	a5,v1,a5
    24d4:	002a1a13 	sll	a2,a2,0x2
    24d8:	015c2023 	sw	a3,0(a6)
    24dc:	01488a33 	add	a2,v1,a2
    24e0:	015d2023 	sw	a3,0(t0) # 0 <threadsense.2367>
    24e4:	010b2023 	sw	v0,0(a4)
    24e8:	010ca023 	sw	v0,0(a7)
    24ec:	010ba023 	sw	v0,0(a5)
    24f0:	000a2803 	lw	v0,0(a2)
    24f4:	00001937 	lui	a0,0x1
    24f8:	011908b3 	add	v1,a0,v1
    24fc:	00180813 	add	v0,v0,1
    2500:	010a2023 	sw	v0,0(a2)
    2504:	000c2803 	lw	v0,0(a6)
    2508:	013889b3 	add	a1,v1,a1
    250c:	00500893 	li	v1,5
    2510:	fb09a023 	sw	v0,-96(a1)
    2514:	00023817 	auipc	v0,0x23
    2518:	3b182423 	sw	v1,936(v0) # 253a8 <Int_Glob>
    251c:	00008067 	ret

00002520 <Func_1>:
    2520:	00000813 	li	v0,0
    2524:	01390463 	beq	a0,a1,252c <Func_1+0xc>
    2528:	00008067 	ret
    252c:	00023817 	auipc	v0,0x23
    2530:	3b2800a3 	sb	a0,929(v0) # 253a1 <Ch_1_Glob>
    2534:	00100813 	li	v0,1
    2538:	00008067 	ret

0000253c <Func_2>:
    253c:	ff070713 	add	sp,sp,-16
    2540:	00172623 	sw	ra,12(sp)
    2544:	0039ca83 	lbu	a3,3(a1)
    2548:	00294a03 	lbu	a2,2(a0)
    254c:	00023817 	auipc	v0,0x23
    2550:	3a184883 	lbu	v1,929(v0) # 253a1 <Ch_1_Glob>
    2554:	034a8e63 	beq	a3,a2,2590 <Func_2+0x54>
    2558:	3b1800a3 	sb	v1,929(v0)
    255c:	044000ef 	jal	25a0 <strcmp>
    2560:	03005063 	blez	v0,2580 <Func_2+0x44>
    2564:	00c72083 	lw	ra,12(sp)
    2568:	00023817 	auipc	v0,0x23
    256c:	00a00893 	li	v1,10
    2570:	3b182423 	sw	v1,936(v0) # 253a8 <Int_Glob>
    2574:	01070713 	add	sp,sp,16
    2578:	00100813 	li	v0,1
    257c:	00008067 	ret
    2580:	00c72083 	lw	ra,12(sp)
    2584:	00000813 	li	v0,0
    2588:	01070713 	add	sp,sp,16
    258c:	00008067 	ret
    2590:	0000006f 	j	2590 <Func_2+0x54>

00002594 <Func_3>:
    2594:	ffe90813 	add	v0,a0,-2
    2598:	00183813 	seqz	v0,v0
    259c:	00008067 	ret

000025a0 <strcmp>:
    25a0:	013968b3 	or	v1,a0,a1
    25a4:	fff00e13 	li	t2,-1
    25a8:	0038f893 	and	v1,v1,3
    25ac:	00000813 	li	v0,0
    25b0:	0e089063 	bnez	v1,2690 <strcmp+0xf0>
    25b4:	7f7f8eb7 	lui	t3,0x7f7f8
    25b8:	f7fe8e93 	add	t3,t3,-129
    25bc:	00092a03 	lw	a2,0(a0)
    25c0:	0009aa83 	lw	a3,0(a1)
    25c4:	01da7d33 	and	t0,a2,t3
    25c8:	01da6db3 	or	t1,a2,t3
    25cc:	01dd0d33 	add	t0,t0,t3
    25d0:	01bd6d33 	or	t0,t0,t1
    25d4:	0fcd1263 	bne	t0,t2,26b8 <strcmp+0x118>
    25d8:	075a1663 	bne	a2,a3,2644 <strcmp+0xa4>
    25dc:	00492a03 	lw	a2,4(a0)
    25e0:	0049aa83 	lw	a3,4(a1)
    25e4:	01da7d33 	and	t0,a2,t3
    25e8:	01da6db3 	or	t1,a2,t3
    25ec:	01dd0d33 	add	t0,t0,t3
    25f0:	01bd6d33 	or	t0,t0,t1
    25f4:	0bcd1e63 	bne	t0,t2,26b0 <strcmp+0x110>
    25f8:	055a1663 	bne	a2,a3,2644 <strcmp+0xa4>
    25fc:	00892a03 	lw	a2,8(a0)
    2600:	0089aa83 	lw	a3,8(a1)
    2604:	01da7d33 	and	t0,a2,t3
    2608:	01da6db3 	or	t1,a2,t3
    260c:	01dd0d33 	add	t0,t0,t3
    2610:	01bd6d33 	or	t0,t0,t1
    2614:	0bcd1663 	bne	t0,t2,26c0 <strcmp+0x120>
    2618:	035a1663 	bne	a2,a3,2644 <strcmp+0xa4>
    261c:	00c92a03 	lw	a2,12(a0)
    2620:	00c9aa83 	lw	a3,12(a1)
    2624:	01da7d33 	and	t0,a2,t3
    2628:	01da6db3 	or	t1,a2,t3
    262c:	01dd0d33 	add	t0,t0,t3
    2630:	01bd6d33 	or	t0,t0,t1
    2634:	09cd1e63 	bne	t0,t2,26d0 <strcmp+0x130>
    2638:	01090913 	add	a0,a0,16
    263c:	01098993 	add	a1,a1,16
    2640:	f75a0ee3 	beq	a2,a3,25bc <strcmp+0x1c>
    2644:	010a1913 	sll	a0,a2,0x10
    2648:	010a9993 	sll	a1,a3,0x10
    264c:	01391e63 	bne	a0,a1,2668 <strcmp+0xc8>
    2650:	010a5913 	srl	a0,a2,0x10
    2654:	010ad993 	srl	a1,a3,0x10
    2658:	41390833 	sub	v0,a0,a1
    265c:	0ff87893 	and	v1,v0,255
    2660:	02089063 	bnez	v1,2680 <strcmp+0xe0>
    2664:	00008067 	ret
    2668:	01095913 	srl	a0,a0,0x10
    266c:	0109d993 	srl	a1,a1,0x10
    2670:	41390833 	sub	v0,a0,a1
    2674:	0ff87893 	and	v1,v0,255
    2678:	00089463 	bnez	v1,2680 <strcmp+0xe0>
    267c:	00008067 	ret
    2680:	0ff97913 	and	a0,a0,255
    2684:	0ff9f993 	and	a1,a1,255
    2688:	41390833 	sub	v0,a0,a1
    268c:	00008067 	ret
    2690:	00094803 	lbu	v0,0(a0)
    2694:	0009c883 	lbu	v1,0(a1)
    2698:	00190913 	add	a0,a0,1
    269c:	00198993 	add	a1,a1,1
    26a0:	01181463 	bne	v0,v1,26a8 <strcmp+0x108>
    26a4:	fe0816e3 	bnez	v0,2690 <strcmp+0xf0>
    26a8:	41180833 	sub	v0,v0,v1
    26ac:	00008067 	ret
    26b0:	00490913 	add	a0,a0,4
    26b4:	00498993 	add	a1,a1,4
    26b8:	fd5a1ce3 	bne	a2,a3,2690 <strcmp+0xf0>
    26bc:	00008067 	ret
    26c0:	00890913 	add	a0,a0,8
    26c4:	00898993 	add	a1,a1,8
    26c8:	fd5a14e3 	bne	a2,a3,2690 <strcmp+0xf0>
    26cc:	00008067 	ret
    26d0:	00c90913 	add	a0,a0,12
    26d4:	00c98993 	add	a1,a1,12
    26d8:	fb5a1ce3 	bne	a2,a3,2690 <strcmp+0xf0>
    26dc:	00008067 	ret

000026e0 <__do_global_ctors_aux>:
    26e0:	00001817 	auipc	v0,0x1
    26e4:	b7082803 	lw	v0,-1168(v0) # 2b70 <_end>
    26e8:	ff070713 	add	sp,sp,-16
    26ec:	fff00893 	li	v1,-1
    26f0:	00172623 	sw	ra,12(sp)
    26f4:	00272423 	sw	s0,8(sp)
    26f8:	00372223 	sw	s1,4(sp)
    26fc:	03180063 	beq	v0,v1,271c <__do_global_ctors_aux+0x3c>
    2700:	00001117 	auipc	s0,0x1
    2704:	b7010113 	add	s0,s0,-1168 # 2b70 <_end>
    2708:	fff00193 	li	s1,-1
    270c:	ffc10113 	add	s0,s0,-4
    2710:	000800e7 	jalr	v0
    2714:	00012803 	lw	v0,0(s0)
    2718:	fe381ae3 	bne	v0,s1,270c <__do_global_ctors_aux+0x2c>
    271c:	00c72083 	lw	ra,12(sp)
    2720:	00872103 	lw	s0,8(sp)
    2724:	00472183 	lw	s1,4(sp)
    2728:	01070713 	add	sp,sp,16
    272c:	00008067 	ret

00002730 <call___do_global_ctors_aux>:
    2730:	ff070713 	add	sp,sp,-16
    2734:	00172623 	sw	ra,12(sp)
    2738:	00c72083 	lw	ra,12(sp)
    273c:	01070713 	add	sp,sp,16
    2740:	00008067 	ret

Disassembly of section .text.startup:

00002778 <main>:
    2778:	00001a17 	auipc	a2,0x1
    277c:	f6070713 	add	sp,sp,-160
    2780:	ae8a0893 	add	v1,a2,-1304 # 2ae8 <__EH_FRAME_BEGIN__+0x4>
    2784:	ae8a2a03 	lw	a2,-1304(a2)
    2788:	08272c23 	sw	s0,152(sp)
    278c:	08772223 	sw	s5,132(sp)
    2790:	08872023 	sw	s6,128(sp)
    2794:	06972e23 	sw	s7,124(sp)
    2798:	06a72c23 	sw	s8,120(sp)
    279c:	06b72a23 	sw	s9,116(sp)
    27a0:	06c72823 	sw	s10,112(sp)
    27a4:	06d72623 	sw	s11,108(sp)
    27a8:	08172e23 	sw	ra,156(sp)
    27ac:	08372a23 	sw	s1,148(sp)
    27b0:	08472823 	sw	s2,144(sp)
    27b4:	08572623 	sw	s3,140(sp)
    27b8:	08672423 	sw	s4,136(sp)
    27bc:	0a070113 	add	s0,sp,160
    27c0:	00001917 	auipc	a0,0x1
    27c4:	fc070713 	add	sp,sp,-64
    27c8:	b0890813 	add	v0,a0,-1272 # 2b08 <__EH_FRAME_BEGIN__+0x24>
    27cc:	00070993 	mv	a1,sp
    27d0:	00023697 	auipc	s11,0x23
    27d4:	fc070713 	add	sp,sp,-64
    27d8:	00023397 	auipc	s5,0x23
    27dc:	0048a303 	lw	s4,4(v1)
    27e0:	00c8a203 	lw	s2,12(v1)
    27e4:	0108a183 	lw	s1,16(v1)
    27e8:	0088a283 	lw	s3,8(v1)
    27ec:	0148af03 	lw	t4,20(v1)
    27f0:	0188ae83 	lw	t3,24(v1)
    27f4:	01c8de03 	lhu	t2,28(v1)
    27f8:	01e8cd83 	lbu	t1,30(v1)
    27fc:	00482c83 	lw	a7,4(v0)
    2800:	00882c03 	lw	a6,8(v0)
    2804:	00c82b83 	lw	a5,12(v0)
    2808:	01082b03 	lw	a4,16(v0)
    280c:	01482a83 	lw	a3,20(v0)
    2810:	b0892d03 	lw	t0,-1272(a0)
    2814:	01472823 	sw	a2,16(sp)
    2818:	3b33a623 	sw	a1,940(s5) # 253ac <Next_Ptr_Glob>
    281c:	01882a03 	lw	a2,24(v0)
    2820:	01372023 	sw	a1,0(sp)
    2824:	3ae6a823 	sw	sp,944(s11) # 253b0 <Ptr_Glob>
    2828:	00072223 	sw	zero,4(sp)
    282c:	01c85883 	lhu	v1,28(v0)
    2830:	01e84803 	lbu	v0,30(v0)
    2834:	00001617 	auipc	s10,0x1
    2838:	00200993 	li	a1,2
    283c:	ba860613 	add	s10,s10,-1112 # 2ba8 <Arr_2_Glob>
    2840:	f9010b23 	sb	v0,-106(s0)
    2844:	00a00813 	li	v0,10
    2848:	01372423 	sw	a1,8(sp)
    284c:	00001597 	auipc	s9,0x1
    2850:	02800993 	li	a1,40
    2854:	65062e23 	sw	v0,1628(s10)
    2858:	1f400513 	li	s8,500
    285c:	00023817 	auipc	v0,0x23
    2860:	00672a23 	sw	s4,20(sp)
    2864:	00472e23 	sw	s2,28(sp)
    2868:	02372023 	sw	s1,32(sp)
    286c:	01372623 	sw	a1,12(sp)
    2870:	00572c23 	sw	s3,24(sp)
    2874:	03e72223 	sw	t4,36(sp)
    2878:	03d72423 	sw	t3,40(sp)
    287c:	03c71623 	sh	t2,44(sp)
    2880:	03b70723 	sb	t1,46(sp)
    2884:	f7a12c23 	sw	t0,-136(s0)
    2888:	f7912e23 	sw	a7,-132(s0)
    288c:	f9812023 	sw	a6,-128(s0)
    2890:	f9712223 	sw	a5,-124(s0)
    2894:	f9612423 	sw	a4,-120(s0)
    2898:	f9512623 	sw	a3,-116(s0)
    289c:	f9412823 	sw	a2,-112(s0)
    28a0:	f9111a23 	sh	v1,-108(s0)
    28a4:	38082e23 	sw	zero,924(v0) # 2539c <Done>
    28a8:	00023417 	auipc	s6,0x23
    28ac:	00023197 	auipc	s1,0x23
    28b0:	b2858213 	add	s2,s9,-1240 # 2b28 <__EH_FRAME_BEGIN__+0x44>
    28b4:	00001317 	auipc	s4,0x1
    28b8:	00023497 	auipc	s7,0x23
    28bc:	f6a12623 	sw	s8,-148(s0)
    28c0:	c0002873 	rdcycle	v0
    28c4:	00023897 	auipc	v1,0x23
    28c8:	00100293 	li	s3,1
    28cc:	3908ac23 	sw	v0,920(v1) # 25398 <Begin_Time>
    28d0:	00100393 	li	s5,1
    28d4:	b285ad03 	lw	t0,-1240(s9)
    28d8:	00422c83 	lw	a7,4(s2)
    28dc:	00822c03 	lw	a6,8(s2)
    28e0:	00c22b83 	lw	a5,12(s2)
    28e4:	01022b03 	lw	a4,16(s2)
    28e8:	01c25883 	lhu	v1,28(s2)
    28ec:	01422a83 	lw	a3,20(s2)
    28f0:	01822a03 	lw	a2,24(s2)
    28f4:	01e24803 	lbu	v0,30(s2)
    28f8:	04100e13 	li	t2,65
    28fc:	00023d97 	auipc	t1,0x23
    2900:	3bcd80a3 	sb	t2,929(t1) # 253a1 <Ch_1_Glob>
    2904:	f7810913 	add	a0,s0,-136
    2908:	04200d93 	li	t1,66
    290c:	f9810993 	add	a1,s0,-104
    2910:	3bb18023 	sb	t1,928(s1) # 253a0 <Ch_2_Glob>
    2914:	f9a12c23 	sw	t0,-104(s0)
    2918:	f9912e23 	sw	a7,-100(s0)
    291c:	fb812023 	sw	a6,-96(s0)
    2920:	fb712223 	sw	a5,-92(s0)
    2924:	fb612423 	sw	a4,-88(s0)
    2928:	fb111a23 	sh	v1,-76(s0)
    292c:	fb512623 	sw	a3,-84(s0)
    2930:	fb412823 	sw	a2,-80(s0)
    2934:	3a742223 	sw	s5,932(s6) # 253a4 <Bool_Glob>
    2938:	fb010b23 	sb	v0,-74(s0)
    293c:	fa712e23 	sw	s5,-68(s0)
    2940:	bfdff0ef 	jal	253c <Func_2>
    2944:	00183813 	seqz	v0,v0
    2948:	00700e13 	li	t2,7
    294c:	fb810a13 	add	a2,s0,-72
    2950:	00200913 	li	a0,2
    2954:	00300993 	li	a1,3
    2958:	3b042223 	sw	v0,932(s6)
    295c:	fbc12c23 	sw	t2,-72(s0)
    2960:	b1dff0ef 	jal	247c <Proc_7>
    2964:	fb812a83 	lw	a3,-72(s0)
    2968:	00003917 	auipc	a0,0x3
    296c:	2b890913 	add	a0,a0,696 # 52b8 <Arr_1_Glob>
    2970:	00060993 	mv	a1,s10
    2974:	00300a13 	li	a2,3
    2978:	b15ff0ef 	jal	248c <Proc_8>
    297c:	3b06a903 	lw	a0,944(s11)
    2980:	94dff0ef 	jal	22cc <Proc_1>
    2984:	3a01c803 	lbu	v0,928(s1)
    2988:	04183813 	sltu	v0,v0,65
    298c:	0a081463 	bnez	v0,2a34 <main+0x2bc>
    2990:	04100893 	li	v1,65
    2994:	00028513 	mv	s8,s3
    2998:	00088293 	mv	s3,v1
    299c:	0140006f 	j	29b0 <main+0x238>
    29a0:	3a01c803 	lbu	v0,928(s1)
    29a4:	00128293 	add	s3,s3,1
    29a8:	0ff2f293 	and	s3,s3,255
    29ac:	08586263 	bltu	v0,s3,2a30 <main+0x2b8>
    29b0:	00028913 	mv	a0,s3
    29b4:	04300993 	li	a1,67
    29b8:	b69ff0ef 	jal	2520 <Func_1>
    29bc:	fbc12883 	lw	v1,-68(s0)
    29c0:	ff1810e3 	bne	v0,v1,29a0 <main+0x228>
    29c4:	00000913 	li	a0,0
    29c8:	fbc10993 	add	a1,s0,-68
    29cc:	a55ff0ef 	jal	2420 <Proc_6>
    29d0:	b4830813 	add	v0,s4,-1208 # 2b48 <__EH_FRAME_BEGIN__+0x64>
    29d4:	00482b83 	lw	a5,4(v0)
    29d8:	00882b03 	lw	a4,8(v0)
    29dc:	00c82a83 	lw	a3,12(v0)
    29e0:	01082a03 	lw	a2,16(v0)
    29e4:	01482983 	lw	a1,20(v0)
    29e8:	01882903 	lw	a0,24(v0)
    29ec:	01c85883 	lhu	v1,28(v0)
    29f0:	01e84803 	lbu	v0,30(v0)
    29f4:	b4832c03 	lw	a6,-1208(s4)
    29f8:	00128293 	add	s3,s3,1
    29fc:	fb010b23 	sb	v0,-74(s0)
    2a00:	3a01c803 	lbu	v0,928(s1)
    2a04:	0ff2f293 	and	s3,s3,255
    2a08:	f9812c23 	sw	a6,-104(s0)
    2a0c:	f9712e23 	sw	a5,-100(s0)
    2a10:	fb612023 	sw	a4,-96(s0)
    2a14:	fb512223 	sw	a3,-92(s0)
    2a18:	fb412423 	sw	a2,-88(s0)
    2a1c:	fb312623 	sw	a1,-84(s0)
    2a20:	fb212823 	sw	a0,-80(s0)
    2a24:	fb111a23 	sh	v1,-76(s0)
    2a28:	3aa4a423 	sw	s8,936(s7) # 253a8 <Int_Glob>
    2a2c:	f85872e3 	bleu	s3,v0,29b0 <main+0x238>
    2a30:	00050293 	mv	s3,s8
    2a34:	f6c12883 	lw	v1,-148(s0)
    2a38:	00128293 	add	s3,s3,1
    2a3c:	e858dce3 	ble	s3,v1,28d4 <main+0x15c>
    2a40:	c0002873 	rdcycle	v0
    2a44:	00023917 	auipc	a0,0x23
    2a48:	39892883 	lw	v1,920(a0) # 25398 <Begin_Time>
    2a4c:	00023d97 	auipc	t1,0x23
    2a50:	390daa23 	sw	v0,916(t1) # 25394 <End_Time>
    2a54:	41180833 	sub	v0,v0,v1
    2a58:	00023e17 	auipc	t2,0x23
    2a5c:	03282893 	slt	v1,v0,50
    2a60:	390e2823 	sw	v0,912(t2) # 25390 <User_Time>
    2a64:	02088463 	beqz	v1,2a8c <main+0x314>
    2a68:	f6c12d83 	lw	t1,-148(s0)
    2a6c:	00023897 	auipc	v1,0x23
    2a70:	39c8a803 	lw	v0,924(v1) # 2539c <Done>
    2a74:	003d9513 	sll	s8,t1,0x3
    2a78:	001d9893 	sll	v1,t1,0x1
    2a7c:	00a88533 	add	s8,v1,s8
    2a80:	f6a12623 	sw	s8,-148(s0)
    2a84:	e2080ee3 	beqz	v0,28c0 <main+0x148>
    2a88:	0100006f 	j	2a98 <main+0x320>
    2a8c:	00100813 	li	v0,1
    2a90:	00023e17 	auipc	t2,0x23
    2a94:	390e2e23 	sw	v0,924(t2) # 2539c <Done>
    2a98:	00100813 	li	v0,1
    2a9c:	51e81073 	csrw	tohost,v0
    2aa0:	f6010713 	add	sp,s0,-160
    2aa4:	09c72083 	lw	ra,156(sp)
    2aa8:	00000813 	li	v0,0
    2aac:	09872103 	lw	s0,152(sp)
    2ab0:	09472183 	lw	s1,148(sp)
    2ab4:	09072203 	lw	s2,144(sp)
    2ab8:	08c72283 	lw	s3,140(sp)
    2abc:	08872303 	lw	s4,136(sp)
    2ac0:	08472383 	lw	s5,132(sp)
    2ac4:	08072403 	lw	s6,128(sp)
    2ac8:	07c72483 	lw	s7,124(sp)
    2acc:	07872503 	lw	s8,120(sp)
    2ad0:	07472583 	lw	s9,116(sp)
    2ad4:	07072603 	lw	s10,112(sp)
    2ad8:	06c72683 	lw	s11,108(sp)
    2adc:	0a070713 	add	sp,sp,160
    2ae0:	00008067 	ret

Disassembly of section .data:

00002b68 <_heapend>:
    2b68:	0000      	unimp
    2b6a:	0000      	unimp

00002b6c <environ>:
    2b6c:	0000      	unimp
    2b6e:	0000      	unimp
