
dhrystone.riscv:     file format elf32-littleriscv


Disassembly of section .text:

00002000 <_start>:
    2000:	00000093          	li	ra,0
    2004:	00000113          	li	sp,0
    2008:	00000193          	li	gp,0
    200c:	00000213          	li	tp,0
    2010:	00000293          	li	t0,0
    2014:	00000313          	li	t1,0
    2018:	00000393          	li	t2,0
    201c:	00000413          	li	s0,0
    2020:	00000493          	li	s1,0
    2024:	00000513          	li	a0,0
    2028:	00000593          	li	a1,0
    202c:	00000613          	li	a2,0
    2030:	00000693          	li	a3,0
    2034:	00000713          	li	a4,0
    2038:	00000793          	li	a5,0
    203c:	00000813          	li	a6,0
    2040:	00000893          	li	a7,0
    2044:	00000913          	li	s2,0
    2048:	00000993          	li	s3,0
    204c:	00000a13          	li	s4,0
    2050:	00000a93          	li	s5,0
    2054:	00000b13          	li	s6,0
    2058:	00000b93          	li	s7,0
    205c:	00000c13          	li	s8,0
    2060:	00000c93          	li	s9,0
    2064:	00000d13          	li	s10,0
    2068:	00000d93          	li	s11,0
    206c:	00000e13          	li	t3,0
    2070:	00000e93          	li	t4,0
    2074:	00000f13          	li	t5,0
    2078:	00000f93          	li	t6,0
    207c:	50b02573          	csrr	a0,hartid
    2080:	fe051ee3          	bnez	a0,207c <_start+0x7c>
    2084:	00023117          	auipc	sp,0x23
    2088:	11c10113          	addi	sp,sp,284 # 251a0 <stacktop>
    208c:	4c4000ef          	jal	2550 <main>
    2090:	00000013          	nop
    2094:	00000013          	nop
    2098:	00000063          	b	2098 <_start+0x98>

0000209c <barrier>:
    209c:	0330000f          	fence	rw,rw
    20a0:	00022683          	lw	a3,0(tp) # 0 <threadsense.2491>
    20a4:	00025737          	lui	a4,0x25
    20a8:	1a470593          	addi	a1,a4,420 # 251a4 <count.2490>
    20ac:	0016b693          	seqz	a3,a3
    20b0:	00d22023          	sw	a3,0(tp) # 0 <threadsense.2491>
    20b4:	00100693          	li	a3,1
    20b8:	06d5a62f          	amoadd.w.sc	a2,a3,(a1)
    20bc:	000036b7          	lui	a3,0x3
    20c0:	9806a683          	lw	a3,-1664(a3) # 2980 <_end>
    20c4:	fff68693          	addi	a3,a3,-1
    20c8:	00d60e63          	beq	a2,a3,20e4 <barrier+0x48>
    20cc:	00022683          	lw	a3,0(tp) # 0 <threadsense.2491>
    20d0:	00025737          	lui	a4,0x25
    20d4:	1a072783          	lw	a5,416(a4) # 251a0 <stacktop>
    20d8:	fed79ee3          	bne	a5,a3,20d4 <barrier+0x38>
    20dc:	0330000f          	fence	rw,rw
    20e0:	00008067          	ret
    20e4:	00022683          	lw	a3,0(tp) # 0 <threadsense.2491>
    20e8:	000257b7          	lui	a5,0x25
    20ec:	1a072223          	sw	zero,420(a4)
    20f0:	1ad7a023          	sw	a3,416(a5) # 251a0 <stacktop>
    20f4:	0330000f          	fence	rw,rw
    20f8:	00008067          	ret

000020fc <finishTest>:
    20fc:	51e51073          	csrw	tohost,a0
    2100:	00008067          	ret

00002104 <setStats>:
    2104:	0c051073          	csrw	stats,a0
    2108:	00008067          	ret

0000210c <do_fprintf>:
    210c:	fe010113          	addi	sp,sp,-32
    2110:	00c12423          	sw	a2,8(sp)
    2114:	00d12623          	sw	a3,12(sp)
    2118:	00e12823          	sw	a4,16(sp)
    211c:	00f12a23          	sw	a5,20(sp)
    2120:	01012c23          	sw	a6,24(sp)
    2124:	01112e23          	sw	a7,28(sp)
    2128:	00000513          	li	a0,0
    212c:	02010113          	addi	sp,sp,32
    2130:	00008067          	ret

00002134 <Proc_2>:
    2134:	000057b7          	lui	a5,0x5
    2138:	0bc7c683          	lbu	a3,188(a5) # 50bc <Ch_1_Glob>
    213c:	04100713          	li	a4,65
    2140:	00052783          	lw	a5,0(a0)
    2144:	00e68463          	beq	a3,a4,214c <Proc_2+0x18>
    2148:	00008067          	ret
    214c:	00005737          	lui	a4,0x5
    2150:	0b872703          	lw	a4,184(a4) # 50b8 <Int_Glob>
    2154:	00978793          	addi	a5,a5,9
    2158:	40e787b3          	sub	a5,a5,a4
    215c:	00f52023          	sw	a5,0(a0)
    2160:	00008067          	ret

00002164 <Proc_3>:
    2164:	000057b7          	lui	a5,0x5
    2168:	0c07a603          	lw	a2,192(a5) # 50c0 <Ptr_Glob>
    216c:	00060863          	beqz	a2,217c <Proc_3+0x18>
    2170:	00062703          	lw	a4,0(a2)
    2174:	00e52023          	sw	a4,0(a0)
    2178:	0c07a603          	lw	a2,192(a5)
    217c:	000057b7          	lui	a5,0x5
    2180:	0b87a583          	lw	a1,184(a5) # 50b8 <Int_Glob>
    2184:	00a00513          	li	a0,10
    2188:	00c60613          	addi	a2,a2,12
    218c:	1b00006f          	j	233c <Proc_7>

00002190 <Proc_1>:
    2190:	ff010113          	addi	sp,sp,-16
    2194:	01212023          	sw	s2,0(sp)
    2198:	00005937          	lui	s2,0x5
    219c:	00912223          	sw	s1,4(sp)
    21a0:	0c092783          	lw	a5,192(s2) # 50c0 <Ptr_Glob>
    21a4:	00052483          	lw	s1,0(a0)
    21a8:	00812423          	sw	s0,8(sp)
    21ac:	00112623          	sw	ra,12(sp)
    21b0:	00050413          	mv	s0,a0
    21b4:	00048713          	mv	a4,s1
    21b8:	03078693          	addi	a3,a5,48
    21bc:	0007a803          	lw	a6,0(a5)
    21c0:	0047a503          	lw	a0,4(a5)
    21c4:	0087a583          	lw	a1,8(a5)
    21c8:	00c7a603          	lw	a2,12(a5)
    21cc:	01078793          	addi	a5,a5,16
    21d0:	01072023          	sw	a6,0(a4)
    21d4:	00a72223          	sw	a0,4(a4)
    21d8:	00b72423          	sw	a1,8(a4)
    21dc:	00c72623          	sw	a2,12(a4)
    21e0:	01070713          	addi	a4,a4,16
    21e4:	fcd79ce3          	bne	a5,a3,21bc <Proc_1+0x2c>
    21e8:	00042703          	lw	a4,0(s0)
    21ec:	00500793          	li	a5,5
    21f0:	00f42623          	sw	a5,12(s0)
    21f4:	00048513          	mv	a0,s1
    21f8:	00f4a623          	sw	a5,12(s1)
    21fc:	00e4a023          	sw	a4,0(s1)
    2200:	f65ff0ef          	jal	2164 <Proc_3>
    2204:	0044a783          	lw	a5,4(s1)
    2208:	04078a63          	beqz	a5,225c <Proc_1+0xcc>
    220c:	00042783          	lw	a5,0(s0)
    2210:	00040513          	mv	a0,s0
    2214:	03078713          	addi	a4,a5,48
    2218:	0007a803          	lw	a6,0(a5)
    221c:	0047a583          	lw	a1,4(a5)
    2220:	0087a603          	lw	a2,8(a5)
    2224:	00c7a683          	lw	a3,12(a5)
    2228:	01078793          	addi	a5,a5,16
    222c:	01052023          	sw	a6,0(a0)
    2230:	00b52223          	sw	a1,4(a0)
    2234:	00c52423          	sw	a2,8(a0)
    2238:	00d52623          	sw	a3,12(a0)
    223c:	01050513          	addi	a0,a0,16
    2240:	fce79ce3          	bne	a5,a4,2218 <Proc_1+0x88>
    2244:	00c12083          	lw	ra,12(sp)
    2248:	00812403          	lw	s0,8(sp)
    224c:	00412483          	lw	s1,4(sp)
    2250:	00012903          	lw	s2,0(sp)
    2254:	01010113          	addi	sp,sp,16
    2258:	00008067          	ret
    225c:	00842503          	lw	a0,8(s0)
    2260:	00600793          	li	a5,6
    2264:	00848593          	addi	a1,s1,8
    2268:	00f4a623          	sw	a5,12(s1)
    226c:	07c000ef          	jal	22e8 <Proc_6>
    2270:	0c092783          	lw	a5,192(s2)
    2274:	00c4a503          	lw	a0,12(s1)
    2278:	00c48613          	addi	a2,s1,12
    227c:	0007a783          	lw	a5,0(a5)
    2280:	00c12083          	lw	ra,12(sp)
    2284:	00812403          	lw	s0,8(sp)
    2288:	00f4a023          	sw	a5,0(s1)
    228c:	00012903          	lw	s2,0(sp)
    2290:	00412483          	lw	s1,4(sp)
    2294:	00a00593          	li	a1,10
    2298:	01010113          	addi	sp,sp,16
    229c:	0a00006f          	j	233c <Proc_7>

000022a0 <Proc_4>:
    22a0:	000057b7          	lui	a5,0x5
    22a4:	0bc7c783          	lbu	a5,188(a5) # 50bc <Ch_1_Glob>
    22a8:	000056b7          	lui	a3,0x5
    22ac:	1906a703          	lw	a4,400(a3) # 5190 <Bool_Glob>
    22b0:	fbf78793          	addi	a5,a5,-65
    22b4:	0017b793          	seqz	a5,a5
    22b8:	00e7e7b3          	or	a5,a5,a4
    22bc:	18f6a823          	sw	a5,400(a3)
    22c0:	04200713          	li	a4,66
    22c4:	000057b7          	lui	a5,0x5
    22c8:	0ae78ea3          	sb	a4,189(a5) # 50bd <Ch_2_Glob>
    22cc:	00008067          	ret

000022d0 <Proc_5>:
    22d0:	000057b7          	lui	a5,0x5
    22d4:	04100713          	li	a4,65
    22d8:	0ae78e23          	sb	a4,188(a5) # 50bc <Ch_1_Glob>
    22dc:	000057b7          	lui	a5,0x5
    22e0:	1807a823          	sw	zero,400(a5) # 5190 <Bool_Glob>
    22e4:	00008067          	ret

000022e8 <Proc_6>:
    22e8:	00200793          	li	a5,2
    22ec:	04f50263          	beq	a0,a5,2330 <Proc_6+0x48>
    22f0:	00300713          	li	a4,3
    22f4:	00e5a023          	sw	a4,0(a1)
    22f8:	00100713          	li	a4,1
    22fc:	00e50c63          	beq	a0,a4,2314 <Proc_6+0x2c>
    2300:	02050463          	beqz	a0,2328 <Proc_6+0x40>
    2304:	00400713          	li	a4,4
    2308:	00e51e63          	bne	a0,a4,2324 <Proc_6+0x3c>
    230c:	00f5a023          	sw	a5,0(a1)
    2310:	00008067          	ret
    2314:	000057b7          	lui	a5,0x5
    2318:	0b87a703          	lw	a4,184(a5) # 50b8 <Int_Glob>
    231c:	06400793          	li	a5,100
    2320:	00e7c463          	blt	a5,a4,2328 <Proc_6+0x40>
    2324:	00008067          	ret
    2328:	0005a023          	sw	zero,0(a1)
    232c:	00008067          	ret
    2330:	00100793          	li	a5,1
    2334:	00f5a023          	sw	a5,0(a1)
    2338:	00008067          	ret

0000233c <Proc_7>:
    233c:	00250513          	addi	a0,a0,2
    2340:	00a585b3          	add	a1,a1,a0
    2344:	00b62023          	sw	a1,0(a2)
    2348:	00008067          	ret

0000234c <Proc_8>:
    234c:	00560813          	addi	a6,a2,5
    2350:	0c800793          	li	a5,200
    2354:	02f807b3          	mul	a5,a6,a5
    2358:	00261613          	slli	a2,a2,0x2
    235c:	00281713          	slli	a4,a6,0x2
    2360:	00e50533          	add	a0,a0,a4
    2364:	00d52023          	sw	a3,0(a0)
    2368:	00d52223          	sw	a3,4(a0)
    236c:	07052c23          	sw	a6,120(a0)
    2370:	00f60733          	add	a4,a2,a5
    2374:	00e58733          	add	a4,a1,a4
    2378:	01072683          	lw	a3,16(a4)
    237c:	01072a23          	sw	a6,20(a4)
    2380:	01072c23          	sw	a6,24(a4)
    2384:	00168693          	addi	a3,a3,1
    2388:	00d72823          	sw	a3,16(a4)
    238c:	00001737          	lui	a4,0x1
    2390:	fa070713          	addi	a4,a4,-96 # fa0 <threadsense.2491+0xfa0>
    2394:	00e787b3          	add	a5,a5,a4
    2398:	00052683          	lw	a3,0(a0)
    239c:	00f585b3          	add	a1,a1,a5
    23a0:	00c585b3          	add	a1,a1,a2
    23a4:	00500713          	li	a4,5
    23a8:	000057b7          	lui	a5,0x5
    23ac:	00d5aa23          	sw	a3,20(a1)
    23b0:	0ae7ac23          	sw	a4,184(a5) # 50b8 <Int_Glob>
    23b4:	00008067          	ret

000023b8 <Func_1>:
    23b8:	00b50663          	beq	a0,a1,23c4 <Func_1+0xc>
    23bc:	00000513          	li	a0,0
    23c0:	00008067          	ret
    23c4:	000057b7          	lui	a5,0x5
    23c8:	0aa78e23          	sb	a0,188(a5) # 50bc <Ch_1_Glob>
    23cc:	00100513          	li	a0,1
    23d0:	00008067          	ret

000023d4 <Func_2>:
    23d4:	00005637          	lui	a2,0x5
    23d8:	00254783          	lbu	a5,2(a0)
    23dc:	0035c703          	lbu	a4,3(a1)
    23e0:	0bc64683          	lbu	a3,188(a2) # 50bc <Ch_1_Glob>
    23e4:	02e78a63          	beq	a5,a4,2418 <Func_2+0x44>
    23e8:	ff010113          	addi	sp,sp,-16
    23ec:	00112623          	sw	ra,12(sp)
    23f0:	0ad60e23          	sb	a3,188(a2)
    23f4:	048000ef          	jal	243c <strcmp>
    23f8:	02a05463          	blez	a0,2420 <Func_2+0x4c>
    23fc:	00c12083          	lw	ra,12(sp)
    2400:	00a00713          	li	a4,10
    2404:	000057b7          	lui	a5,0x5
    2408:	00100513          	li	a0,1
    240c:	0ae7ac23          	sw	a4,184(a5) # 50b8 <Int_Glob>
    2410:	01010113          	addi	sp,sp,16
    2414:	00008067          	ret
    2418:	00078693          	mv	a3,a5
    241c:	fc9ff06f          	j	23e4 <Func_2+0x10>
    2420:	00c12083          	lw	ra,12(sp)
    2424:	00000513          	li	a0,0
    2428:	01010113          	addi	sp,sp,16
    242c:	00008067          	ret

00002430 <Func_3>:
    2430:	ffe50513          	addi	a0,a0,-2
    2434:	00153513          	seqz	a0,a0
    2438:	00008067          	ret

0000243c <strcmp>:
    243c:	00b56733          	or	a4,a0,a1
    2440:	fff00393          	li	t2,-1
    2444:	00377713          	andi	a4,a4,3
    2448:	0c071063          	bnez	a4,2508 <strcmp+0xcc>
    244c:	7f7f8e37          	lui	t3,0x7f7f8
    2450:	f7fe0e13          	addi	t3,t3,-129 # 7f7f7f7f <Reg+0x7f7d2dd7>
    2454:	00052603          	lw	a2,0(a0)
    2458:	0005a683          	lw	a3,0(a1)
    245c:	01c672b3          	and	t0,a2,t3
    2460:	01c66333          	or	t1,a2,t3
    2464:	01c282b3          	add	t0,t0,t3
    2468:	0062e2b3          	or	t0,t0,t1
    246c:	0c729263          	bne	t0,t2,2530 <strcmp+0xf4>
    2470:	04d61663          	bne	a2,a3,24bc <strcmp+0x80>
    2474:	00452603          	lw	a2,4(a0)
    2478:	0045a683          	lw	a3,4(a1)
    247c:	01c672b3          	and	t0,a2,t3
    2480:	01c66333          	or	t1,a2,t3
    2484:	01c282b3          	add	t0,t0,t3
    2488:	0062e2b3          	or	t0,t0,t1
    248c:	08729e63          	bne	t0,t2,2528 <strcmp+0xec>
    2490:	02d61663          	bne	a2,a3,24bc <strcmp+0x80>
    2494:	00852603          	lw	a2,8(a0)
    2498:	0085a683          	lw	a3,8(a1)
    249c:	01c672b3          	and	t0,a2,t3
    24a0:	01c66333          	or	t1,a2,t3
    24a4:	01c282b3          	add	t0,t0,t3
    24a8:	0062e2b3          	or	t0,t0,t1
    24ac:	08729863          	bne	t0,t2,253c <strcmp+0x100>
    24b0:	00c50513          	addi	a0,a0,12
    24b4:	00c58593          	addi	a1,a1,12
    24b8:	f8d60ee3          	beq	a2,a3,2454 <strcmp+0x18>
    24bc:	01061513          	slli	a0,a2,0x10
    24c0:	01069593          	slli	a1,a3,0x10
    24c4:	00b51e63          	bne	a0,a1,24e0 <strcmp+0xa4>
    24c8:	01065513          	srli	a0,a2,0x10
    24cc:	0106d593          	srli	a1,a3,0x10
    24d0:	40b50533          	sub	a0,a0,a1
    24d4:	0ff57713          	andi	a4,a0,255
    24d8:	02071063          	bnez	a4,24f8 <strcmp+0xbc>
    24dc:	00008067          	ret
    24e0:	01055513          	srli	a0,a0,0x10
    24e4:	0105d593          	srli	a1,a1,0x10
    24e8:	40b50633          	sub	a2,a0,a1
    24ec:	0ff67693          	andi	a3,a2,255
    24f0:	00069463          	bnez	a3,24f8 <strcmp+0xbc>
    24f4:	00008067          	ret
    24f8:	0ff57513          	andi	a0,a0,255
    24fc:	0ff5f593          	andi	a1,a1,255
    2500:	40b50533          	sub	a0,a0,a1
    2504:	00008067          	ret
    2508:	00054603          	lbu	a2,0(a0)
    250c:	0005c683          	lbu	a3,0(a1)
    2510:	00150513          	addi	a0,a0,1
    2514:	00158593          	addi	a1,a1,1
    2518:	00d61463          	bne	a2,a3,2520 <strcmp+0xe4>
    251c:	fe0616e3          	bnez	a2,2508 <strcmp+0xcc>
    2520:	40d60533          	sub	a0,a2,a3
    2524:	00008067          	ret
    2528:	00450513          	addi	a0,a0,4
    252c:	00458593          	addi	a1,a1,4
    2530:	fcd61ce3          	bne	a2,a3,2508 <strcmp+0xcc>
    2534:	00000513          	li	a0,0
    2538:	00008067          	ret
    253c:	00850513          	addi	a0,a0,8
    2540:	00858593          	addi	a1,a1,8
    2544:	fcd612e3          	bne	a2,a3,2508 <strcmp+0xcc>
    2548:	00000513          	li	a0,0
    254c:	00008067          	ret

Disassembly of section .text.startup:

00002550 <main>:
    2550:	f5010113          	addi	sp,sp,-176
    2554:	00003637          	lui	a2,0x3
    2558:	8f860793          	addi	a5,a2,-1800 # 28f8 <main+0x3a8>
    255c:	0a812423          	sw	s0,168(sp)
    2560:	0a912223          	sw	s1,164(sp)
    2564:	0b010413          	addi	s0,sp,176
    2568:	0b212023          	sw	s2,160(sp)
    256c:	09312e23          	sw	s3,156(sp)
    2570:	09412c23          	sw	s4,152(sp)
    2574:	09512a23          	sw	s5,148(sp)
    2578:	09612823          	sw	s6,144(sp)
    257c:	09712623          	sw	s7,140(sp)
    2580:	09812423          	sw	s8,136(sp)
    2584:	09912223          	sw	s9,132(sp)
    2588:	07b12e23          	sw	s11,124(sp)
    258c:	0a112623          	sw	ra,172(sp)
    2590:	09a12023          	sw	s10,128(sp)
    2594:	fc010113          	addi	sp,sp,-64
    2598:	0047ab03          	lw	s6,4(a5)
    259c:	0087aa83          	lw	s5,8(a5)
    25a0:	00c7aa03          	lw	s4,12(a5)
    25a4:	0187a483          	lw	s1,24(a5)
    25a8:	00010513          	mv	a0,sp
    25ac:	8f862803          	lw	a6,-1800(a2)
    25b0:	fc010113          	addi	sp,sp,-64
    25b4:	0107a983          	lw	s3,16(a5)
    25b8:	0147a903          	lw	s2,20(a5)
    25bc:	01c7df83          	lhu	t6,28(a5)
    25c0:	01e7cf03          	lbu	t5,30(a5)
    25c4:	00200793          	li	a5,2
    25c8:	000036b7          	lui	a3,0x3
    25cc:	000035b7          	lui	a1,0x3
    25d0:	00f12423          	sw	a5,8(sp)
    25d4:	02800793          	li	a5,40
    25d8:	91868713          	addi	a4,a3,-1768 # 2918 <main+0x3c8>
    25dc:	00f12623          	sw	a5,12(sp)
    25e0:	93858793          	addi	a5,a1,-1736 # 2938 <main+0x3e8>
    25e4:	9186ae83          	lw	t4,-1768(a3)
    25e8:	00472e03          	lw	t3,4(a4)
    25ec:	00872383          	lw	t2,8(a4)
    25f0:	00c72303          	lw	t1,12(a4)
    25f4:	01072283          	lw	t0,16(a4)
    25f8:	01472883          	lw	a7,20(a4)
    25fc:	00a12023          	sw	a0,0(sp)
    2600:	00012223          	sw	zero,4(sp)
    2604:	01012823          	sw	a6,16(sp)
    2608:	01872803          	lw	a6,24(a4)
    260c:	0047a603          	lw	a2,4(a5)
    2610:	9385a583          	lw	a1,-1736(a1)
    2614:	01c75683          	lhu	a3,28(a4)
    2618:	f6c42423          	sw	a2,-152(s0)
    261c:	0087a603          	lw	a2,8(a5)
    2620:	01e74703          	lbu	a4,30(a4)
    2624:	00005bb7          	lui	s7,0x5
    2628:	f6c42223          	sw	a2,-156(s0)
    262c:	00c7a603          	lw	a2,12(a5)
    2630:	01512c23          	sw	s5,24(sp)
    2634:	00005cb7          	lui	s9,0x5
    2638:	f6c42023          	sw	a2,-160(s0)
    263c:	0107a603          	lw	a2,16(a5)
    2640:	00003ab7          	lui	s5,0x3
    2644:	0aabaa23          	sw	a0,180(s7) # 50b4 <Next_Ptr_Glob>
    2648:	f4c42e23          	sw	a2,-164(s0)
    264c:	0147a603          	lw	a2,20(a5)
    2650:	01612a23          	sw	s6,20(sp)
    2654:	01412e23          	sw	s4,28(sp)
    2658:	f4c42c23          	sw	a2,-168(s0)
    265c:	0187a603          	lw	a2,24(a5)
    2660:	02912423          	sw	s1,40(sp)
    2664:	0c2ca023          	sw	sp,192(s9) # 50c0 <Ptr_Glob>
    2668:	f4c42a23          	sw	a2,-172(s0)
    266c:	01c7d603          	lhu	a2,28(a5)
    2670:	01e7c783          	lbu	a5,30(a5)
    2674:	03312023          	sw	s3,32(sp)
    2678:	03212223          	sw	s2,36(sp)
    267c:	03f11623          	sh	t6,44(sp)
    2680:	03e10723          	sb	t5,46(sp)
    2684:	f9d42023          	sw	t4,-128(s0)
    2688:	f9c42223          	sw	t3,-124(s0)
    268c:	f8742423          	sw	t2,-120(s0)
    2690:	00003c37          	lui	s8,0x3
    2694:	f6b42623          	sw	a1,-148(s0)
    2698:	f4c41923          	sh	a2,-174(s0)
    269c:	f4f408a3          	sb	a5,-175(s0)
    26a0:	958aab03          	lw	s6,-1704(s5) # 2958 <main+0x408>
    26a4:	9a0c0793          	addi	a5,s8,-1632 # 29a0 <Arr_2_Glob>
    26a8:	f8d41e23          	sh	a3,-100(s0)
    26ac:	f8e40f23          	sb	a4,-98(s0)
    26b0:	000056b7          	lui	a3,0x5
    26b4:	00a00713          	li	a4,10
    26b8:	f8642623          	sw	t1,-116(s0)
    26bc:	f8542823          	sw	t0,-112(s0)
    26c0:	f9142a23          	sw	a7,-108(s0)
    26c4:	f9042c23          	sw	a6,-104(s0)
    26c8:	64e7ae23          	sw	a4,1628(a5)
    26cc:	0c06a223          	sw	zero,196(a3) # 50c4 <Done>
    26d0:	1f400b93          	li	s7,500
    26d4:	00005db7          	lui	s11,0x5
    26d8:	00005a37          	lui	s4,0x5
    26dc:	000054b7          	lui	s1,0x5
    26e0:	c00027f3          	rdcycle	a5
    26e4:	00003737          	lui	a4,0x3
    26e8:	98f72e23          	sw	a5,-1636(a4) # 299c <Begin_Time>
    26ec:	00100793          	li	a5,1
    26f0:	0c079073          	csrw	stats,a5
    26f4:	00100913          	li	s2,1
    26f8:	04100713          	li	a4,65
    26fc:	0aed8e23          	sb	a4,188(s11) # 50bc <Ch_1_Glob>
    2700:	04200713          	li	a4,66
    2704:	0ae48ea3          	sb	a4,189(s1) # 50bd <Ch_2_Glob>
    2708:	f6c42703          	lw	a4,-148(s0)
    270c:	00100793          	li	a5,1
    2710:	fa040593          	addi	a1,s0,-96
    2714:	fae42023          	sw	a4,-96(s0)
    2718:	f6842703          	lw	a4,-152(s0)
    271c:	f8040513          	addi	a0,s0,-128
    2720:	18fa2823          	sw	a5,400(s4) # 5190 <Bool_Glob>
    2724:	fae42223          	sw	a4,-92(s0)
    2728:	f6442703          	lw	a4,-156(s0)
    272c:	f6f42e23          	sw	a5,-132(s0)
    2730:	04100d13          	li	s10,65
    2734:	fae42423          	sw	a4,-88(s0)
    2738:	f6042703          	lw	a4,-160(s0)
    273c:	000059b7          	lui	s3,0x5
    2740:	fae42623          	sw	a4,-84(s0)
    2744:	f5c42703          	lw	a4,-164(s0)
    2748:	fae42823          	sw	a4,-80(s0)
    274c:	f5842703          	lw	a4,-168(s0)
    2750:	fae42a23          	sw	a4,-76(s0)
    2754:	f5442703          	lw	a4,-172(s0)
    2758:	fae42c23          	sw	a4,-72(s0)
    275c:	f5245703          	lhu	a4,-174(s0)
    2760:	fae41e23          	sh	a4,-68(s0)
    2764:	f5144703          	lbu	a4,-175(s0)
    2768:	fae40f23          	sb	a4,-66(s0)
    276c:	c69ff0ef          	jal	23d4 <Func_2>
    2770:	00153793          	seqz	a5,a0
    2774:	00300593          	li	a1,3
    2778:	00200513          	li	a0,2
    277c:	f7840613          	addi	a2,s0,-136
    2780:	18fa2823          	sw	a5,400(s4)
    2784:	00700793          	li	a5,7
    2788:	f6f42c23          	sw	a5,-136(s0)
    278c:	bb1ff0ef          	jal	233c <Proc_7>
    2790:	f7842683          	lw	a3,-136(s0)
    2794:	000057b7          	lui	a5,0x5
    2798:	0c878513          	addi	a0,a5,200 # 50c8 <Arr_1_Glob>
    279c:	9a0c0593          	addi	a1,s8,-1632
    27a0:	00300613          	li	a2,3
    27a4:	ba9ff0ef          	jal	234c <Proc_8>
    27a8:	0c0ca503          	lw	a0,192(s9)
    27ac:	9e5ff0ef          	jal	2190 <Proc_1>
    27b0:	0bd4c683          	lbu	a3,189(s1)
    27b4:	04000713          	li	a4,64
    27b8:	00d76c63          	bltu	a4,a3,27d0 <main+0x280>
    27bc:	0900006f          	j	284c <main+0x2fc>
    27c0:	0bd4c703          	lbu	a4,189(s1)
    27c4:	001d0793          	addi	a5,s10,1
    27c8:	0ff7fd13          	andi	s10,a5,255
    27cc:	09a76063          	bltu	a4,s10,284c <main+0x2fc>
    27d0:	000d0513          	mv	a0,s10
    27d4:	04300593          	li	a1,67
    27d8:	be1ff0ef          	jal	23b8 <Func_1>
    27dc:	f7c42703          	lw	a4,-132(s0)
    27e0:	fee510e3          	bne	a0,a4,27c0 <main+0x270>
    27e4:	00000513          	li	a0,0
    27e8:	f7c40593          	addi	a1,s0,-132
    27ec:	afdff0ef          	jal	22e8 <Proc_6>
    27f0:	958a8713          	addi	a4,s5,-1704
    27f4:	00472283          	lw	t0,4(a4)
    27f8:	00872883          	lw	a7,8(a4)
    27fc:	00c72803          	lw	a6,12(a4)
    2800:	01072503          	lw	a0,16(a4)
    2804:	01472583          	lw	a1,20(a4)
    2808:	01872603          	lw	a2,24(a4)
    280c:	01c75683          	lhu	a3,28(a4)
    2810:	01e74703          	lbu	a4,30(a4)
    2814:	001d0793          	addi	a5,s10,1
    2818:	0ff7fd13          	andi	s10,a5,255
    281c:	fae40f23          	sb	a4,-66(s0)
    2820:	0bd4c703          	lbu	a4,189(s1)
    2824:	fb642023          	sw	s6,-96(s0)
    2828:	fa542223          	sw	t0,-92(s0)
    282c:	fb142423          	sw	a7,-88(s0)
    2830:	fb042623          	sw	a6,-84(s0)
    2834:	faa42823          	sw	a0,-80(s0)
    2838:	fab42a23          	sw	a1,-76(s0)
    283c:	fac42c23          	sw	a2,-72(s0)
    2840:	fad41e23          	sh	a3,-68(s0)
    2844:	0b29ac23          	sw	s2,184(s3) # 50b8 <Int_Glob>
    2848:	f9a774e3          	bleu	s10,a4,27d0 <main+0x280>
    284c:	00190913          	addi	s2,s2,1
    2850:	eb2bd4e3          	ble	s2,s7,26f8 <main+0x1a8>
    2854:	00000793          	li	a5,0
    2858:	0c079073          	csrw	stats,a5
    285c:	c00027f3          	rdcycle	a5
    2860:	00003637          	lui	a2,0x3
    2864:	99c62703          	lw	a4,-1636(a2) # 299c <Begin_Time>
    2868:	000056b7          	lui	a3,0x5
    286c:	0af6a823          	sw	a5,176(a3) # 50b0 <End_Time>
    2870:	40e787b3          	sub	a5,a5,a4
    2874:	00003737          	lui	a4,0x3
    2878:	98f72c23          	sw	a5,-1640(a4) # 2998 <User_Time>
    287c:	03100713          	li	a4,49
    2880:	02f74063          	blt	a4,a5,28a0 <main+0x350>
    2884:	00005637          	lui	a2,0x5
    2888:	0c462783          	lw	a5,196(a2) # 50c4 <Done>
    288c:	001b9713          	slli	a4,s7,0x1
    2890:	003b9b93          	slli	s7,s7,0x3
    2894:	01770bb3          	add	s7,a4,s7
    2898:	e40784e3          	beqz	a5,26e0 <main+0x190>
    289c:	0100006f          	j	28ac <main+0x35c>
    28a0:	00100793          	li	a5,1
    28a4:	000056b7          	lui	a3,0x5
    28a8:	0cf6a223          	sw	a5,196(a3) # 50c4 <Done>
    28ac:	00100793          	li	a5,1
    28b0:	51e79073          	csrw	tohost,a5
    28b4:	f5040113          	addi	sp,s0,-176
    28b8:	0ac12083          	lw	ra,172(sp)
    28bc:	00000513          	li	a0,0
    28c0:	0a812403          	lw	s0,168(sp)
    28c4:	0a412483          	lw	s1,164(sp)
    28c8:	0a012903          	lw	s2,160(sp)
    28cc:	09c12983          	lw	s3,156(sp)
    28d0:	09812a03          	lw	s4,152(sp)
    28d4:	09412a83          	lw	s5,148(sp)
    28d8:	09012b03          	lw	s6,144(sp)
    28dc:	08c12b83          	lw	s7,140(sp)
    28e0:	08812c03          	lw	s8,136(sp)
    28e4:	08412c83          	lw	s9,132(sp)
    28e8:	08012d03          	lw	s10,128(sp)
    28ec:	07c12d83          	lw	s11,124(sp)
    28f0:	0b010113          	addi	sp,sp,176
    28f4:	00008067          	ret
