
dhrystone.riscv:     file format elf32-littleriscv


Disassembly of section .text:

00000100 <user_trap_entry>:
     100:	2000006f          	j	300 <trap_entry>
     104:	00000013          	nop
     108:	00000013          	nop
     10c:	00000013          	nop
     110:	00000013          	nop
     114:	00000013          	nop
     118:	00000013          	nop
     11c:	00000013          	nop
     120:	00000013          	nop
     124:	00000013          	nop
     128:	00000013          	nop
     12c:	00000013          	nop
     130:	00000013          	nop
     134:	00000013          	nop
     138:	00000013          	nop
     13c:	00000013          	nop

00000140 <supervisor_trap_entry>:
     140:	0000006f          	j	140 <supervisor_trap_entry>
     144:	00000013          	nop
     148:	00000013          	nop
     14c:	00000013          	nop
     150:	00000013          	nop
     154:	00000013          	nop
     158:	00000013          	nop
     15c:	00000013          	nop
     160:	00000013          	nop
     164:	00000013          	nop
     168:	00000013          	nop
     16c:	00000013          	nop
     170:	00000013          	nop
     174:	00000013          	nop
     178:	00000013          	nop
     17c:	00000013          	nop

00000180 <hypervisor_trap_entry>:
     180:	0000006f          	j	180 <hypervisor_trap_entry>
     184:	00000013          	nop
     188:	00000013          	nop
     18c:	00000013          	nop
     190:	00000013          	nop
     194:	00000013          	nop
     198:	00000013          	nop
     19c:	00000013          	nop
     1a0:	00000013          	nop
     1a4:	00000013          	nop
     1a8:	00000013          	nop
     1ac:	00000013          	nop
     1b0:	00000013          	nop
     1b4:	00000013          	nop
     1b8:	00000013          	nop
     1bc:	00000013          	nop

000001c0 <machine_trap_entry>:
     1c0:	1400006f          	j	300 <trap_entry>
     1c4:	00000013          	nop
     1c8:	00000013          	nop
     1cc:	00000013          	nop
     1d0:	00000013          	nop
     1d4:	00000013          	nop
     1d8:	00000013          	nop
     1dc:	00000013          	nop
     1e0:	00000013          	nop
     1e4:	00000013          	nop
     1e8:	00000013          	nop
     1ec:	00000013          	nop
     1f0:	00000013          	nop
     1f4:	00000013          	nop
     1f8:	00000013          	nop
     1fc:	00000013          	nop

00000200 <_start>:
     200:	00000093          	li	ra,0
     204:	00000113          	li	sp,0
     208:	00000193          	li	gp,0
     20c:	00000213          	li	tp,0
     210:	00000293          	li	t0,0
     214:	00000313          	li	t1,0
     218:	00000393          	li	t2,0
     21c:	00000413          	li	s0,0
     220:	00000493          	li	s1,0
     224:	00000513          	li	a0,0
     228:	00000593          	li	a1,0
     22c:	00000613          	li	a2,0
     230:	00000693          	li	a3,0
     234:	00000713          	li	a4,0
     238:	00000793          	li	a5,0
     23c:	00000813          	li	a6,0
     240:	00000893          	li	a7,0
     244:	00000913          	li	s2,0
     248:	00000993          	li	s3,0
     24c:	00000a13          	li	s4,0
     250:	00000a93          	li	s5,0
     254:	00000b13          	li	s6,0
     258:	00000b93          	li	s7,0
     25c:	00000c13          	li	s8,0
     260:	00000c93          	li	s9,0
     264:	00000d13          	li	s10,0
     268:	00000d93          	li	s11,0
     26c:	00000e13          	li	t3,0
     270:	00000e93          	li	t4,0
     274:	00000f13          	li	t5,0
     278:	00000f93          	li	t6,0
     27c:	03000293          	li	t0,48
     280:	3002b073          	csrc	mstatus,t0
     284:	00800293          	li	t0,8
     288:	3002a073          	csrs	mstatus,t0
     28c:	000032b7          	lui	t0,0x3
     290:	3002a073          	csrs	mstatus,t0
     294:	0000c2b7          	lui	t0,0xc
     298:	3002a073          	csrs	mstatus,t0
     29c:	300022f3          	csrr	t0,mstatus
     2a0:	0000c337          	lui	t1,0xc
     2a4:	0062f333          	and	t1,t0,t1
     2a8:	00005397          	auipc	t2,0x5
     2ac:	4463a223          	sw	t1,1092(t2) # 56ec <have_vec>
     2b0:	00003337          	lui	t1,0x3
     2b4:	0062f333          	and	t1,t0,t1
     2b8:	00030263          	beqz	t1,2bc <_start+0xbc>
     2bc:	00005197          	auipc	gp,0x5
     2c0:	ddc18193          	addi	gp,gp,-548 # 5098 <_gp>
     2c4:	00008217          	auipc	tp,0x8
     2c8:	cfb20213          	addi	tp,tp,-773 # 7fbf <_end+0x3f>
     2cc:	fc027213          	andi	tp,tp,-64
     2d0:	f1002573          	csrr	a0,mhartid
     2d4:	00100593          	li	a1,1
     2d8:	00b57063          	bleu	a1,a0,2d8 <_start+0xd8>
     2dc:	01151613          	slli	a2,a0,0x11
     2e0:	00c20233          	add	tp,tp,a2
     2e4:	00150113          	addi	sp,a0,1
     2e8:	01111113          	slli	sp,sp,0x11
     2ec:	00410133          	add	sp,sp,tp
     2f0:	00001297          	auipc	t0,0x1
     2f4:	ee028293          	addi	t0,t0,-288 # 11d0 <_init>
     2f8:	34129073          	csrw	mepc,t0
     2fc:	10000073          	eret

00000300 <trap_entry>:
     300:	ef010113          	addi	sp,sp,-272
     304:	00112223          	sw	ra,4(sp)
     308:	00212423          	sw	sp,8(sp)
     30c:	00312623          	sw	gp,12(sp)
     310:	00412823          	sw	tp,16(sp)
     314:	00512a23          	sw	t0,20(sp)
     318:	00612c23          	sw	t1,24(sp)
     31c:	00712e23          	sw	t2,28(sp)
     320:	02812023          	sw	s0,32(sp)
     324:	02912223          	sw	s1,36(sp)
     328:	02a12423          	sw	a0,40(sp)
     32c:	02b12623          	sw	a1,44(sp)
     330:	02c12823          	sw	a2,48(sp)
     334:	02d12a23          	sw	a3,52(sp)
     338:	02e12c23          	sw	a4,56(sp)
     33c:	02f12e23          	sw	a5,60(sp)
     340:	05012023          	sw	a6,64(sp)
     344:	05112223          	sw	a7,68(sp)
     348:	05212423          	sw	s2,72(sp)
     34c:	05312623          	sw	s3,76(sp)
     350:	05412823          	sw	s4,80(sp)
     354:	05512a23          	sw	s5,84(sp)
     358:	05612c23          	sw	s6,88(sp)
     35c:	05712e23          	sw	s7,92(sp)
     360:	07812023          	sw	s8,96(sp)
     364:	07912223          	sw	s9,100(sp)
     368:	07a12423          	sw	s10,104(sp)
     36c:	07b12623          	sw	s11,108(sp)
     370:	07c12823          	sw	t3,112(sp)
     374:	07d12a23          	sw	t4,116(sp)
     378:	07e12c23          	sw	t5,120(sp)
     37c:	07f12e23          	sw	t6,124(sp)
     380:	34202573          	csrr	a0,mcause
     384:	341025f3          	csrr	a1,mepc
     388:	00010613          	mv	a2,sp
     38c:	199000ef          	jal	d24 <handle_trap>
     390:	34151073          	csrw	mepc,a0
     394:	00412083          	lw	ra,4(sp)
     398:	00812103          	lw	sp,8(sp)
     39c:	00c12183          	lw	gp,12(sp)
     3a0:	01012203          	lw	tp,16(sp)
     3a4:	01412283          	lw	t0,20(sp)
     3a8:	01812303          	lw	t1,24(sp)
     3ac:	01c12383          	lw	t2,28(sp)
     3b0:	02012403          	lw	s0,32(sp)
     3b4:	02412483          	lw	s1,36(sp)
     3b8:	02812503          	lw	a0,40(sp)
     3bc:	02c12583          	lw	a1,44(sp)
     3c0:	03012603          	lw	a2,48(sp)
     3c4:	03412683          	lw	a3,52(sp)
     3c8:	03812703          	lw	a4,56(sp)
     3cc:	03c12783          	lw	a5,60(sp)
     3d0:	04012803          	lw	a6,64(sp)
     3d4:	04412883          	lw	a7,68(sp)
     3d8:	04812903          	lw	s2,72(sp)
     3dc:	04c12983          	lw	s3,76(sp)
     3e0:	05012a03          	lw	s4,80(sp)
     3e4:	05412a83          	lw	s5,84(sp)
     3e8:	05812b03          	lw	s6,88(sp)
     3ec:	05c12b83          	lw	s7,92(sp)
     3f0:	06012c03          	lw	s8,96(sp)
     3f4:	06412c83          	lw	s9,100(sp)
     3f8:	06812d03          	lw	s10,104(sp)
     3fc:	06c12d83          	lw	s11,108(sp)
     400:	07012e03          	lw	t3,112(sp)
     404:	07412e83          	lw	t4,116(sp)
     408:	07812f03          	lw	t5,120(sp)
     40c:	07c12f83          	lw	t6,124(sp)
     410:	11010113          	addi	sp,sp,272
     414:	10000073          	eret

00000418 <Proc_2>:
     418:	6411c703          	lbu	a4,1601(gp) # 56d9 <Ch_1_Glob>
     41c:	04100793          	li	a5,65
     420:	00f70463          	beq	a4,a5,428 <Proc_2+0x10>
     424:	00008067          	ret
     428:	00052783          	lw	a5,0(a0)
     42c:	6481a703          	lw	a4,1608(gp) # 56e0 <Int_Glob>
     430:	00978793          	addi	a5,a5,9
     434:	40e787b3          	sub	a5,a5,a4
     438:	00f52023          	sw	a5,0(a0)
     43c:	00008067          	ret

00000440 <Proc_3>:
     440:	6501a603          	lw	a2,1616(gp) # 56e8 <Ptr_Glob>
     444:	00060863          	beqz	a2,454 <Proc_3+0x14>
     448:	00062703          	lw	a4,0(a2)
     44c:	00e52023          	sw	a4,0(a0)
     450:	6501a603          	lw	a2,1616(gp) # 56e8 <Ptr_Glob>
     454:	6481a583          	lw	a1,1608(gp) # 56e0 <Int_Glob>
     458:	00c60613          	addi	a2,a2,12
     45c:	00a00513          	li	a0,10
     460:	1440006f          	j	5a4 <Proc_7>

00000464 <Proc_1>:
     464:	ff010113          	addi	sp,sp,-16
     468:	01212023          	sw	s2,0(sp)
     46c:	00912223          	sw	s1,4(sp)
     470:	6501a783          	lw	a5,1616(gp) # 56e8 <Ptr_Glob>
     474:	00052483          	lw	s1,0(a0)
     478:	00812423          	sw	s0,8(sp)
     47c:	00112623          	sw	ra,12(sp)
     480:	00050413          	mv	s0,a0
     484:	00048713          	mv	a4,s1
     488:	03078693          	addi	a3,a5,48
     48c:	0007a803          	lw	a6,0(a5)
     490:	0047a503          	lw	a0,4(a5)
     494:	0087a583          	lw	a1,8(a5)
     498:	00c7a603          	lw	a2,12(a5)
     49c:	01078793          	addi	a5,a5,16
     4a0:	01072023          	sw	a6,0(a4)
     4a4:	00a72223          	sw	a0,4(a4)
     4a8:	00b72423          	sw	a1,8(a4)
     4ac:	00c72623          	sw	a2,12(a4)
     4b0:	01070713          	addi	a4,a4,16
     4b4:	fcd79ce3          	bne	a5,a3,48c <Proc_1+0x28>
     4b8:	00500793          	li	a5,5
     4bc:	00f42623          	sw	a5,12(s0)
     4c0:	00f4a623          	sw	a5,12(s1)
     4c4:	00042783          	lw	a5,0(s0)
     4c8:	00048513          	mv	a0,s1
     4cc:	00f4a023          	sw	a5,0(s1)
     4d0:	f71ff0ef          	jal	440 <Proc_3>
     4d4:	0044a783          	lw	a5,4(s1)
     4d8:	04078a63          	beqz	a5,52c <Proc_1+0xc8>
     4dc:	00042783          	lw	a5,0(s0)
     4e0:	00040513          	mv	a0,s0
     4e4:	03078713          	addi	a4,a5,48
     4e8:	0007a803          	lw	a6,0(a5)
     4ec:	0047a583          	lw	a1,4(a5)
     4f0:	0087a603          	lw	a2,8(a5)
     4f4:	00c7a683          	lw	a3,12(a5)
     4f8:	01078793          	addi	a5,a5,16
     4fc:	01052023          	sw	a6,0(a0)
     500:	00b52223          	sw	a1,4(a0)
     504:	00c52423          	sw	a2,8(a0)
     508:	00d52623          	sw	a3,12(a0)
     50c:	01050513          	addi	a0,a0,16
     510:	fce79ce3          	bne	a5,a4,4e8 <Proc_1+0x84>
     514:	00c12083          	lw	ra,12(sp)
     518:	00812403          	lw	s0,8(sp)
     51c:	00412483          	lw	s1,4(sp)
     520:	00012903          	lw	s2,0(sp)
     524:	01010113          	addi	sp,sp,16
     528:	00008067          	ret
     52c:	00600793          	li	a5,6
     530:	00f4a623          	sw	a5,12(s1)
     534:	00842503          	lw	a0,8(s0)
     538:	00848593          	addi	a1,s1,8
     53c:	1b8000ef          	jal	6f4 <Proc_6>
     540:	6501a783          	lw	a5,1616(gp) # 56e8 <Ptr_Glob>
     544:	00c4a503          	lw	a0,12(s1)
     548:	00c48613          	addi	a2,s1,12
     54c:	0007a783          	lw	a5,0(a5)
     550:	00c12083          	lw	ra,12(sp)
     554:	00812403          	lw	s0,8(sp)
     558:	00f4a023          	sw	a5,0(s1)
     55c:	00012903          	lw	s2,0(sp)
     560:	00412483          	lw	s1,4(sp)
     564:	00a00593          	li	a1,10
     568:	01010113          	addi	sp,sp,16
     56c:	0380006f          	j	5a4 <Proc_7>

00000570 <Proc_4>:
     570:	6411c783          	lbu	a5,1601(gp) # 56d9 <Ch_1_Glob>
     574:	6441a703          	lw	a4,1604(gp) # 56dc <Bool_Glob>
     578:	fbf78793          	addi	a5,a5,-65
     57c:	0017b793          	seqz	a5,a5
     580:	00e7e7b3          	or	a5,a5,a4
     584:	64f1a223          	sw	a5,1604(gp) # 56dc <Bool_Glob>
     588:	04200713          	li	a4,66
     58c:	64e18023          	sb	a4,1600(gp) # 56d8 <Ch_2_Glob>
     590:	00008067          	ret

00000594 <Proc_5>:
     594:	04100713          	li	a4,65
     598:	64e180a3          	sb	a4,1601(gp) # 56d9 <Ch_1_Glob>
     59c:	6401a223          	sw	zero,1604(gp) # 56dc <Bool_Glob>
     5a0:	00008067          	ret

000005a4 <Proc_7>:
     5a4:	00250513          	addi	a0,a0,2
     5a8:	00b505b3          	add	a1,a0,a1
     5ac:	00b62023          	sw	a1,0(a2)
     5b0:	00008067          	ret

000005b4 <Proc_8>:
     5b4:	fe010113          	addi	sp,sp,-32
     5b8:	01312623          	sw	s3,12(sp)
     5bc:	00560993          	addi	s3,a2,5
     5c0:	00912a23          	sw	s1,20(sp)
     5c4:	00299493          	slli	s1,s3,0x2
     5c8:	009504b3          	add	s1,a0,s1
     5cc:	00112e23          	sw	ra,28(sp)
     5d0:	00812c23          	sw	s0,24(sp)
     5d4:	01212823          	sw	s2,16(sp)
     5d8:	00058413          	mv	s0,a1
     5dc:	0734ac23          	sw	s3,120(s1)
     5e0:	00060913          	mv	s2,a2
     5e4:	00d4a023          	sw	a3,0(s1)
     5e8:	00d4a223          	sw	a3,4(s1)
     5ec:	00098513          	mv	a0,s3
     5f0:	0c800593          	li	a1,200
     5f4:	585020ef          	jal	3378 <__mulsi3>
     5f8:	00291913          	slli	s2,s2,0x2
     5fc:	012507b3          	add	a5,a0,s2
     600:	00f407b3          	add	a5,s0,a5
     604:	0107a703          	lw	a4,16(a5)
     608:	0137aa23          	sw	s3,20(a5)
     60c:	0137ac23          	sw	s3,24(a5)
     610:	00170713          	addi	a4,a4,1
     614:	00e7a823          	sw	a4,16(a5)
     618:	000017b7          	lui	a5,0x1
     61c:	fa078793          	addi	a5,a5,-96 # fa0 <handle_trap+0x27c>
     620:	0004a703          	lw	a4,0(s1)
     624:	00f50533          	add	a0,a0,a5
     628:	00a40433          	add	s0,s0,a0
     62c:	01c12083          	lw	ra,28(sp)
     630:	01240433          	add	s0,s0,s2
     634:	00e42a23          	sw	a4,20(s0)
     638:	00500713          	li	a4,5
     63c:	01812403          	lw	s0,24(sp)
     640:	01412483          	lw	s1,20(sp)
     644:	01012903          	lw	s2,16(sp)
     648:	00c12983          	lw	s3,12(sp)
     64c:	64e1a423          	sw	a4,1608(gp) # 56e0 <Int_Glob>
     650:	02010113          	addi	sp,sp,32
     654:	00008067          	ret

00000658 <Func_1>:
     658:	0ff57513          	andi	a0,a0,255
     65c:	0ff5f593          	andi	a1,a1,255
     660:	00b50663          	beq	a0,a1,66c <Func_1+0x14>
     664:	00000513          	li	a0,0
     668:	00008067          	ret
     66c:	64a180a3          	sb	a0,1601(gp) # 56d9 <Ch_1_Glob>
     670:	00100513          	li	a0,1
     674:	00008067          	ret

00000678 <Func_2>:
     678:	ff010113          	addi	sp,sp,-16
     67c:	00812423          	sw	s0,8(sp)
     680:	00912223          	sw	s1,4(sp)
     684:	00112623          	sw	ra,12(sp)
     688:	00050413          	mv	s0,a0
     68c:	00058493          	mv	s1,a1
     690:	0034c583          	lbu	a1,3(s1)
     694:	00244503          	lbu	a0,2(s0)
     698:	fc1ff0ef          	jal	658 <Func_1>
     69c:	fe051ae3          	bnez	a0,690 <Func_2+0x18>
     6a0:	00048593          	mv	a1,s1
     6a4:	00040513          	mv	a0,s0
     6a8:	62d000ef          	jal	14d4 <strcmp>
     6ac:	02a05263          	blez	a0,6d0 <Func_2+0x58>
     6b0:	00c12083          	lw	ra,12(sp)
     6b4:	00a00713          	li	a4,10
     6b8:	00100513          	li	a0,1
     6bc:	00812403          	lw	s0,8(sp)
     6c0:	00412483          	lw	s1,4(sp)
     6c4:	64e1a423          	sw	a4,1608(gp) # 56e0 <Int_Glob>
     6c8:	01010113          	addi	sp,sp,16
     6cc:	00008067          	ret
     6d0:	00c12083          	lw	ra,12(sp)
     6d4:	00000513          	li	a0,0
     6d8:	00812403          	lw	s0,8(sp)
     6dc:	00412483          	lw	s1,4(sp)
     6e0:	01010113          	addi	sp,sp,16
     6e4:	00008067          	ret

000006e8 <Func_3>:
     6e8:	ffe50513          	addi	a0,a0,-2
     6ec:	00153513          	seqz	a0,a0
     6f0:	00008067          	ret

000006f4 <Proc_6>:
     6f4:	ff010113          	addi	sp,sp,-16
     6f8:	00812423          	sw	s0,8(sp)
     6fc:	00912223          	sw	s1,4(sp)
     700:	00112623          	sw	ra,12(sp)
     704:	00050413          	mv	s0,a0
     708:	00058493          	mv	s1,a1
     70c:	fddff0ef          	jal	6e8 <Func_3>
     710:	02050e63          	beqz	a0,74c <Proc_6+0x58>
     714:	00100793          	li	a5,1
     718:	0084a023          	sw	s0,0(s1)
     71c:	04f40063          	beq	s0,a5,75c <Proc_6+0x68>
     720:	04040463          	beqz	s0,768 <Proc_6+0x74>
     724:	00200713          	li	a4,2
     728:	04e40c63          	beq	s0,a4,780 <Proc_6+0x8c>
     72c:	00400793          	li	a5,4
     730:	00f41463          	bne	s0,a5,738 <Proc_6+0x44>
     734:	00e4a023          	sw	a4,0(s1)
     738:	00c12083          	lw	ra,12(sp)
     73c:	00812403          	lw	s0,8(sp)
     740:	00412483          	lw	s1,4(sp)
     744:	01010113          	addi	sp,sp,16
     748:	00008067          	ret
     74c:	00300793          	li	a5,3
     750:	00f4a023          	sw	a5,0(s1)
     754:	00100793          	li	a5,1
     758:	fcf414e3          	bne	s0,a5,720 <Proc_6+0x2c>
     75c:	6481a703          	lw	a4,1608(gp) # 56e0 <Int_Glob>
     760:	06400793          	li	a5,100
     764:	02e7da63          	ble	a4,a5,798 <Proc_6+0xa4>
     768:	00c12083          	lw	ra,12(sp)
     76c:	0004a023          	sw	zero,0(s1)
     770:	00812403          	lw	s0,8(sp)
     774:	00412483          	lw	s1,4(sp)
     778:	01010113          	addi	sp,sp,16
     77c:	00008067          	ret
     780:	00c12083          	lw	ra,12(sp)
     784:	00f4a023          	sw	a5,0(s1)
     788:	00812403          	lw	s0,8(sp)
     78c:	00412483          	lw	s1,4(sp)
     790:	01010113          	addi	sp,sp,16
     794:	00008067          	ret
     798:	00c12083          	lw	ra,12(sp)
     79c:	00300793          	li	a5,3
     7a0:	00f4a023          	sw	a5,0(s1)
     7a4:	00812403          	lw	s0,8(sp)
     7a8:	00412483          	lw	s1,4(sp)
     7ac:	01010113          	addi	sp,sp,16
     7b0:	00008067          	ret

000007b4 <debug_printf>:
     7b4:	fe010113          	addi	sp,sp,-32
     7b8:	00b12223          	sw	a1,4(sp)
     7bc:	00c12423          	sw	a2,8(sp)
     7c0:	00d12623          	sw	a3,12(sp)
     7c4:	00e12823          	sw	a4,16(sp)
     7c8:	00f12a23          	sw	a5,20(sp)
     7cc:	01012c23          	sw	a6,24(sp)
     7d0:	01112e23          	sw	a7,28(sp)
     7d4:	02010113          	addi	sp,sp,32
     7d8:	00008067          	ret

000007dc <putchar>:
     7dc:	04022803          	lw	a6,64(tp) # 40 <buflen.2779>
     7e0:	00020793          	mv	a5,tp
     7e4:	010787b3          	add	a5,a5,a6
     7e8:	00180613          	addi	a2,a6,1
     7ec:	00a78023          	sb	a0,0(a5)
     7f0:	00a00793          	li	a5,10
     7f4:	04c22023          	sw	a2,64(tp) # 40 <buflen.2779>
     7f8:	00f50a63          	beq	a0,a5,80c <putchar+0x30>
     7fc:	04000793          	li	a5,64
     800:	00f60663          	beq	a2,a5,80c <putchar+0x30>
     804:	00000513          	li	a0,0
     808:	00008067          	ret
     80c:	04000893          	li	a7,64
     810:	00100513          	li	a0,1
     814:	00020593          	mv	a1,tp
     818:	00000073          	ecall
     81c:	04022023          	sw	zero,64(tp) # 40 <buflen.2779>
     820:	00000513          	li	a0,0
     824:	00008067          	ret

00000828 <sprintf_putch.2893>:
     828:	0005a783          	lw	a5,0(a1)
     82c:	00a78023          	sb	a0,0(a5)
     830:	0005a783          	lw	a5,0(a1)
     834:	00178793          	addi	a5,a5,1
     838:	00f5a023          	sw	a5,0(a1)
     83c:	00008067          	ret

00000840 <vprintfmt>:
     840:	eb010113          	addi	sp,sp,-336
     844:	14912223          	sw	s1,324(sp)
     848:	15212023          	sw	s2,320(sp)
     84c:	13312e23          	sw	s3,316(sp)
     850:	13512a23          	sw	s5,308(sp)
     854:	14112623          	sw	ra,332(sp)
     858:	14812423          	sw	s0,328(sp)
     85c:	13412c23          	sw	s4,312(sp)
     860:	13612823          	sw	s6,304(sp)
     864:	13712623          	sw	s7,300(sp)
     868:	13812423          	sw	s8,296(sp)
     86c:	13912223          	sw	s9,292(sp)
     870:	13a12023          	sw	s10,288(sp)
     874:	11b12e23          	sw	s11,284(sp)
     878:	00050993          	mv	s3,a0
     87c:	00058913          	mv	s2,a1
     880:	00060493          	mv	s1,a2
     884:	00d12623          	sw	a3,12(sp)
     888:	02500a93          	li	s5,37
     88c:	0140006f          	j	8a0 <vprintfmt+0x60>
     890:	06050263          	beqz	a0,8f4 <vprintfmt+0xb4>
     894:	00148493          	addi	s1,s1,1
     898:	00090593          	mv	a1,s2
     89c:	000980e7          	jalr	s3
     8a0:	0004c503          	lbu	a0,0(s1)
     8a4:	ff5516e3          	bne	a0,s5,890 <vprintfmt+0x50>
     8a8:	0014c503          	lbu	a0,1(s1)
     8ac:	00148a13          	addi	s4,s1,1
     8b0:	fff00413          	li	s0,-1
     8b4:	02000793          	li	a5,32
     8b8:	000a0713          	mv	a4,s4
     8bc:	00f12423          	sw	a5,8(sp)
     8c0:	00040b13          	mv	s6,s0
     8c4:	00000613          	li	a2,0
     8c8:	00900593          	li	a1,9
     8cc:	fdd50793          	addi	a5,a0,-35
     8d0:	0ff7f793          	andi	a5,a5,255
     8d4:	05500693          	li	a3,85
     8d8:	00170493          	addi	s1,a4,1
     8dc:	38f6e463          	bltu	a3,a5,c64 <vprintfmt+0x424>
     8e0:	00279793          	slli	a5,a5,0x2
     8e4:	e7818693          	addi	a3,gp,-392 # 4f10 <main+0xd44>
     8e8:	00d787b3          	add	a5,a5,a3
     8ec:	0007a783          	lw	a5,0(a5)
     8f0:	00078067          	jr	a5
     8f4:	14c12083          	lw	ra,332(sp)
     8f8:	14812403          	lw	s0,328(sp)
     8fc:	14412483          	lw	s1,324(sp)
     900:	14012903          	lw	s2,320(sp)
     904:	13c12983          	lw	s3,316(sp)
     908:	13812a03          	lw	s4,312(sp)
     90c:	13412a83          	lw	s5,308(sp)
     910:	13012b03          	lw	s6,304(sp)
     914:	12c12b83          	lw	s7,300(sp)
     918:	12812c03          	lw	s8,296(sp)
     91c:	12412c83          	lw	s9,292(sp)
     920:	12012d03          	lw	s10,288(sp)
     924:	11c12d83          	lw	s11,284(sp)
     928:	15010113          	addi	sp,sp,336
     92c:	00008067          	ret
     930:	000b5463          	bgez	s6,938 <vprintfmt+0xf8>
     934:	00000b13          	li	s6,0
     938:	00174503          	lbu	a0,1(a4)
     93c:	00048713          	mv	a4,s1
     940:	f8dff06f          	j	8cc <vprintfmt+0x8c>
     944:	00800413          	li	s0,8
     948:	00000a13          	li	s4,0
     94c:	00100793          	li	a5,1
     950:	3ac7d463          	ble	a2,a5,cf8 <vprintfmt+0x4b8>
     954:	00c12783          	lw	a5,12(sp)
     958:	00778c93          	addi	s9,a5,7
     95c:	ff8cf793          	andi	a5,s9,-8
     960:	0007ac83          	lw	s9,0(a5)
     964:	0047ab83          	lw	s7,4(a5)
     968:	00878713          	addi	a4,a5,8
     96c:	00e12623          	sw	a4,12(sp)
     970:	00040613          	mv	a2,s0
     974:	00000693          	li	a3,0
     978:	000c8513          	mv	a0,s9
     97c:	000b8593          	mv	a1,s7
     980:	354010ef          	jal	1cd4 <__umoddi3>
     984:	00a12823          	sw	a0,16(sp)
     988:	357a0a63          	beq	s4,s7,cdc <vprintfmt+0x49c>
     98c:	01410d93          	addi	s11,sp,20
     990:	00100d13          	li	s10,1
     994:	00040613          	mv	a2,s0
     998:	00000693          	li	a3,0
     99c:	000c8513          	mv	a0,s9
     9a0:	000b8593          	mv	a1,s7
     9a4:	519000ef          	jal	16bc <__udivdi3>
     9a8:	00040613          	mv	a2,s0
     9ac:	00000693          	li	a3,0
     9b0:	00050c93          	mv	s9,a0
     9b4:	00058b93          	mv	s7,a1
     9b8:	31c010ef          	jal	1cd4 <__umoddi3>
     9bc:	00ada023          	sw	a0,0(s11)
     9c0:	001d0c13          	addi	s8,s10,1
     9c4:	004d8d93          	addi	s11,s11,4
     9c8:	017a0663          	beq	s4,s7,9d4 <vprintfmt+0x194>
     9cc:	000c0d13          	mv	s10,s8
     9d0:	fc5ff06f          	j	994 <vprintfmt+0x154>
     9d4:	fe8cfce3          	bleu	s0,s9,9cc <vprintfmt+0x18c>
     9d8:	fffb0413          	addi	s0,s6,-1
     9dc:	000d0a13          	mv	s4,s10
     9e0:	036c5263          	ble	s6,s8,a04 <vprintfmt+0x1c4>
     9e4:	00812503          	lw	a0,8(sp)
     9e8:	00090593          	mv	a1,s2
     9ec:	fff40413          	addi	s0,s0,-1
     9f0:	000980e7          	jalr	s3
     9f4:	00140793          	addi	a5,s0,1
     9f8:	fefc46e3          	blt	s8,a5,9e4 <vprintfmt+0x1a4>
     9fc:	000a0d13          	mv	s10,s4
     a00:	eb8050e3          	blez	s8,8a0 <vprintfmt+0x60>
     a04:	002d1793          	slli	a5,s10,0x2
     a08:	11010693          	addi	a3,sp,272
     a0c:	00f687b3          	add	a5,a3,a5
     a10:	f007a503          	lw	a0,-256(a5)
     a14:	40000737          	lui	a4,0x40000
     a18:	fff70713          	addi	a4,a4,-1 # 3fffffff <_end+0x3fff807f>
     a1c:	00ed0a33          	add	s4,s10,a4
     a20:	002a1a13          	slli	s4,s4,0x2
     a24:	01010793          	addi	a5,sp,16
     a28:	000d0413          	mv	s0,s10
     a2c:	01478a33          	add	s4,a5,s4
     a30:	0100006f          	j	a40 <vprintfmt+0x200>
     a34:	000a2503          	lw	a0,0(s4)
     a38:	fff40413          	addi	s0,s0,-1
     a3c:	ffca0a13          	addi	s4,s4,-4
     a40:	00a53793          	sltiu	a5,a0,10
     a44:	40f007b3          	neg	a5,a5
     a48:	fd97f793          	andi	a5,a5,-39
     a4c:	05778793          	addi	a5,a5,87
     a50:	00090593          	mv	a1,s2
     a54:	00a78533          	add	a0,a5,a0
     a58:	000980e7          	jalr	s3
     a5c:	fc804ce3          	bgtz	s0,a34 <vprintfmt+0x1f4>
     a60:	e41ff06f          	j	8a0 <vprintfmt+0x60>
     a64:	00c12783          	lw	a5,12(sp)
     a68:	00174503          	lbu	a0,1(a4)
     a6c:	00048713          	mv	a4,s1
     a70:	0007a403          	lw	s0,0(a5)
     a74:	00478793          	addi	a5,a5,4
     a78:	00f12623          	sw	a5,12(sp)
     a7c:	e40b58e3          	bgez	s6,8cc <vprintfmt+0x8c>
     a80:	00040b13          	mv	s6,s0
     a84:	fff00413          	li	s0,-1
     a88:	e45ff06f          	j	8cc <vprintfmt+0x8c>
     a8c:	00174503          	lbu	a0,1(a4)
     a90:	03000713          	li	a4,48
     a94:	00e12423          	sw	a4,8(sp)
     a98:	00048713          	mv	a4,s1
     a9c:	e31ff06f          	j	8cc <vprintfmt+0x8c>
     aa0:	00174503          	lbu	a0,1(a4)
     aa4:	02d00713          	li	a4,45
     aa8:	00e12423          	sw	a4,8(sp)
     aac:	00048713          	mv	a4,s1
     ab0:	e1dff06f          	j	8cc <vprintfmt+0x8c>
     ab4:	00174683          	lbu	a3,1(a4)
     ab8:	fd050413          	addi	s0,a0,-48
     abc:	00048713          	mv	a4,s1
     ac0:	fd068793          	addi	a5,a3,-48
     ac4:	20f5e663          	bltu	a1,a5,cd0 <vprintfmt+0x490>
     ac8:	00141793          	slli	a5,s0,0x1
     acc:	00341413          	slli	s0,s0,0x3
     ad0:	00878433          	add	s0,a5,s0
     ad4:	00170713          	addi	a4,a4,1
     ad8:	00d40433          	add	s0,s0,a3
     adc:	00074683          	lbu	a3,0(a4)
     ae0:	fd040413          	addi	s0,s0,-48
     ae4:	fd068793          	addi	a5,a3,-48
     ae8:	fef5f0e3          	bleu	a5,a1,ac8 <vprintfmt+0x288>
     aec:	00068513          	mv	a0,a3
     af0:	f8dff06f          	j	a7c <vprintfmt+0x23c>
     af4:	00c12703          	lw	a4,12(sp)
     af8:	00090593          	mv	a1,s2
     afc:	00072503          	lw	a0,0(a4)
     b00:	00470c93          	addi	s9,a4,4
     b04:	000980e7          	jalr	s3
     b08:	01912623          	sw	s9,12(sp)
     b0c:	d95ff06f          	j	8a0 <vprintfmt+0x60>
     b10:	00100793          	li	a5,1
     b14:	18c7d463          	ble	a2,a5,c9c <vprintfmt+0x45c>
     b18:	00c12703          	lw	a4,12(sp)
     b1c:	00770c93          	addi	s9,a4,7
     b20:	ff8cf793          	andi	a5,s9,-8
     b24:	00878713          	addi	a4,a5,8
     b28:	0007a803          	lw	a6,0(a5)
     b2c:	0047a783          	lw	a5,4(a5)
     b30:	00e12623          	sw	a4,12(sp)
     b34:	00078b93          	mv	s7,a5
     b38:	00080c93          	mv	s9,a6
     b3c:	1207de63          	bgez	a5,c78 <vprintfmt+0x438>
     b40:	00090593          	mv	a1,s2
     b44:	02d00513          	li	a0,45
     b48:	000980e7          	jalr	s3
     b4c:	41900833          	neg	a6,s9
     b50:	01003733          	snez	a4,a6
     b54:	417007b3          	neg	a5,s7
     b58:	00080c93          	mv	s9,a6
     b5c:	40e78bb3          	sub	s7,a5,a4
     b60:	00a00413          	li	s0,10
     b64:	00000a13          	li	s4,0
     b68:	e09ff06f          	j	970 <vprintfmt+0x130>
     b6c:	00174503          	lbu	a0,1(a4)
     b70:	00160613          	addi	a2,a2,1
     b74:	00048713          	mv	a4,s1
     b78:	d55ff06f          	j	8cc <vprintfmt+0x8c>
     b7c:	00c12783          	lw	a5,12(sp)
     b80:	0007ac03          	lw	s8,0(a5)
     b84:	00478c93          	addi	s9,a5,4
     b88:	100c0663          	beqz	s8,c94 <vprintfmt+0x454>
     b8c:	03605c63          	blez	s6,bc4 <vprintfmt+0x384>
     b90:	00812783          	lw	a5,8(sp)
     b94:	02d00713          	li	a4,45
     b98:	0ee78663          	beq	a5,a4,c84 <vprintfmt+0x444>
     b9c:	00040593          	mv	a1,s0
     ba0:	000c0513          	mv	a0,s8
     ba4:	2d5000ef          	jal	1678 <strnlen>
     ba8:	40ab0b33          	sub	s6,s6,a0
     bac:	01605c63          	blez	s6,bc4 <vprintfmt+0x384>
     bb0:	00812503          	lw	a0,8(sp)
     bb4:	fffb0b13          	addi	s6,s6,-1
     bb8:	00090593          	mv	a1,s2
     bbc:	000980e7          	jalr	s3
     bc0:	fe0b18e3          	bnez	s6,bb0 <vprintfmt+0x370>
     bc4:	000c4503          	lbu	a0,0(s8)
     bc8:	04050263          	beqz	a0,c0c <vprintfmt+0x3cc>
     bcc:	fff00a13          	li	s4,-1
     bd0:	00044663          	bltz	s0,bdc <vprintfmt+0x39c>
     bd4:	fff40413          	addi	s0,s0,-1
     bd8:	01440e63          	beq	s0,s4,bf4 <vprintfmt+0x3b4>
     bdc:	00090593          	mv	a1,s2
     be0:	001c0c13          	addi	s8,s8,1
     be4:	000980e7          	jalr	s3
     be8:	000c4503          	lbu	a0,0(s8)
     bec:	fffb0b13          	addi	s6,s6,-1
     bf0:	fe0510e3          	bnez	a0,bd0 <vprintfmt+0x390>
     bf4:	01605c63          	blez	s6,c0c <vprintfmt+0x3cc>
     bf8:	fffb0b13          	addi	s6,s6,-1
     bfc:	00090593          	mv	a1,s2
     c00:	02000513          	li	a0,32
     c04:	000980e7          	jalr	s3
     c08:	fe0b18e3          	bnez	s6,bf8 <vprintfmt+0x3b8>
     c0c:	01912623          	sw	s9,12(sp)
     c10:	c91ff06f          	j	8a0 <vprintfmt+0x60>
     c14:	00a00413          	li	s0,10
     c18:	00000a13          	li	s4,0
     c1c:	d31ff06f          	j	94c <vprintfmt+0x10c>
     c20:	01000413          	li	s0,16
     c24:	00000a13          	li	s4,0
     c28:	d25ff06f          	j	94c <vprintfmt+0x10c>
     c2c:	03000513          	li	a0,48
     c30:	00090593          	mv	a1,s2
     c34:	000980e7          	jalr	s3
     c38:	00090593          	mv	a1,s2
     c3c:	07800513          	li	a0,120
     c40:	000980e7          	jalr	s3
     c44:	01000413          	li	s0,16
     c48:	00000a13          	li	s4,0
     c4c:	00c12783          	lw	a5,12(sp)
     c50:	00000b93          	li	s7,0
     c54:	0007ac83          	lw	s9,0(a5)
     c58:	00478793          	addi	a5,a5,4
     c5c:	00f12623          	sw	a5,12(sp)
     c60:	d11ff06f          	j	970 <vprintfmt+0x130>
     c64:	00090593          	mv	a1,s2
     c68:	02500513          	li	a0,37
     c6c:	000980e7          	jalr	s3
     c70:	000a0493          	mv	s1,s4
     c74:	c2dff06f          	j	8a0 <vprintfmt+0x60>
     c78:	00a00413          	li	s0,10
     c7c:	00000a13          	li	s4,0
     c80:	cf1ff06f          	j	970 <vprintfmt+0x130>
     c84:	000c4503          	lbu	a0,0(s8)
     c88:	f60508e3          	beqz	a0,bf8 <vprintfmt+0x3b8>
     c8c:	fff00a13          	li	s4,-1
     c90:	f41ff06f          	j	bd0 <vprintfmt+0x390>
     c94:	dbc18c13          	addi	s8,gp,-580 # 4e54 <main+0xc88>
     c98:	ef5ff06f          	j	b8c <vprintfmt+0x34c>
     c9c:	00060e63          	beqz	a2,cb8 <vprintfmt+0x478>
     ca0:	00c12783          	lw	a5,12(sp)
     ca4:	0007a803          	lw	a6,0(a5)
     ca8:	00478793          	addi	a5,a5,4
     cac:	00f12623          	sw	a5,12(sp)
     cb0:	41f85793          	srai	a5,a6,0x1f
     cb4:	e81ff06f          	j	b34 <vprintfmt+0x2f4>
     cb8:	00c12703          	lw	a4,12(sp)
     cbc:	00072803          	lw	a6,0(a4)
     cc0:	00470713          	addi	a4,a4,4
     cc4:	00e12623          	sw	a4,12(sp)
     cc8:	41f85793          	srai	a5,a6,0x1f
     ccc:	e69ff06f          	j	b34 <vprintfmt+0x2f4>
     cd0:	00068513          	mv	a0,a3
     cd4:	00048713          	mv	a4,s1
     cd8:	da5ff06f          	j	a7c <vprintfmt+0x23c>
     cdc:	ca8cf8e3          	bleu	s0,s9,98c <vprintfmt+0x14c>
     ce0:	00100c13          	li	s8,1
     ce4:	fffb0413          	addi	s0,s6,-1
     ce8:	00000a13          	li	s4,0
     cec:	00000d13          	li	s10,0
     cf0:	cf6c4ae3          	blt	s8,s6,9e4 <vprintfmt+0x1a4>
     cf4:	d21ff06f          	j	a14 <vprintfmt+0x1d4>
     cf8:	f4061ae3          	bnez	a2,c4c <vprintfmt+0x40c>
     cfc:	00c12703          	lw	a4,12(sp)
     d00:	00000b93          	li	s7,0
     d04:	00072c83          	lw	s9,0(a4)
     d08:	00470713          	addi	a4,a4,4
     d0c:	00e12623          	sw	a4,12(sp)
     d10:	c61ff06f          	j	970 <vprintfmt+0x130>

00000d14 <tohost_exit>:
     d14:	00151513          	slli	a0,a0,0x1
     d18:	00156513          	ori	a0,a0,1
     d1c:	78051073          	csrw	mtohost,a0
     d20:	0000006f          	j	d20 <tohost_exit+0xc>

00000d24 <handle_trap>:
     d24:	ff010113          	addi	sp,sp,-16
     d28:	00200693          	li	a3,2
     d2c:	00812423          	sw	s0,8(sp)
     d30:	00112623          	sw	ra,12(sp)
     d34:	01010413          	addi	s0,sp,16
     d38:	0080076f          	jal	a4,d40 <handle_trap+0x1c>
     d3c:	0c002573          	csrr	a0,stats
     d40:	f8010113          	addi	sp,sp,-128
     d44:	0ad50663          	beq	a0,a3,df0 <handle_trap+0xcc>
     d48:	00800713          	li	a4,8
     d4c:	00e50a63          	beq	a0,a4,d60 <handle_trap+0x3c>
     d50:	000017b7          	lui	a5,0x1
     d54:	a7378793          	addi	a5,a5,-1421 # a73 <vprintfmt+0x233>
     d58:	78079073          	csrw	mtohost,a5
     d5c:	0000006f          	j	d5c <handle_trap+0x38>
     d60:	04462703          	lw	a4,68(a2)
     d64:	05d00693          	li	a3,93
     d68:	2ad70c63          	beq	a4,a3,1020 <handle_trap+0x2fc>
     d6c:	4d200693          	li	a3,1234
     d70:	08d70c63          	beq	a4,a3,e08 <handle_trap+0xe4>
     d74:	02862283          	lw	t0,40(a2)
     d78:	02c62503          	lw	a0,44(a2)
     d7c:	03062683          	lw	a3,48(a2)
     d80:	03f10793          	addi	a5,sp,63
     d84:	fc07f793          	andi	a5,a5,-64
     d88:	41f75f93          	srai	t6,a4,0x1f
     d8c:	41f2de93          	srai	t4,t0,0x1f
     d90:	41f55393          	srai	t2,a0,0x1f
     d94:	41f6d893          	srai	a7,a3,0x1f
     d98:	00e7a023          	sw	a4,0(a5)
     d9c:	01f7a223          	sw	t6,4(a5)
     da0:	0057a423          	sw	t0,8(a5)
     da4:	01d7a623          	sw	t4,12(a5)
     da8:	00a7a823          	sw	a0,16(a5)
     dac:	0077aa23          	sw	t2,20(a5)
     db0:	00d7ac23          	sw	a3,24(a5)
     db4:	0117ae23          	sw	a7,28(a5)
     db8:	0330000f          	fence	rw,rw
     dbc:	78079073          	csrw	mtohost,a5
     dc0:	00000713          	li	a4,0
     dc4:	781716f3          	csrrw	a3,mfromhost,a4
     dc8:	fe068ee3          	beqz	a3,dc4 <handle_trap+0xa0>
     dcc:	0007a703          	lw	a4,0(a5)
     dd0:	0047a783          	lw	a5,4(a5)
     dd4:	ff040113          	addi	sp,s0,-16
     dd8:	00c12083          	lw	ra,12(sp)
     ddc:	00458513          	addi	a0,a1,4
     de0:	00812403          	lw	s0,8(sp)
     de4:	02e62423          	sw	a4,40(a2)
     de8:	01010113          	addi	sp,sp,16
     dec:	00008067          	ret
     df0:	00072703          	lw	a4,0(a4)
     df4:	0005a783          	lw	a5,0(a1)
     df8:	00f777b3          	and	a5,a4,a5
     dfc:	f4f71ae3          	bne	a4,a5,d50 <handle_trap+0x2c>
     e00:	00000713          	li	a4,0
     e04:	fd1ff06f          	j	dd4 <handle_trap+0xb0>
     e08:	02862703          	lw	a4,40(a2)
     e0c:	00070463          	beqz	a4,e14 <handle_trap+0xf0>
     e10:	0c00e573          	csrrs	a0,stats,1
     e14:	c0002573          	rdcycle	a0
     e18:	000087b7          	lui	a5,0x8
     e1c:	ec878793          	addi	a5,a5,-312 # 7ec8 <counters>
     e20:	00071a63          	bnez	a4,e34 <handle_trap+0x110>
     e24:	0007a683          	lw	a3,0(a5)
     e28:	40d50533          	sub	a0,a0,a3
     e2c:	dc418693          	addi	a3,gp,-572 # 4e5c <main+0xc90>
     e30:	04d7a423          	sw	a3,72(a5)
     e34:	00a7a023          	sw	a0,0(a5)
     e38:	c0202573          	rdinstret	a0
     e3c:	00071a63          	bnez	a4,e50 <handle_trap+0x12c>
     e40:	0047a683          	lw	a3,4(a5)
     e44:	40d50533          	sub	a0,a0,a3
     e48:	dcc18693          	addi	a3,gp,-564 # 4e64 <main+0xc98>
     e4c:	04d7a623          	sw	a3,76(a5)
     e50:	00a7a223          	sw	a0,4(a5)
     e54:	cc002573          	csrr	a0,uarch0
     e58:	00071a63          	bnez	a4,e6c <handle_trap+0x148>
     e5c:	0087a683          	lw	a3,8(a5)
     e60:	40d50533          	sub	a0,a0,a3
     e64:	dd418693          	addi	a3,gp,-556 # 4e6c <main+0xca0>
     e68:	04d7a823          	sw	a3,80(a5)
     e6c:	00a7a423          	sw	a0,8(a5)
     e70:	cc102573          	csrr	a0,uarch1
     e74:	00071a63          	bnez	a4,e88 <handle_trap+0x164>
     e78:	00c7a683          	lw	a3,12(a5)
     e7c:	40d50533          	sub	a0,a0,a3
     e80:	ddc18693          	addi	a3,gp,-548 # 4e74 <main+0xca8>
     e84:	04d7aa23          	sw	a3,84(a5)
     e88:	00a7a623          	sw	a0,12(a5)
     e8c:	cc202573          	csrr	a0,uarch2
     e90:	00071a63          	bnez	a4,ea4 <handle_trap+0x180>
     e94:	0107a683          	lw	a3,16(a5)
     e98:	40d50533          	sub	a0,a0,a3
     e9c:	de418693          	addi	a3,gp,-540 # 4e7c <main+0xcb0>
     ea0:	04d7ac23          	sw	a3,88(a5)
     ea4:	00a7a823          	sw	a0,16(a5)
     ea8:	cc302573          	csrr	a0,uarch3
     eac:	00071a63          	bnez	a4,ec0 <handle_trap+0x19c>
     eb0:	0147a683          	lw	a3,20(a5)
     eb4:	40d50533          	sub	a0,a0,a3
     eb8:	dec18693          	addi	a3,gp,-532 # 4e84 <main+0xcb8>
     ebc:	04d7ae23          	sw	a3,92(a5)
     ec0:	00a7aa23          	sw	a0,20(a5)
     ec4:	cc402573          	csrr	a0,uarch4
     ec8:	00071a63          	bnez	a4,edc <handle_trap+0x1b8>
     ecc:	0187a683          	lw	a3,24(a5)
     ed0:	40d50533          	sub	a0,a0,a3
     ed4:	df418693          	addi	a3,gp,-524 # 4e8c <main+0xcc0>
     ed8:	06d7a023          	sw	a3,96(a5)
     edc:	00a7ac23          	sw	a0,24(a5)
     ee0:	cc502573          	csrr	a0,uarch5
     ee4:	00071a63          	bnez	a4,ef8 <handle_trap+0x1d4>
     ee8:	01c7a683          	lw	a3,28(a5)
     eec:	40d50533          	sub	a0,a0,a3
     ef0:	dfc18693          	addi	a3,gp,-516 # 4e94 <main+0xcc8>
     ef4:	06d7a223          	sw	a3,100(a5)
     ef8:	00a7ae23          	sw	a0,28(a5)
     efc:	cc602573          	csrr	a0,uarch6
     f00:	00071a63          	bnez	a4,f14 <handle_trap+0x1f0>
     f04:	0207a683          	lw	a3,32(a5)
     f08:	40d50533          	sub	a0,a0,a3
     f0c:	e0418693          	addi	a3,gp,-508 # 4e9c <main+0xcd0>
     f10:	06d7a423          	sw	a3,104(a5)
     f14:	02a7a023          	sw	a0,32(a5)
     f18:	cc702573          	csrr	a0,uarch7
     f1c:	00071a63          	bnez	a4,f30 <handle_trap+0x20c>
     f20:	0247a683          	lw	a3,36(a5)
     f24:	40d50533          	sub	a0,a0,a3
     f28:	e0c18693          	addi	a3,gp,-500 # 4ea4 <main+0xcd8>
     f2c:	06d7a623          	sw	a3,108(a5)
     f30:	02a7a223          	sw	a0,36(a5)
     f34:	cc802573          	csrr	a0,uarch8
     f38:	00071a63          	bnez	a4,f4c <handle_trap+0x228>
     f3c:	0287a683          	lw	a3,40(a5)
     f40:	40d50533          	sub	a0,a0,a3
     f44:	e1418693          	addi	a3,gp,-492 # 4eac <main+0xce0>
     f48:	06d7a823          	sw	a3,112(a5)
     f4c:	02a7a423          	sw	a0,40(a5)
     f50:	cc902573          	csrr	a0,uarch9
     f54:	00071a63          	bnez	a4,f68 <handle_trap+0x244>
     f58:	02c7a683          	lw	a3,44(a5)
     f5c:	40d50533          	sub	a0,a0,a3
     f60:	e1c18693          	addi	a3,gp,-484 # 4eb4 <main+0xce8>
     f64:	06d7aa23          	sw	a3,116(a5)
     f68:	02a7a623          	sw	a0,44(a5)
     f6c:	cca02573          	csrr	a0,uarch10
     f70:	00071a63          	bnez	a4,f84 <handle_trap+0x260>
     f74:	0307a683          	lw	a3,48(a5)
     f78:	40d50533          	sub	a0,a0,a3
     f7c:	e2418693          	addi	a3,gp,-476 # 4ebc <main+0xcf0>
     f80:	06d7ac23          	sw	a3,120(a5)
     f84:	02a7a823          	sw	a0,48(a5)
     f88:	ccb02573          	csrr	a0,uarch11
     f8c:	00071a63          	bnez	a4,fa0 <handle_trap+0x27c>
     f90:	0347a683          	lw	a3,52(a5)
     f94:	40d50533          	sub	a0,a0,a3
     f98:	e2c18693          	addi	a3,gp,-468 # 4ec4 <main+0xcf8>
     f9c:	06d7ae23          	sw	a3,124(a5)
     fa0:	02a7aa23          	sw	a0,52(a5)
     fa4:	ccc02573          	csrr	a0,uarch12
     fa8:	00071a63          	bnez	a4,fbc <handle_trap+0x298>
     fac:	0387a683          	lw	a3,56(a5)
     fb0:	40d50533          	sub	a0,a0,a3
     fb4:	e3418693          	addi	a3,gp,-460 # 4ecc <main+0xd00>
     fb8:	08d7a023          	sw	a3,128(a5)
     fbc:	02a7ac23          	sw	a0,56(a5)
     fc0:	ccd02573          	csrr	a0,uarch13
     fc4:	00071a63          	bnez	a4,fd8 <handle_trap+0x2b4>
     fc8:	03c7a683          	lw	a3,60(a5)
     fcc:	40d50533          	sub	a0,a0,a3
     fd0:	e3c18693          	addi	a3,gp,-452 # 4ed4 <main+0xd08>
     fd4:	08d7a223          	sw	a3,132(a5)
     fd8:	02a7ae23          	sw	a0,60(a5)
     fdc:	cce02573          	csrr	a0,uarch14
     fe0:	00071a63          	bnez	a4,ff4 <handle_trap+0x2d0>
     fe4:	0407a683          	lw	a3,64(a5)
     fe8:	40d50533          	sub	a0,a0,a3
     fec:	e4418693          	addi	a3,gp,-444 # 4edc <main+0xd10>
     ff0:	08d7a423          	sw	a3,136(a5)
     ff4:	04a7a023          	sw	a0,64(a5)
     ff8:	ccf02573          	csrr	a0,uarch15
     ffc:	02071663          	bnez	a4,1028 <handle_trap+0x304>
    1000:	0447a703          	lw	a4,68(a5)
    1004:	40e50533          	sub	a0,a0,a4
    1008:	e4c18713          	addi	a4,gp,-436 # 4ee4 <main+0xd18>
    100c:	08e7a623          	sw	a4,140(a5)
    1010:	04a7a223          	sw	a0,68(a5)
    1014:	0c00f573          	csrrc	a0,stats,1
    1018:	00000713          	li	a4,0
    101c:	db9ff06f          	j	dd4 <handle_trap+0xb0>
    1020:	02862503          	lw	a0,40(a2)
    1024:	cf1ff0ef          	jal	d14 <tohost_exit>
    1028:	04a7a223          	sw	a0,68(a5)
    102c:	00000713          	li	a4,0
    1030:	da5ff06f          	j	dd4 <handle_trap+0xb0>

00001034 <exit>:
    1034:	05d00893          	li	a7,93
    1038:	00000593          	li	a1,0
    103c:	00000613          	li	a2,0
    1040:	00000073          	ecall
    1044:	0000006f          	j	1044 <exit+0x10>

00001048 <setStats>:
    1048:	4d200893          	li	a7,1234
    104c:	00000593          	li	a1,0
    1050:	00000613          	li	a2,0
    1054:	00000073          	ecall
    1058:	00008067          	ret

0000105c <printstr>:
    105c:	ff010113          	addi	sp,sp,-16
    1060:	00812423          	sw	s0,8(sp)
    1064:	00112623          	sw	ra,12(sp)
    1068:	00050413          	mv	s0,a0
    106c:	57c000ef          	jal	15e8 <strlen>
    1070:	00050613          	mv	a2,a0
    1074:	04000893          	li	a7,64
    1078:	00100513          	li	a0,1
    107c:	00040593          	mv	a1,s0
    1080:	00000073          	ecall
    1084:	00c12083          	lw	ra,12(sp)
    1088:	00812403          	lw	s0,8(sp)
    108c:	01010113          	addi	sp,sp,16
    1090:	00008067          	ret

00001094 <thread_entry>:
    1094:	00050463          	beqz	a0,109c <thread_entry+0x8>
    1098:	0000006f          	j	1098 <thread_entry+0x4>
    109c:	00008067          	ret

000010a0 <printhex>:
    10a0:	fd010113          	addi	sp,sp,-48
    10a4:	02112623          	sw	ra,44(sp)
    10a8:	01b10693          	addi	a3,sp,27
    10ac:	00b10893          	addi	a7,sp,11
    10b0:	00900813          	li	a6,9
    10b4:	00f57613          	andi	a2,a0,15
    10b8:	00c83733          	sltu	a4,a6,a2
    10bc:	40e00733          	neg	a4,a4
    10c0:	02777793          	andi	a5,a4,39
    10c4:	03078793          	addi	a5,a5,48
    10c8:	00c787b3          	add	a5,a5,a2
    10cc:	01c59713          	slli	a4,a1,0x1c
    10d0:	00f68023          	sb	a5,0(a3)
    10d4:	00455513          	srli	a0,a0,0x4
    10d8:	fff68693          	addi	a3,a3,-1
    10dc:	00a76533          	or	a0,a4,a0
    10e0:	0045d593          	srli	a1,a1,0x4
    10e4:	fd1698e3          	bne	a3,a7,10b4 <printhex+0x14>
    10e8:	00c10513          	addi	a0,sp,12
    10ec:	00010e23          	sb	zero,28(sp)
    10f0:	4f8000ef          	jal	15e8 <strlen>
    10f4:	00050613          	mv	a2,a0
    10f8:	04000893          	li	a7,64
    10fc:	00100513          	li	a0,1
    1100:	00c10593          	addi	a1,sp,12
    1104:	00000073          	ecall
    1108:	02c12083          	lw	ra,44(sp)
    110c:	03010113          	addi	sp,sp,48
    1110:	00008067          	ret

00001114 <printf>:
    1114:	fc010113          	addi	sp,sp,-64
    1118:	02410293          	addi	t0,sp,36
    111c:	02c12423          	sw	a2,40(sp)
    1120:	00050613          	mv	a2,a0
    1124:	02b12223          	sw	a1,36(sp)
    1128:	02d12623          	sw	a3,44(sp)
    112c:	7dc00513          	li	a0,2012
    1130:	00028693          	mv	a3,t0
    1134:	00000593          	li	a1,0
    1138:	00112e23          	sw	ra,28(sp)
    113c:	02e12823          	sw	a4,48(sp)
    1140:	02f12a23          	sw	a5,52(sp)
    1144:	03012c23          	sw	a6,56(sp)
    1148:	03112e23          	sw	a7,60(sp)
    114c:	00512623          	sw	t0,12(sp)
    1150:	ef0ff0ef          	jal	840 <vprintfmt>
    1154:	01c12083          	lw	ra,28(sp)
    1158:	00000513          	li	a0,0
    115c:	04010113          	addi	sp,sp,64
    1160:	00008067          	ret

00001164 <sprintf>:
    1164:	fb010113          	addi	sp,sp,-80
    1168:	03810293          	addi	t0,sp,56
    116c:	02812423          	sw	s0,40(sp)
    1170:	00a12623          	sw	a0,12(sp)
    1174:	00050413          	mv	s0,a0
    1178:	00001537          	lui	a0,0x1
    117c:	02c12c23          	sw	a2,56(sp)
    1180:	02d12e23          	sw	a3,60(sp)
    1184:	00058613          	mv	a2,a1
    1188:	82850513          	addi	a0,a0,-2008 # 828 <sprintf_putch.2893>
    118c:	00c10593          	addi	a1,sp,12
    1190:	00028693          	mv	a3,t0
    1194:	02112623          	sw	ra,44(sp)
    1198:	04f12223          	sw	a5,68(sp)
    119c:	04e12023          	sw	a4,64(sp)
    11a0:	05012423          	sw	a6,72(sp)
    11a4:	05112623          	sw	a7,76(sp)
    11a8:	00512e23          	sw	t0,28(sp)
    11ac:	e94ff0ef          	jal	840 <vprintfmt>
    11b0:	00c12783          	lw	a5,12(sp)
    11b4:	00078023          	sb	zero,0(a5)
    11b8:	00c12503          	lw	a0,12(sp)
    11bc:	02c12083          	lw	ra,44(sp)
    11c0:	40850533          	sub	a0,a0,s0
    11c4:	02812403          	lw	s0,40(sp)
    11c8:	05010113          	addi	sp,sp,80
    11cc:	00008067          	ret

000011d0 <_init>:
    11d0:	fd010113          	addi	sp,sp,-48
    11d4:	02912223          	sw	s1,36(sp)
    11d8:	03212023          	sw	s2,32(sp)
    11dc:	00020913          	mv	s2,tp
    11e0:	00020493          	mv	s1,tp
    11e4:	409904b3          	sub	s1,s2,s1
    11e8:	01412c23          	sw	s4,24(sp)
    11ec:	00058a13          	mv	s4,a1
    11f0:	000085b7          	lui	a1,0x8
    11f4:	02112623          	sw	ra,44(sp)
    11f8:	02812423          	sw	s0,40(sp)
    11fc:	01312e23          	sw	s3,28(sp)
    1200:	03010413          	addi	s0,sp,48
    1204:	01512a23          	sw	s5,20(sp)
    1208:	01612823          	sw	s6,16(sp)
    120c:	01712623          	sw	s7,12(sp)
    1210:	00050993          	mv	s3,a0
    1214:	d8010113          	addi	sp,sp,-640
    1218:	00020513          	mv	a0,tp
    121c:	00048613          	mv	a2,s1
    1220:	f8058593          	addi	a1,a1,-128 # 7f80 <_end>
    1224:	00020b13          	mv	s6,tp
    1228:	0b0000ef          	jal	12d8 <memcpy>
    122c:	04420613          	addi	a2,tp,68 # 44 <_tbss_end>
    1230:	41260633          	sub	a2,a2,s2
    1234:	009b0533          	add	a0,s6,s1
    1238:	00000593          	li	a1,0
    123c:	1bc000ef          	jal	13f8 <memset>
    1240:	000084b7          	lui	s1,0x8
    1244:	000a0593          	mv	a1,s4
    1248:	00098513          	mv	a0,s3
    124c:	e49ff0ef          	jal	1094 <thread_entry>
    1250:	03f10a93          	addi	s5,sp,63
    1254:	00000593          	li	a1,0
    1258:	00000513          	li	a0,0
    125c:	ec848493          	addi	s1,s1,-312 # 7ec8 <counters>
    1260:	fc0afa93          	andi	s5,s5,-64
    1264:	769020ef          	jal	41cc <main>
    1268:	04848913          	addi	s2,s1,72
    126c:	00050b93          	mv	s7,a0
    1270:	00090993          	mv	s3,s2
    1274:	000a8a13          	mv	s4,s5
    1278:	0100006f          	j	1288 <_init+0xb8>
    127c:	00448493          	addi	s1,s1,4
    1280:	00490913          	addi	s2,s2,4
    1284:	03348663          	beq	s1,s3,12b0 <_init+0xe0>
    1288:	0004a683          	lw	a3,0(s1)
    128c:	fe0688e3          	beqz	a3,127c <_init+0xac>
    1290:	00092603          	lw	a2,0(s2)
    1294:	000a0513          	mv	a0,s4
    1298:	e6c18593          	addi	a1,gp,-404 # 4f04 <main+0xd38>
    129c:	ec9ff0ef          	jal	1164 <sprintf>
    12a0:	00448493          	addi	s1,s1,4
    12a4:	00aa0a33          	add	s4,s4,a0
    12a8:	00490913          	addi	s2,s2,4
    12ac:	fd349ee3          	bne	s1,s3,1288 <_init+0xb8>
    12b0:	034a8063          	beq	s5,s4,12d0 <_init+0x100>
    12b4:	000a8513          	mv	a0,s5
    12b8:	330000ef          	jal	15e8 <strlen>
    12bc:	00050613          	mv	a2,a0
    12c0:	04000893          	li	a7,64
    12c4:	00100513          	li	a0,1
    12c8:	000a8593          	mv	a1,s5
    12cc:	00000073          	ecall
    12d0:	000b8513          	mv	a0,s7
    12d4:	d61ff0ef          	jal	1034 <exit>

000012d8 <memcpy>:
    12d8:	00a5c7b3          	xor	a5,a1,a0
    12dc:	0037f793          	andi	a5,a5,3
    12e0:	00c508b3          	add	a7,a0,a2
    12e4:	0e079263          	bnez	a5,13c8 <memcpy+0xf0>
    12e8:	00300793          	li	a5,3
    12ec:	0ec7fe63          	bleu	a2,a5,13e8 <memcpy+0x110>
    12f0:	00357793          	andi	a5,a0,3
    12f4:	04079a63          	bnez	a5,1348 <memcpy+0x70>
    12f8:	ffc8f813          	andi	a6,a7,-4
    12fc:	fe080793          	addi	a5,a6,-32
    1300:	00050713          	mv	a4,a0
    1304:	06f56663          	bltu	a0,a5,1370 <memcpy+0x98>
    1308:	00058693          	mv	a3,a1
    130c:	00070793          	mv	a5,a4
    1310:	03077863          	bleu	a6,a4,1340 <memcpy+0x68>
    1314:	0006a603          	lw	a2,0(a3)
    1318:	00478793          	addi	a5,a5,4
    131c:	00468693          	addi	a3,a3,4
    1320:	fec7ae23          	sw	a2,-4(a5)
    1324:	ff07e8e3          	bltu	a5,a6,1314 <memcpy+0x3c>
    1328:	fff74793          	not	a5,a4
    132c:	01078833          	add	a6,a5,a6
    1330:	ffc87813          	andi	a6,a6,-4
    1334:	00480813          	addi	a6,a6,4
    1338:	01070733          	add	a4,a4,a6
    133c:	010585b3          	add	a1,a1,a6
    1340:	09176863          	bltu	a4,a7,13d0 <memcpy+0xf8>
    1344:	00008067          	ret
    1348:	00050713          	mv	a4,a0
    134c:	0005c683          	lbu	a3,0(a1)
    1350:	00170713          	addi	a4,a4,1
    1354:	00377793          	andi	a5,a4,3
    1358:	00158593          	addi	a1,a1,1
    135c:	fed70fa3          	sb	a3,-1(a4)
    1360:	fe0796e3          	bnez	a5,134c <memcpy+0x74>
    1364:	ffc8f813          	andi	a6,a7,-4
    1368:	fe080793          	addi	a5,a6,-32
    136c:	f8f77ee3          	bleu	a5,a4,1308 <memcpy+0x30>
    1370:	0005af83          	lw	t6,0(a1)
    1374:	0045af03          	lw	t5,4(a1)
    1378:	0085ae83          	lw	t4,8(a1)
    137c:	00c5ae03          	lw	t3,12(a1)
    1380:	0105a383          	lw	t2,16(a1)
    1384:	0145a303          	lw	t1,20(a1)
    1388:	0185a283          	lw	t0,24(a1)
    138c:	01c5a603          	lw	a2,28(a1)
    1390:	02458593          	addi	a1,a1,36
    1394:	02470713          	addi	a4,a4,36
    1398:	ffc5a683          	lw	a3,-4(a1)
    139c:	fdf72e23          	sw	t6,-36(a4)
    13a0:	ffe72023          	sw	t5,-32(a4)
    13a4:	ffd72223          	sw	t4,-28(a4)
    13a8:	ffc72423          	sw	t3,-24(a4)
    13ac:	fe772623          	sw	t2,-20(a4)
    13b0:	fe672823          	sw	t1,-16(a4)
    13b4:	fe572a23          	sw	t0,-12(a4)
    13b8:	fec72c23          	sw	a2,-8(a4)
    13bc:	fed72e23          	sw	a3,-4(a4)
    13c0:	faf768e3          	bltu	a4,a5,1370 <memcpy+0x98>
    13c4:	f45ff06f          	j	1308 <memcpy+0x30>
    13c8:	00050713          	mv	a4,a0
    13cc:	03157463          	bleu	a7,a0,13f4 <memcpy+0x11c>
    13d0:	0005c783          	lbu	a5,0(a1)
    13d4:	00170713          	addi	a4,a4,1
    13d8:	00158593          	addi	a1,a1,1
    13dc:	fef70fa3          	sb	a5,-1(a4)
    13e0:	ff1768e3          	bltu	a4,a7,13d0 <memcpy+0xf8>
    13e4:	00008067          	ret
    13e8:	00050713          	mv	a4,a0
    13ec:	ff1562e3          	bltu	a0,a7,13d0 <memcpy+0xf8>
    13f0:	f55ff06f          	j	1344 <memcpy+0x6c>
    13f4:	00008067          	ret

000013f8 <memset>:
    13f8:	00f00813          	li	a6,15
    13fc:	00050713          	mv	a4,a0
    1400:	02c87e63          	bleu	a2,a6,143c <memset+0x44>
    1404:	00f77793          	andi	a5,a4,15
    1408:	0a079063          	bnez	a5,14a8 <memset+0xb0>
    140c:	08059263          	bnez	a1,1490 <memset+0x98>
    1410:	ff067693          	andi	a3,a2,-16
    1414:	00f67613          	andi	a2,a2,15
    1418:	00e686b3          	add	a3,a3,a4
    141c:	00b72023          	sw	a1,0(a4)
    1420:	00b72223          	sw	a1,4(a4)
    1424:	00b72423          	sw	a1,8(a4)
    1428:	00b72623          	sw	a1,12(a4)
    142c:	01070713          	addi	a4,a4,16
    1430:	fed766e3          	bltu	a4,a3,141c <memset+0x24>
    1434:	00061463          	bnez	a2,143c <memset+0x44>
    1438:	00008067          	ret
    143c:	40c806b3          	sub	a3,a6,a2
    1440:	00269693          	slli	a3,a3,0x2
    1444:	00000297          	auipc	t0,0x0
    1448:	005686b3          	add	a3,a3,t0
    144c:	00c68067          	jr	a3,12
    1450:	00b70723          	sb	a1,14(a4)
    1454:	00b706a3          	sb	a1,13(a4)
    1458:	00b70623          	sb	a1,12(a4)
    145c:	00b705a3          	sb	a1,11(a4)
    1460:	00b70523          	sb	a1,10(a4)
    1464:	00b704a3          	sb	a1,9(a4)
    1468:	00b70423          	sb	a1,8(a4)
    146c:	00b703a3          	sb	a1,7(a4)
    1470:	00b70323          	sb	a1,6(a4)
    1474:	00b702a3          	sb	a1,5(a4)
    1478:	00b70223          	sb	a1,4(a4)
    147c:	00b701a3          	sb	a1,3(a4)
    1480:	00b70123          	sb	a1,2(a4)
    1484:	00b700a3          	sb	a1,1(a4)
    1488:	00b70023          	sb	a1,0(a4)
    148c:	00008067          	ret
    1490:	0ff5f593          	andi	a1,a1,255
    1494:	00859693          	slli	a3,a1,0x8
    1498:	00d5e5b3          	or	a1,a1,a3
    149c:	01059693          	slli	a3,a1,0x10
    14a0:	00d5e5b3          	or	a1,a1,a3
    14a4:	f6dff06f          	j	1410 <memset+0x18>
    14a8:	00279693          	slli	a3,a5,0x2
    14ac:	00000297          	auipc	t0,0x0
    14b0:	005686b3          	add	a3,a3,t0
    14b4:	00008293          	mv	t0,ra
    14b8:	fa0680e7          	jalr	a3,-96
    14bc:	00028093          	mv	ra,t0
    14c0:	ff078793          	addi	a5,a5,-16
    14c4:	40f70733          	sub	a4,a4,a5
    14c8:	00f60633          	add	a2,a2,a5
    14cc:	f6c878e3          	bleu	a2,a6,143c <memset+0x44>
    14d0:	f3dff06f          	j	140c <memset+0x14>

000014d4 <strcmp>:
    14d4:	00b56733          	or	a4,a0,a1
    14d8:	fff00393          	li	t2,-1
    14dc:	00377713          	andi	a4,a4,3
    14e0:	0c071063          	bnez	a4,15a0 <strcmp+0xcc>
    14e4:	7f7f8e37          	lui	t3,0x7f7f8
    14e8:	f7fe0e13          	addi	t3,t3,-129 # 7f7f7f7f <_end+0x7f7effff>
    14ec:	00052603          	lw	a2,0(a0)
    14f0:	0005a683          	lw	a3,0(a1)
    14f4:	01c672b3          	and	t0,a2,t3
    14f8:	01c66333          	or	t1,a2,t3
    14fc:	01c282b3          	add	t0,t0,t3
    1500:	0062e2b3          	or	t0,t0,t1
    1504:	0c729263          	bne	t0,t2,15c8 <strcmp+0xf4>
    1508:	04d61663          	bne	a2,a3,1554 <strcmp+0x80>
    150c:	00452603          	lw	a2,4(a0)
    1510:	0045a683          	lw	a3,4(a1)
    1514:	01c672b3          	and	t0,a2,t3
    1518:	01c66333          	or	t1,a2,t3
    151c:	01c282b3          	add	t0,t0,t3
    1520:	0062e2b3          	or	t0,t0,t1
    1524:	08729e63          	bne	t0,t2,15c0 <strcmp+0xec>
    1528:	02d61663          	bne	a2,a3,1554 <strcmp+0x80>
    152c:	00852603          	lw	a2,8(a0)
    1530:	0085a683          	lw	a3,8(a1)
    1534:	01c672b3          	and	t0,a2,t3
    1538:	01c66333          	or	t1,a2,t3
    153c:	01c282b3          	add	t0,t0,t3
    1540:	0062e2b3          	or	t0,t0,t1
    1544:	08729863          	bne	t0,t2,15d4 <strcmp+0x100>
    1548:	00c50513          	addi	a0,a0,12
    154c:	00c58593          	addi	a1,a1,12
    1550:	f8d60ee3          	beq	a2,a3,14ec <strcmp+0x18>
    1554:	01061713          	slli	a4,a2,0x10
    1558:	01069793          	slli	a5,a3,0x10
    155c:	00f71e63          	bne	a4,a5,1578 <strcmp+0xa4>
    1560:	01065713          	srli	a4,a2,0x10
    1564:	0106d793          	srli	a5,a3,0x10
    1568:	40f70533          	sub	a0,a4,a5
    156c:	0ff57593          	andi	a1,a0,255
    1570:	02059063          	bnez	a1,1590 <strcmp+0xbc>
    1574:	00008067          	ret
    1578:	01075713          	srli	a4,a4,0x10
    157c:	0107d793          	srli	a5,a5,0x10
    1580:	40f70533          	sub	a0,a4,a5
    1584:	0ff57593          	andi	a1,a0,255
    1588:	00059463          	bnez	a1,1590 <strcmp+0xbc>
    158c:	00008067          	ret
    1590:	0ff77713          	andi	a4,a4,255
    1594:	0ff7f793          	andi	a5,a5,255
    1598:	40f70533          	sub	a0,a4,a5
    159c:	00008067          	ret
    15a0:	00054603          	lbu	a2,0(a0)
    15a4:	0005c683          	lbu	a3,0(a1)
    15a8:	00150513          	addi	a0,a0,1
    15ac:	00158593          	addi	a1,a1,1
    15b0:	00d61463          	bne	a2,a3,15b8 <strcmp+0xe4>
    15b4:	fe0616e3          	bnez	a2,15a0 <strcmp+0xcc>
    15b8:	40d60533          	sub	a0,a2,a3
    15bc:	00008067          	ret
    15c0:	00450513          	addi	a0,a0,4
    15c4:	00458593          	addi	a1,a1,4
    15c8:	fcd61ce3          	bne	a2,a3,15a0 <strcmp+0xcc>
    15cc:	00000513          	li	a0,0
    15d0:	00008067          	ret
    15d4:	00850513          	addi	a0,a0,8
    15d8:	00858593          	addi	a1,a1,8
    15dc:	fcd612e3          	bne	a2,a3,15a0 <strcmp+0xcc>
    15e0:	00000513          	li	a0,0
    15e4:	00008067          	ret

000015e8 <strlen>:
    15e8:	00357793          	andi	a5,a0,3
    15ec:	00050593          	mv	a1,a0
    15f0:	04079a63          	bnez	a5,1644 <strlen+0x5c>
    15f4:	7f7f86b7          	lui	a3,0x7f7f8
    15f8:	f7f68693          	addi	a3,a3,-129 # 7f7f7f7f <_end+0x7f7effff>
    15fc:	fff00613          	li	a2,-1
    1600:	00450513          	addi	a0,a0,4
    1604:	ffc52783          	lw	a5,-4(a0)
    1608:	00d7f733          	and	a4,a5,a3
    160c:	00d70733          	add	a4,a4,a3
    1610:	00d7e7b3          	or	a5,a5,a3
    1614:	00f767b3          	or	a5,a4,a5
    1618:	fec784e3          	beq	a5,a2,1600 <strlen+0x18>
    161c:	ffc54703          	lbu	a4,-4(a0)
    1620:	40b507b3          	sub	a5,a0,a1
    1624:	ffd54683          	lbu	a3,-3(a0)
    1628:	ffe54603          	lbu	a2,-2(a0)
    162c:	02070e63          	beqz	a4,1668 <strlen+0x80>
    1630:	02068863          	beqz	a3,1660 <strlen+0x78>
    1634:	fff78513          	addi	a0,a5,-1
    1638:	02060c63          	beqz	a2,1670 <strlen+0x88>
    163c:	00008067          	ret
    1640:	fa070ae3          	beqz	a4,15f4 <strlen+0xc>
    1644:	00054783          	lbu	a5,0(a0)
    1648:	00150513          	addi	a0,a0,1
    164c:	00357713          	andi	a4,a0,3
    1650:	fe0798e3          	bnez	a5,1640 <strlen+0x58>
    1654:	40b50533          	sub	a0,a0,a1
    1658:	fff50513          	addi	a0,a0,-1
    165c:	00008067          	ret
    1660:	ffd78513          	addi	a0,a5,-3
    1664:	00008067          	ret
    1668:	ffc78513          	addi	a0,a5,-4
    166c:	00008067          	ret
    1670:	ffe78513          	addi	a0,a5,-2
    1674:	00008067          	ret

00001678 <strnlen>:
    1678:	02058e63          	beqz	a1,16b4 <strnlen+0x3c>
    167c:	00054783          	lbu	a5,0(a0)
    1680:	02078a63          	beqz	a5,16b4 <strnlen+0x3c>
    1684:	00150793          	addi	a5,a0,1
    1688:	00b505b3          	add	a1,a0,a1
    168c:	0100006f          	j	169c <strnlen+0x24>
    1690:	fff74683          	lbu	a3,-1(a4)
    1694:	00068c63          	beqz	a3,16ac <strnlen+0x34>
    1698:	00070793          	mv	a5,a4
    169c:	00178713          	addi	a4,a5,1
    16a0:	fef598e3          	bne	a1,a5,1690 <strnlen+0x18>
    16a4:	40a58533          	sub	a0,a1,a0
    16a8:	00008067          	ret
    16ac:	40a78533          	sub	a0,a5,a0
    16b0:	00008067          	ret
    16b4:	00000513          	li	a0,0
    16b8:	00008067          	ret

000016bc <__udivdi3>:
    16bc:	fd010113          	addi	sp,sp,-48
    16c0:	02912223          	sw	s1,36(sp)
    16c4:	01312e23          	sw	s3,28(sp)
    16c8:	01412c23          	sw	s4,24(sp)
    16cc:	02112623          	sw	ra,44(sp)
    16d0:	02812423          	sw	s0,40(sp)
    16d4:	03212023          	sw	s2,32(sp)
    16d8:	01512a23          	sw	s5,20(sp)
    16dc:	01612823          	sw	s6,16(sp)
    16e0:	01712623          	sw	s7,12(sp)
    16e4:	01812423          	sw	s8,8(sp)
    16e8:	01912223          	sw	s9,4(sp)
    16ec:	01a12023          	sw	s10,0(sp)
    16f0:	00050a13          	mv	s4,a0
    16f4:	00058493          	mv	s1,a1
    16f8:	00058993          	mv	s3,a1
    16fc:	10069e63          	bnez	a3,1818 <__udivdi3+0x15c>
    1700:	00060413          	mv	s0,a2
    1704:	00050913          	mv	s2,a0
    1708:	16c5f663          	bleu	a2,a1,1874 <__udivdi3+0x1b8>
    170c:	000107b7          	lui	a5,0x10
    1710:	2cf67e63          	bleu	a5,a2,19ec <__udivdi3+0x330>
    1714:	0ff00793          	li	a5,255
    1718:	00c7b7b3          	sltu	a5,a5,a2
    171c:	00379793          	slli	a5,a5,0x3
    1720:	00f656b3          	srl	a3,a2,a5
    1724:	fe818713          	addi	a4,gp,-24 # 5080 <__clz_tab>
    1728:	00e68733          	add	a4,a3,a4
    172c:	00074703          	lbu	a4,0(a4)
    1730:	00f707b3          	add	a5,a4,a5
    1734:	02000713          	li	a4,32
    1738:	40f70733          	sub	a4,a4,a5
    173c:	00070c63          	beqz	a4,1754 <__udivdi3+0x98>
    1740:	00e494b3          	sll	s1,s1,a4
    1744:	00fa57b3          	srl	a5,s4,a5
    1748:	00e61433          	sll	s0,a2,a4
    174c:	0097e9b3          	or	s3,a5,s1
    1750:	00ea1933          	sll	s2,s4,a4
    1754:	01045b13          	srli	s6,s0,0x10
    1758:	000b0593          	mv	a1,s6
    175c:	00098513          	mv	a0,s3
    1760:	48d010ef          	jal	33ec <__umodsi3>
    1764:	00050a13          	mv	s4,a0
    1768:	000b0593          	mv	a1,s6
    176c:	00098513          	mv	a0,s3
    1770:	01041b93          	slli	s7,s0,0x10
    1774:	431010ef          	jal	33a4 <__udivsi3>
    1778:	010bdb93          	srli	s7,s7,0x10
    177c:	00050593          	mv	a1,a0
    1780:	00050a93          	mv	s5,a0
    1784:	000b8513          	mv	a0,s7
    1788:	3f1010ef          	jal	3378 <__mulsi3>
    178c:	010a1a13          	slli	s4,s4,0x10
    1790:	01095793          	srli	a5,s2,0x10
    1794:	0147e7b3          	or	a5,a5,s4
    1798:	00a7fc63          	bleu	a0,a5,17b0 <__udivdi3+0xf4>
    179c:	008787b3          	add	a5,a5,s0
    17a0:	fffa8713          	addi	a4,s5,-1
    17a4:	0087e463          	bltu	a5,s0,17ac <__udivdi3+0xf0>
    17a8:	52a7e063          	bltu	a5,a0,1cc8 <__udivdi3+0x60c>
    17ac:	00070a93          	mv	s5,a4
    17b0:	40a784b3          	sub	s1,a5,a0
    17b4:	000b0593          	mv	a1,s6
    17b8:	00048513          	mv	a0,s1
    17bc:	431010ef          	jal	33ec <__umodsi3>
    17c0:	00050993          	mv	s3,a0
    17c4:	000b0593          	mv	a1,s6
    17c8:	00048513          	mv	a0,s1
    17cc:	3d9010ef          	jal	33a4 <__udivsi3>
    17d0:	01091913          	slli	s2,s2,0x10
    17d4:	00050593          	mv	a1,a0
    17d8:	00050493          	mv	s1,a0
    17dc:	01099993          	slli	s3,s3,0x10
    17e0:	000b8513          	mv	a0,s7
    17e4:	01095913          	srli	s2,s2,0x10
    17e8:	391010ef          	jal	3378 <__mulsi3>
    17ec:	01396933          	or	s2,s2,s3
    17f0:	00a97c63          	bleu	a0,s2,1808 <__udivdi3+0x14c>
    17f4:	01240933          	add	s2,s0,s2
    17f8:	fff48793          	addi	a5,s1,-1
    17fc:	44896e63          	bltu	s2,s0,1c58 <__udivdi3+0x59c>
    1800:	ffe48493          	addi	s1,s1,-2
    1804:	44a97a63          	bleu	a0,s2,1c58 <__udivdi3+0x59c>
    1808:	010a9513          	slli	a0,s5,0x10
    180c:	00956533          	or	a0,a0,s1
    1810:	00000a93          	li	s5,0
    1814:	17c0006f          	j	1990 <__udivdi3+0x2d4>
    1818:	00068793          	mv	a5,a3
    181c:	16d5e663          	bltu	a1,a3,1988 <__udivdi3+0x2cc>
    1820:	00010737          	lui	a4,0x10
    1824:	1ae6e463          	bltu	a3,a4,19cc <__udivdi3+0x310>
    1828:	01000737          	lui	a4,0x1000
    182c:	00e6b733          	sltu	a4,a3,a4
    1830:	00174713          	xori	a4,a4,1
    1834:	40e00733          	neg	a4,a4
    1838:	00877713          	andi	a4,a4,8
    183c:	01070713          	addi	a4,a4,16 # 1000010 <_end+0xff8090>
    1840:	00e6d533          	srl	a0,a3,a4
    1844:	fe818593          	addi	a1,gp,-24 # 5080 <__clz_tab>
    1848:	00b505b3          	add	a1,a0,a1
    184c:	0005c583          	lbu	a1,0(a1)
    1850:	02000a93          	li	s5,32
    1854:	00e58733          	add	a4,a1,a4
    1858:	40ea8ab3          	sub	s5,s5,a4
    185c:	1a0a9663          	bnez	s5,1a08 <__udivdi3+0x34c>
    1860:	00100513          	li	a0,1
    1864:	1337e663          	bltu	a5,s3,1990 <__udivdi3+0x2d4>
    1868:	00ca3533          	sltu	a0,s4,a2
    186c:	00154513          	xori	a0,a0,1
    1870:	1200006f          	j	1990 <__udivdi3+0x2d4>
    1874:	00061a63          	bnez	a2,1888 <__udivdi3+0x1cc>
    1878:	00000593          	li	a1,0
    187c:	00100513          	li	a0,1
    1880:	325010ef          	jal	33a4 <__udivsi3>
    1884:	00050413          	mv	s0,a0
    1888:	000107b7          	lui	a5,0x10
    188c:	14f46863          	bltu	s0,a5,19dc <__udivdi3+0x320>
    1890:	010007b7          	lui	a5,0x1000
    1894:	00f437b3          	sltu	a5,s0,a5
    1898:	0017c793          	xori	a5,a5,1
    189c:	40f007b3          	neg	a5,a5
    18a0:	0087f793          	andi	a5,a5,8
    18a4:	01078793          	addi	a5,a5,16 # 1000010 <_end+0xff8090>
    18a8:	00f456b3          	srl	a3,s0,a5
    18ac:	fe818713          	addi	a4,gp,-24 # 5080 <__clz_tab>
    18b0:	00e68733          	add	a4,a3,a4
    18b4:	00074703          	lbu	a4,0(a4)
    18b8:	00f707b3          	add	a5,a4,a5
    18bc:	02000713          	li	a4,32
    18c0:	40f70733          	sub	a4,a4,a5
    18c4:	2a071263          	bnez	a4,1b68 <__udivdi3+0x4ac>
    18c8:	01041b13          	slli	s6,s0,0x10
    18cc:	408484b3          	sub	s1,s1,s0
    18d0:	01045b93          	srli	s7,s0,0x10
    18d4:	010b5b13          	srli	s6,s6,0x10
    18d8:	00100a93          	li	s5,1
    18dc:	000b8593          	mv	a1,s7
    18e0:	00048513          	mv	a0,s1
    18e4:	309010ef          	jal	33ec <__umodsi3>
    18e8:	00050993          	mv	s3,a0
    18ec:	000b8593          	mv	a1,s7
    18f0:	00048513          	mv	a0,s1
    18f4:	2b1010ef          	jal	33a4 <__udivsi3>
    18f8:	000b0593          	mv	a1,s6
    18fc:	00050a13          	mv	s4,a0
    1900:	01099993          	slli	s3,s3,0x10
    1904:	275010ef          	jal	3378 <__mulsi3>
    1908:	01095793          	srli	a5,s2,0x10
    190c:	0137e7b3          	or	a5,a5,s3
    1910:	00a7fc63          	bleu	a0,a5,1928 <__udivdi3+0x26c>
    1914:	008787b3          	add	a5,a5,s0
    1918:	fffa0713          	addi	a4,s4,-1
    191c:	0087e463          	bltu	a5,s0,1924 <__udivdi3+0x268>
    1920:	38a7ee63          	bltu	a5,a0,1cbc <__udivdi3+0x600>
    1924:	00070a13          	mv	s4,a4
    1928:	40a784b3          	sub	s1,a5,a0
    192c:	000b8593          	mv	a1,s7
    1930:	00048513          	mv	a0,s1
    1934:	2b9010ef          	jal	33ec <__umodsi3>
    1938:	00050993          	mv	s3,a0
    193c:	000b8593          	mv	a1,s7
    1940:	00048513          	mv	a0,s1
    1944:	01091913          	slli	s2,s2,0x10
    1948:	25d010ef          	jal	33a4 <__udivsi3>
    194c:	01099993          	slli	s3,s3,0x10
    1950:	000b0593          	mv	a1,s6
    1954:	01095913          	srli	s2,s2,0x10
    1958:	00050493          	mv	s1,a0
    195c:	01396933          	or	s2,s2,s3
    1960:	219010ef          	jal	3378 <__mulsi3>
    1964:	00a97c63          	bleu	a0,s2,197c <__udivdi3+0x2c0>
    1968:	01240933          	add	s2,s0,s2
    196c:	fff48793          	addi	a5,s1,-1
    1970:	2e896063          	bltu	s2,s0,1c50 <__udivdi3+0x594>
    1974:	ffe48493          	addi	s1,s1,-2
    1978:	2ca97c63          	bleu	a0,s2,1c50 <__udivdi3+0x594>
    197c:	010a1513          	slli	a0,s4,0x10
    1980:	00956533          	or	a0,a0,s1
    1984:	00c0006f          	j	1990 <__udivdi3+0x2d4>
    1988:	00000a93          	li	s5,0
    198c:	00000513          	li	a0,0
    1990:	000a8593          	mv	a1,s5
    1994:	02c12083          	lw	ra,44(sp)
    1998:	02812403          	lw	s0,40(sp)
    199c:	02412483          	lw	s1,36(sp)
    19a0:	02012903          	lw	s2,32(sp)
    19a4:	01c12983          	lw	s3,28(sp)
    19a8:	01812a03          	lw	s4,24(sp)
    19ac:	01412a83          	lw	s5,20(sp)
    19b0:	01012b03          	lw	s6,16(sp)
    19b4:	00c12b83          	lw	s7,12(sp)
    19b8:	00812c03          	lw	s8,8(sp)
    19bc:	00412c83          	lw	s9,4(sp)
    19c0:	00012d03          	lw	s10,0(sp)
    19c4:	03010113          	addi	sp,sp,48
    19c8:	00008067          	ret
    19cc:	0ff00713          	li	a4,255
    19d0:	00d73733          	sltu	a4,a4,a3
    19d4:	00371713          	slli	a4,a4,0x3
    19d8:	e69ff06f          	j	1840 <__udivdi3+0x184>
    19dc:	0ff00793          	li	a5,255
    19e0:	0087b7b3          	sltu	a5,a5,s0
    19e4:	00379793          	slli	a5,a5,0x3
    19e8:	ec1ff06f          	j	18a8 <__udivdi3+0x1ec>
    19ec:	010007b7          	lui	a5,0x1000
    19f0:	00f637b3          	sltu	a5,a2,a5
    19f4:	0017c793          	xori	a5,a5,1
    19f8:	40f007b3          	neg	a5,a5
    19fc:	0087f793          	andi	a5,a5,8
    1a00:	01078793          	addi	a5,a5,16 # 1000010 <_end+0xff8090>
    1a04:	d1dff06f          	j	1720 <__udivdi3+0x64>
    1a08:	00e65cb3          	srl	s9,a2,a4
    1a0c:	015696b3          	sll	a3,a3,s5
    1a10:	0196ecb3          	or	s9,a3,s9
    1a14:	00e4d433          	srl	s0,s1,a4
    1a18:	010cd993          	srli	s3,s9,0x10
    1a1c:	00ea5733          	srl	a4,s4,a4
    1a20:	00098593          	mv	a1,s3
    1a24:	015494b3          	sll	s1,s1,s5
    1a28:	00040513          	mv	a0,s0
    1a2c:	009764b3          	or	s1,a4,s1
    1a30:	01561b33          	sll	s6,a2,s5
    1a34:	1b9010ef          	jal	33ec <__umodsi3>
    1a38:	00050913          	mv	s2,a0
    1a3c:	00098593          	mv	a1,s3
    1a40:	010c9c13          	slli	s8,s9,0x10
    1a44:	00040513          	mv	a0,s0
    1a48:	15d010ef          	jal	33a4 <__udivsi3>
    1a4c:	010c5c13          	srli	s8,s8,0x10
    1a50:	00050593          	mv	a1,a0
    1a54:	00050b93          	mv	s7,a0
    1a58:	000c0513          	mv	a0,s8
    1a5c:	11d010ef          	jal	3378 <__mulsi3>
    1a60:	01091913          	slli	s2,s2,0x10
    1a64:	0104d793          	srli	a5,s1,0x10
    1a68:	0127e7b3          	or	a5,a5,s2
    1a6c:	00a7fa63          	bleu	a0,a5,1a80 <__udivdi3+0x3c4>
    1a70:	019787b3          	add	a5,a5,s9
    1a74:	fffb8713          	addi	a4,s7,-1
    1a78:	2397f263          	bleu	s9,a5,1c9c <__udivdi3+0x5e0>
    1a7c:	00070b93          	mv	s7,a4
    1a80:	40a78433          	sub	s0,a5,a0
    1a84:	00098593          	mv	a1,s3
    1a88:	00040513          	mv	a0,s0
    1a8c:	161010ef          	jal	33ec <__umodsi3>
    1a90:	00050913          	mv	s2,a0
    1a94:	00098593          	mv	a1,s3
    1a98:	00040513          	mv	a0,s0
    1a9c:	109010ef          	jal	33a4 <__udivsi3>
    1aa0:	01049493          	slli	s1,s1,0x10
    1aa4:	00050593          	mv	a1,a0
    1aa8:	00050413          	mv	s0,a0
    1aac:	01091913          	slli	s2,s2,0x10
    1ab0:	000c0513          	mv	a0,s8
    1ab4:	0104d493          	srli	s1,s1,0x10
    1ab8:	0c1010ef          	jal	3378 <__mulsi3>
    1abc:	0124e4b3          	or	s1,s1,s2
    1ac0:	00050793          	mv	a5,a0
    1ac4:	00a4fa63          	bleu	a0,s1,1ad8 <__udivdi3+0x41c>
    1ac8:	019484b3          	add	s1,s1,s9
    1acc:	fff40713          	addi	a4,s0,-1
    1ad0:	1b94fe63          	bleu	s9,s1,1c8c <__udivdi3+0x5d0>
    1ad4:	00070413          	mv	s0,a4
    1ad8:	010b9b93          	slli	s7,s7,0x10
    1adc:	00010cb7          	lui	s9,0x10
    1ae0:	008bebb3          	or	s7,s7,s0
    1ae4:	fffc8413          	addi	s0,s9,-1 # ffff <_end+0x807f>
    1ae8:	008bf9b3          	and	s3,s7,s0
    1aec:	008b7433          	and	s0,s6,s0
    1af0:	00040593          	mv	a1,s0
    1af4:	00098513          	mv	a0,s3
    1af8:	40f484b3          	sub	s1,s1,a5
    1afc:	010bdc13          	srli	s8,s7,0x10
    1b00:	079010ef          	jal	3378 <__mulsi3>
    1b04:	00050d13          	mv	s10,a0
    1b08:	00040593          	mv	a1,s0
    1b0c:	000c0513          	mv	a0,s8
    1b10:	069010ef          	jal	3378 <__mulsi3>
    1b14:	010b5b13          	srli	s6,s6,0x10
    1b18:	00050913          	mv	s2,a0
    1b1c:	000b0593          	mv	a1,s6
    1b20:	000c0513          	mv	a0,s8
    1b24:	055010ef          	jal	3378 <__mulsi3>
    1b28:	00050413          	mv	s0,a0
    1b2c:	000b0593          	mv	a1,s6
    1b30:	00098513          	mv	a0,s3
    1b34:	045010ef          	jal	3378 <__mulsi3>
    1b38:	01250533          	add	a0,a0,s2
    1b3c:	010d5793          	srli	a5,s10,0x10
    1b40:	00a787b3          	add	a5,a5,a0
    1b44:	0127f463          	bleu	s2,a5,1b4c <__udivdi3+0x490>
    1b48:	01940433          	add	s0,s0,s9
    1b4c:	0107d513          	srli	a0,a5,0x10
    1b50:	00850533          	add	a0,a0,s0
    1b54:	12a4e663          	bltu	s1,a0,1c80 <__udivdi3+0x5c4>
    1b58:	10a48463          	beq	s1,a0,1c60 <__udivdi3+0x5a4>
    1b5c:	000b8513          	mv	a0,s7
    1b60:	00000a93          	li	s5,0
    1b64:	e2dff06f          	j	1990 <__udivdi3+0x2d4>
    1b68:	00e41433          	sll	s0,s0,a4
    1b6c:	00f4dab3          	srl	s5,s1,a5
    1b70:	01045993          	srli	s3,s0,0x10
    1b74:	00e494b3          	sll	s1,s1,a4
    1b78:	00fa57b3          	srl	a5,s4,a5
    1b7c:	00098593          	mv	a1,s3
    1b80:	000a8513          	mv	a0,s5
    1b84:	00ea1933          	sll	s2,s4,a4
    1b88:	0097ec33          	or	s8,a5,s1
    1b8c:	061010ef          	jal	33ec <__umodsi3>
    1b90:	00050a13          	mv	s4,a0
    1b94:	00098593          	mv	a1,s3
    1b98:	01041b13          	slli	s6,s0,0x10
    1b9c:	000a8513          	mv	a0,s5
    1ba0:	005010ef          	jal	33a4 <__udivsi3>
    1ba4:	010b5b13          	srli	s6,s6,0x10
    1ba8:	00050593          	mv	a1,a0
    1bac:	00050c93          	mv	s9,a0
    1bb0:	000b0513          	mv	a0,s6
    1bb4:	7c4010ef          	jal	3378 <__mulsi3>
    1bb8:	010a1a13          	slli	s4,s4,0x10
    1bbc:	010c5713          	srli	a4,s8,0x10
    1bc0:	01476733          	or	a4,a4,s4
    1bc4:	00a77e63          	bleu	a0,a4,1be0 <__udivdi3+0x524>
    1bc8:	00870733          	add	a4,a4,s0
    1bcc:	fffc8793          	addi	a5,s9,-1
    1bd0:	0e876263          	bltu	a4,s0,1cb4 <__udivdi3+0x5f8>
    1bd4:	0ea77063          	bleu	a0,a4,1cb4 <__udivdi3+0x5f8>
    1bd8:	ffec8c93          	addi	s9,s9,-2
    1bdc:	00870733          	add	a4,a4,s0
    1be0:	40a70bb3          	sub	s7,a4,a0
    1be4:	00098593          	mv	a1,s3
    1be8:	000b8513          	mv	a0,s7
    1bec:	001010ef          	jal	33ec <__umodsi3>
    1bf0:	00050a13          	mv	s4,a0
    1bf4:	00098593          	mv	a1,s3
    1bf8:	000b8513          	mv	a0,s7
    1bfc:	7a8010ef          	jal	33a4 <__udivsi3>
    1c00:	00050593          	mv	a1,a0
    1c04:	00050a93          	mv	s5,a0
    1c08:	000b0513          	mv	a0,s6
    1c0c:	76c010ef          	jal	3378 <__mulsi3>
    1c10:	010c1793          	slli	a5,s8,0x10
    1c14:	010a1a13          	slli	s4,s4,0x10
    1c18:	0107d793          	srli	a5,a5,0x10
    1c1c:	0147e7b3          	or	a5,a5,s4
    1c20:	00a7fe63          	bleu	a0,a5,1c3c <__udivdi3+0x580>
    1c24:	008787b3          	add	a5,a5,s0
    1c28:	fffa8713          	addi	a4,s5,-1
    1c2c:	0887e063          	bltu	a5,s0,1cac <__udivdi3+0x5f0>
    1c30:	06a7fe63          	bleu	a0,a5,1cac <__udivdi3+0x5f0>
    1c34:	ffea8a93          	addi	s5,s5,-2
    1c38:	008787b3          	add	a5,a5,s0
    1c3c:	010c9c93          	slli	s9,s9,0x10
    1c40:	40a784b3          	sub	s1,a5,a0
    1c44:	015ceab3          	or	s5,s9,s5
    1c48:	00098b93          	mv	s7,s3
    1c4c:	c91ff06f          	j	18dc <__udivdi3+0x220>
    1c50:	00078493          	mv	s1,a5
    1c54:	d29ff06f          	j	197c <__udivdi3+0x2c0>
    1c58:	00078493          	mv	s1,a5
    1c5c:	badff06f          	j	1808 <__udivdi3+0x14c>
    1c60:	000106b7          	lui	a3,0x10
    1c64:	fff68693          	addi	a3,a3,-1 # ffff <_end+0x807f>
    1c68:	00d7f7b3          	and	a5,a5,a3
    1c6c:	01079713          	slli	a4,a5,0x10
    1c70:	00dd77b3          	and	a5,s10,a3
    1c74:	015a1a33          	sll	s4,s4,s5
    1c78:	00f707b3          	add	a5,a4,a5
    1c7c:	eefa70e3          	bleu	a5,s4,1b5c <__udivdi3+0x4a0>
    1c80:	fffb8513          	addi	a0,s7,-1
    1c84:	00000a93          	li	s5,0
    1c88:	d09ff06f          	j	1990 <__udivdi3+0x2d4>
    1c8c:	e4a4f4e3          	bleu	a0,s1,1ad4 <__udivdi3+0x418>
    1c90:	ffe40413          	addi	s0,s0,-2
    1c94:	019484b3          	add	s1,s1,s9
    1c98:	e41ff06f          	j	1ad8 <__udivdi3+0x41c>
    1c9c:	dea7f0e3          	bleu	a0,a5,1a7c <__udivdi3+0x3c0>
    1ca0:	ffeb8b93          	addi	s7,s7,-2
    1ca4:	019787b3          	add	a5,a5,s9
    1ca8:	dd9ff06f          	j	1a80 <__udivdi3+0x3c4>
    1cac:	00070a93          	mv	s5,a4
    1cb0:	f8dff06f          	j	1c3c <__udivdi3+0x580>
    1cb4:	00078c93          	mv	s9,a5
    1cb8:	f29ff06f          	j	1be0 <__udivdi3+0x524>
    1cbc:	ffea0a13          	addi	s4,s4,-2
    1cc0:	008787b3          	add	a5,a5,s0
    1cc4:	c65ff06f          	j	1928 <__udivdi3+0x26c>
    1cc8:	ffea8a93          	addi	s5,s5,-2
    1ccc:	008787b3          	add	a5,a5,s0
    1cd0:	ae1ff06f          	j	17b0 <__udivdi3+0xf4>

00001cd4 <__umoddi3>:
    1cd4:	fb010113          	addi	sp,sp,-80
    1cd8:	04812423          	sw	s0,72(sp)
    1cdc:	04912223          	sw	s1,68(sp)
    1ce0:	05212023          	sw	s2,64(sp)
    1ce4:	03312e23          	sw	s3,60(sp)
    1ce8:	03512a23          	sw	s5,52(sp)
    1cec:	04112623          	sw	ra,76(sp)
    1cf0:	03412c23          	sw	s4,56(sp)
    1cf4:	03612823          	sw	s6,48(sp)
    1cf8:	03712623          	sw	s7,44(sp)
    1cfc:	03812423          	sw	s8,40(sp)
    1d00:	03912223          	sw	s9,36(sp)
    1d04:	03a12023          	sw	s10,32(sp)
    1d08:	01b12e23          	sw	s11,28(sp)
    1d0c:	00058493          	mv	s1,a1
    1d10:	00050413          	mv	s0,a0
    1d14:	00060913          	mv	s2,a2
    1d18:	00050993          	mv	s3,a0
    1d1c:	00058a93          	mv	s5,a1
    1d20:	0c069863          	bnez	a3,1df0 <__umoddi3+0x11c>
    1d24:	12c5fc63          	bleu	a2,a1,1e5c <__umoddi3+0x188>
    1d28:	000107b7          	lui	a5,0x10
    1d2c:	28f67863          	bleu	a5,a2,1fbc <__umoddi3+0x2e8>
    1d30:	0ff00793          	li	a5,255
    1d34:	00c7b7b3          	sltu	a5,a5,a2
    1d38:	00379793          	slli	a5,a5,0x3
    1d3c:	00f656b3          	srl	a3,a2,a5
    1d40:	fe818713          	addi	a4,gp,-24 # 5080 <__clz_tab>
    1d44:	00e68733          	add	a4,a3,a4
    1d48:	00074583          	lbu	a1,0(a4)
    1d4c:	02000513          	li	a0,32
    1d50:	00f587b3          	add	a5,a1,a5
    1d54:	40f50a33          	sub	s4,a0,a5
    1d58:	000a0c63          	beqz	s4,1d70 <__umoddi3+0x9c>
    1d5c:	014495b3          	sll	a1,s1,s4
    1d60:	00f457b3          	srl	a5,s0,a5
    1d64:	01461933          	sll	s2,a2,s4
    1d68:	00b7eab3          	or	s5,a5,a1
    1d6c:	014419b3          	sll	s3,s0,s4
    1d70:	01095b13          	srli	s6,s2,0x10
    1d74:	000b0593          	mv	a1,s6
    1d78:	000a8513          	mv	a0,s5
    1d7c:	670010ef          	jal	33ec <__umodsi3>
    1d80:	00050493          	mv	s1,a0
    1d84:	000b0593          	mv	a1,s6
    1d88:	000a8513          	mv	a0,s5
    1d8c:	01091a93          	slli	s5,s2,0x10
    1d90:	614010ef          	jal	33a4 <__udivsi3>
    1d94:	010ada93          	srli	s5,s5,0x10
    1d98:	00050593          	mv	a1,a0
    1d9c:	000a8513          	mv	a0,s5
    1da0:	5d8010ef          	jal	3378 <__mulsi3>
    1da4:	01049493          	slli	s1,s1,0x10
    1da8:	0109d793          	srli	a5,s3,0x10
    1dac:	0097e7b3          	or	a5,a5,s1
    1db0:	00a7fa63          	bleu	a0,a5,1dc4 <__umoddi3+0xf0>
    1db4:	012787b3          	add	a5,a5,s2
    1db8:	0127e663          	bltu	a5,s2,1dc4 <__umoddi3+0xf0>
    1dbc:	00a7f463          	bleu	a0,a5,1dc4 <__umoddi3+0xf0>
    1dc0:	012787b3          	add	a5,a5,s2
    1dc4:	40a78433          	sub	s0,a5,a0
    1dc8:	000b0593          	mv	a1,s6
    1dcc:	00040513          	mv	a0,s0
    1dd0:	61c010ef          	jal	33ec <__umodsi3>
    1dd4:	00050493          	mv	s1,a0
    1dd8:	000b0593          	mv	a1,s6
    1ddc:	00040513          	mv	a0,s0
    1de0:	5c4010ef          	jal	33a4 <__udivsi3>
    1de4:	00050593          	mv	a1,a0
    1de8:	000a8513          	mv	a0,s5
    1dec:	1380006f          	j	1f24 <__umoddi3+0x250>
    1df0:	16d5e663          	bltu	a1,a3,1f5c <__umoddi3+0x288>
    1df4:	000107b7          	lui	a5,0x10
    1df8:	00068813          	mv	a6,a3
    1dfc:	1af6e063          	bltu	a3,a5,1f9c <__umoddi3+0x2c8>
    1e00:	01000737          	lui	a4,0x1000
    1e04:	00e6b733          	sltu	a4,a3,a4
    1e08:	00174713          	xori	a4,a4,1
    1e0c:	40e00733          	neg	a4,a4
    1e10:	00877713          	andi	a4,a4,8
    1e14:	01070713          	addi	a4,a4,16 # 1000010 <_end+0xff8090>
    1e18:	00e6d5b3          	srl	a1,a3,a4
    1e1c:	fe818793          	addi	a5,gp,-24 # 5080 <__clz_tab>
    1e20:	00f587b3          	add	a5,a1,a5
    1e24:	0007cb03          	lbu	s6,0(a5) # 10000 <_end+0x8080>
    1e28:	02000593          	li	a1,32
    1e2c:	00eb0b33          	add	s6,s6,a4
    1e30:	41658a33          	sub	s4,a1,s6
    1e34:	1a0a1263          	bnez	s4,1fd8 <__umoddi3+0x304>
    1e38:	01586663          	bltu	a6,s5,1e44 <__umoddi3+0x170>
    1e3c:	00040513          	mv	a0,s0
    1e40:	0129ea63          	bltu	s3,s2,1e54 <__umoddi3+0x180>
    1e44:	40c40533          	sub	a0,s0,a2
    1e48:	40d486b3          	sub	a3,s1,a3
    1e4c:	00a43433          	sltu	s0,s0,a0
    1e50:	40868ab3          	sub	s5,a3,s0
    1e54:	000a8593          	mv	a1,s5
    1e58:	1080006f          	j	1f60 <__umoddi3+0x28c>
    1e5c:	00061a63          	bnez	a2,1e70 <__umoddi3+0x19c>
    1e60:	00000593          	li	a1,0
    1e64:	00100513          	li	a0,1
    1e68:	53c010ef          	jal	33a4 <__udivsi3>
    1e6c:	00050913          	mv	s2,a0
    1e70:	000107b7          	lui	a5,0x10
    1e74:	12f96c63          	bltu	s2,a5,1fac <__umoddi3+0x2d8>
    1e78:	010007b7          	lui	a5,0x1000
    1e7c:	00f937b3          	sltu	a5,s2,a5
    1e80:	0017c793          	xori	a5,a5,1
    1e84:	40f007b3          	neg	a5,a5
    1e88:	0087f793          	andi	a5,a5,8
    1e8c:	01078793          	addi	a5,a5,16 # 1000010 <_end+0xff8090>
    1e90:	00f956b3          	srl	a3,s2,a5
    1e94:	fe818713          	addi	a4,gp,-24 # 5080 <__clz_tab>
    1e98:	00e68733          	add	a4,a3,a4
    1e9c:	00074703          	lbu	a4,0(a4)
    1ea0:	02000513          	li	a0,32
    1ea4:	00f707b3          	add	a5,a4,a5
    1ea8:	40f50a33          	sub	s4,a0,a5
    1eac:	2c0a1663          	bnez	s4,2178 <__umoddi3+0x4a4>
    1eb0:	01091b93          	slli	s7,s2,0x10
    1eb4:	412484b3          	sub	s1,s1,s2
    1eb8:	01095b13          	srli	s6,s2,0x10
    1ebc:	010bdb93          	srli	s7,s7,0x10
    1ec0:	000b0593          	mv	a1,s6
    1ec4:	00048513          	mv	a0,s1
    1ec8:	524010ef          	jal	33ec <__umodsi3>
    1ecc:	00050a93          	mv	s5,a0
    1ed0:	000b0593          	mv	a1,s6
    1ed4:	00048513          	mv	a0,s1
    1ed8:	4cc010ef          	jal	33a4 <__udivsi3>
    1edc:	000b8593          	mv	a1,s7
    1ee0:	498010ef          	jal	3378 <__mulsi3>
    1ee4:	010a9a93          	slli	s5,s5,0x10
    1ee8:	0109d793          	srli	a5,s3,0x10
    1eec:	0157e7b3          	or	a5,a5,s5
    1ef0:	00a7f863          	bleu	a0,a5,1f00 <__umoddi3+0x22c>
    1ef4:	012787b3          	add	a5,a5,s2
    1ef8:	0127e463          	bltu	a5,s2,1f00 <__umoddi3+0x22c>
    1efc:	36a7ee63          	bltu	a5,a0,2278 <__umoddi3+0x5a4>
    1f00:	40a78433          	sub	s0,a5,a0
    1f04:	000b0593          	mv	a1,s6
    1f08:	00040513          	mv	a0,s0
    1f0c:	4e0010ef          	jal	33ec <__umodsi3>
    1f10:	00050493          	mv	s1,a0
    1f14:	000b0593          	mv	a1,s6
    1f18:	00040513          	mv	a0,s0
    1f1c:	488010ef          	jal	33a4 <__udivsi3>
    1f20:	000b8593          	mv	a1,s7
    1f24:	454010ef          	jal	3378 <__mulsi3>
    1f28:	01099793          	slli	a5,s3,0x10
    1f2c:	01049493          	slli	s1,s1,0x10
    1f30:	0107d793          	srli	a5,a5,0x10
    1f34:	0097e7b3          	or	a5,a5,s1
    1f38:	00a7fa63          	bleu	a0,a5,1f4c <__umoddi3+0x278>
    1f3c:	012787b3          	add	a5,a5,s2
    1f40:	0127e663          	bltu	a5,s2,1f4c <__umoddi3+0x278>
    1f44:	00a7f463          	bleu	a0,a5,1f4c <__umoddi3+0x278>
    1f48:	012787b3          	add	a5,a5,s2
    1f4c:	40a78533          	sub	a0,a5,a0
    1f50:	01455533          	srl	a0,a0,s4
    1f54:	00000593          	li	a1,0
    1f58:	0080006f          	j	1f60 <__umoddi3+0x28c>
    1f5c:	00040513          	mv	a0,s0
    1f60:	04c12083          	lw	ra,76(sp)
    1f64:	04812403          	lw	s0,72(sp)
    1f68:	04412483          	lw	s1,68(sp)
    1f6c:	04012903          	lw	s2,64(sp)
    1f70:	03c12983          	lw	s3,60(sp)
    1f74:	03812a03          	lw	s4,56(sp)
    1f78:	03412a83          	lw	s5,52(sp)
    1f7c:	03012b03          	lw	s6,48(sp)
    1f80:	02c12b83          	lw	s7,44(sp)
    1f84:	02812c03          	lw	s8,40(sp)
    1f88:	02412c83          	lw	s9,36(sp)
    1f8c:	02012d03          	lw	s10,32(sp)
    1f90:	01c12d83          	lw	s11,28(sp)
    1f94:	05010113          	addi	sp,sp,80
    1f98:	00008067          	ret
    1f9c:	0ff00713          	li	a4,255
    1fa0:	00d73733          	sltu	a4,a4,a3
    1fa4:	00371713          	slli	a4,a4,0x3
    1fa8:	e71ff06f          	j	1e18 <__umoddi3+0x144>
    1fac:	0ff00793          	li	a5,255
    1fb0:	0127b7b3          	sltu	a5,a5,s2
    1fb4:	00379793          	slli	a5,a5,0x3
    1fb8:	ed9ff06f          	j	1e90 <__umoddi3+0x1bc>
    1fbc:	010007b7          	lui	a5,0x1000
    1fc0:	00f637b3          	sltu	a5,a2,a5
    1fc4:	0017c793          	xori	a5,a5,1
    1fc8:	40f007b3          	neg	a5,a5
    1fcc:	0087f793          	andi	a5,a5,8
    1fd0:	01078793          	addi	a5,a5,16 # 1000010 <_end+0xff8090>
    1fd4:	d69ff06f          	j	1d3c <__umoddi3+0x68>
    1fd8:	016659b3          	srl	s3,a2,s6
    1fdc:	014696b3          	sll	a3,a3,s4
    1fe0:	0136e9b3          	or	s3,a3,s3
    1fe4:	0164dab3          	srl	s5,s1,s6
    1fe8:	0109db93          	srli	s7,s3,0x10
    1fec:	014496b3          	sll	a3,s1,s4
    1ff0:	000b8593          	mv	a1,s7
    1ff4:	016454b3          	srl	s1,s0,s6
    1ff8:	000a8513          	mv	a0,s5
    1ffc:	00d4e4b3          	or	s1,s1,a3
    2000:	01461933          	sll	s2,a2,s4
    2004:	3e8010ef          	jal	33ec <__umodsi3>
    2008:	00050c13          	mv	s8,a0
    200c:	000b8593          	mv	a1,s7
    2010:	01099c93          	slli	s9,s3,0x10
    2014:	000a8513          	mv	a0,s5
    2018:	38c010ef          	jal	33a4 <__udivsi3>
    201c:	010cdc93          	srli	s9,s9,0x10
    2020:	00050593          	mv	a1,a0
    2024:	00050d13          	mv	s10,a0
    2028:	000c8513          	mv	a0,s9
    202c:	34c010ef          	jal	3378 <__mulsi3>
    2030:	010c1c13          	slli	s8,s8,0x10
    2034:	0104d793          	srli	a5,s1,0x10
    2038:	0187e7b3          	or	a5,a5,s8
    203c:	01441433          	sll	s0,s0,s4
    2040:	00a7fa63          	bleu	a0,a5,2054 <__umoddi3+0x380>
    2044:	013787b3          	add	a5,a5,s3
    2048:	fffd0713          	addi	a4,s10,-1
    204c:	2137fe63          	bleu	s3,a5,2268 <__umoddi3+0x594>
    2050:	00070d13          	mv	s10,a4
    2054:	40a78ab3          	sub	s5,a5,a0
    2058:	000b8593          	mv	a1,s7
    205c:	000a8513          	mv	a0,s5
    2060:	38c010ef          	jal	33ec <__umodsi3>
    2064:	00050c13          	mv	s8,a0
    2068:	000b8593          	mv	a1,s7
    206c:	000a8513          	mv	a0,s5
    2070:	334010ef          	jal	33a4 <__udivsi3>
    2074:	00050593          	mv	a1,a0
    2078:	00050a93          	mv	s5,a0
    207c:	000c8513          	mv	a0,s9
    2080:	2f8010ef          	jal	3378 <__mulsi3>
    2084:	01049693          	slli	a3,s1,0x10
    2088:	010c1c13          	slli	s8,s8,0x10
    208c:	0106d693          	srli	a3,a3,0x10
    2090:	0186e4b3          	or	s1,a3,s8
    2094:	00050793          	mv	a5,a0
    2098:	00a4fa63          	bleu	a0,s1,20ac <__umoddi3+0x3d8>
    209c:	013484b3          	add	s1,s1,s3
    20a0:	fffa8713          	addi	a4,s5,-1
    20a4:	1b34fa63          	bleu	s3,s1,2258 <__umoddi3+0x584>
    20a8:	00070a93          	mv	s5,a4
    20ac:	00010737          	lui	a4,0x10
    20b0:	010d1d13          	slli	s10,s10,0x10
    20b4:	fff70b93          	addi	s7,a4,-1 # ffff <_end+0x807f>
    20b8:	015d6ab3          	or	s5,s10,s5
    20bc:	017afdb3          	and	s11,s5,s7
    20c0:	01797bb3          	and	s7,s2,s7
    20c4:	000b8593          	mv	a1,s7
    20c8:	000d8513          	mv	a0,s11
    20cc:	00e12623          	sw	a4,12(sp)
    20d0:	40f484b3          	sub	s1,s1,a5
    20d4:	010ada93          	srli	s5,s5,0x10
    20d8:	2a0010ef          	jal	3378 <__mulsi3>
    20dc:	00050c93          	mv	s9,a0
    20e0:	000b8593          	mv	a1,s7
    20e4:	000a8513          	mv	a0,s5
    20e8:	290010ef          	jal	3378 <__mulsi3>
    20ec:	01095c13          	srli	s8,s2,0x10
    20f0:	00050d13          	mv	s10,a0
    20f4:	000c0593          	mv	a1,s8
    20f8:	000a8513          	mv	a0,s5
    20fc:	27c010ef          	jal	3378 <__mulsi3>
    2100:	00050a93          	mv	s5,a0
    2104:	000c0593          	mv	a1,s8
    2108:	000d8513          	mv	a0,s11
    210c:	26c010ef          	jal	3378 <__mulsi3>
    2110:	01a50533          	add	a0,a0,s10
    2114:	010cd613          	srli	a2,s9,0x10
    2118:	00a60533          	add	a0,a2,a0
    211c:	00c12703          	lw	a4,12(sp)
    2120:	01a57463          	bleu	s10,a0,2128 <__umoddi3+0x454>
    2124:	00ea8ab3          	add	s5,s5,a4
    2128:	00010637          	lui	a2,0x10
    212c:	fff60813          	addi	a6,a2,-1 # ffff <_end+0x807f>
    2130:	01055593          	srli	a1,a0,0x10
    2134:	01057533          	and	a0,a0,a6
    2138:	01051613          	slli	a2,a0,0x10
    213c:	010cf733          	and	a4,s9,a6
    2140:	015585b3          	add	a1,a1,s5
    2144:	00e60733          	add	a4,a2,a4
    2148:	0eb4ec63          	bltu	s1,a1,2240 <__umoddi3+0x56c>
    214c:	12b48a63          	beq	s1,a1,2280 <__umoddi3+0x5ac>
    2150:	40b487b3          	sub	a5,s1,a1
    2154:	00070613          	mv	a2,a4
    2158:	40c40633          	sub	a2,s0,a2
    215c:	00c435b3          	sltu	a1,s0,a2
    2160:	40b785b3          	sub	a1,a5,a1
    2164:	01659533          	sll	a0,a1,s6
    2168:	01465633          	srl	a2,a2,s4
    216c:	00c56533          	or	a0,a0,a2
    2170:	0145d5b3          	srl	a1,a1,s4
    2174:	dedff06f          	j	1f60 <__umoddi3+0x28c>
    2178:	01491933          	sll	s2,s2,s4
    217c:	00f4db33          	srl	s6,s1,a5
    2180:	01095a93          	srli	s5,s2,0x10
    2184:	00f457b3          	srl	a5,s0,a5
    2188:	000a8593          	mv	a1,s5
    218c:	014494b3          	sll	s1,s1,s4
    2190:	000b0513          	mv	a0,s6
    2194:	0097ec33          	or	s8,a5,s1
    2198:	254010ef          	jal	33ec <__umodsi3>
    219c:	00050993          	mv	s3,a0
    21a0:	000a8593          	mv	a1,s5
    21a4:	01091b93          	slli	s7,s2,0x10
    21a8:	000b0513          	mv	a0,s6
    21ac:	1f8010ef          	jal	33a4 <__udivsi3>
    21b0:	010bdb93          	srli	s7,s7,0x10
    21b4:	00050593          	mv	a1,a0
    21b8:	000b8513          	mv	a0,s7
    21bc:	01099993          	slli	s3,s3,0x10
    21c0:	1b8010ef          	jal	3378 <__mulsi3>
    21c4:	010c5713          	srli	a4,s8,0x10
    21c8:	01376733          	or	a4,a4,s3
    21cc:	014419b3          	sll	s3,s0,s4
    21d0:	00a77a63          	bleu	a0,a4,21e4 <__umoddi3+0x510>
    21d4:	01270733          	add	a4,a4,s2
    21d8:	01276663          	bltu	a4,s2,21e4 <__umoddi3+0x510>
    21dc:	00a77463          	bleu	a0,a4,21e4 <__umoddi3+0x510>
    21e0:	01270733          	add	a4,a4,s2
    21e4:	40a70b33          	sub	s6,a4,a0
    21e8:	000a8593          	mv	a1,s5
    21ec:	000b0513          	mv	a0,s6
    21f0:	1fc010ef          	jal	33ec <__umodsi3>
    21f4:	00050413          	mv	s0,a0
    21f8:	000a8593          	mv	a1,s5
    21fc:	000b0513          	mv	a0,s6
    2200:	1a4010ef          	jal	33a4 <__udivsi3>
    2204:	00050593          	mv	a1,a0
    2208:	000b8513          	mv	a0,s7
    220c:	16c010ef          	jal	3378 <__mulsi3>
    2210:	010c1793          	slli	a5,s8,0x10
    2214:	01041413          	slli	s0,s0,0x10
    2218:	0107d793          	srli	a5,a5,0x10
    221c:	0087e7b3          	or	a5,a5,s0
    2220:	00a7fa63          	bleu	a0,a5,2234 <__umoddi3+0x560>
    2224:	012787b3          	add	a5,a5,s2
    2228:	0127e663          	bltu	a5,s2,2234 <__umoddi3+0x560>
    222c:	00a7f463          	bleu	a0,a5,2234 <__umoddi3+0x560>
    2230:	012787b3          	add	a5,a5,s2
    2234:	40a784b3          	sub	s1,a5,a0
    2238:	000a8b13          	mv	s6,s5
    223c:	c85ff06f          	j	1ec0 <__umoddi3+0x1ec>
    2240:	41270633          	sub	a2,a4,s2
    2244:	413587b3          	sub	a5,a1,s3
    2248:	00c73733          	sltu	a4,a4,a2
    224c:	40e78733          	sub	a4,a5,a4
    2250:	40e487b3          	sub	a5,s1,a4
    2254:	f05ff06f          	j	2158 <__umoddi3+0x484>
    2258:	e4a4f8e3          	bleu	a0,s1,20a8 <__umoddi3+0x3d4>
    225c:	ffea8a93          	addi	s5,s5,-2
    2260:	013484b3          	add	s1,s1,s3
    2264:	e49ff06f          	j	20ac <__umoddi3+0x3d8>
    2268:	dea7f4e3          	bleu	a0,a5,2050 <__umoddi3+0x37c>
    226c:	ffed0d13          	addi	s10,s10,-2
    2270:	013787b3          	add	a5,a5,s3
    2274:	de1ff06f          	j	2054 <__umoddi3+0x380>
    2278:	012787b3          	add	a5,a5,s2
    227c:	c85ff06f          	j	1f00 <__umoddi3+0x22c>
    2280:	fce460e3          	bltu	s0,a4,2240 <__umoddi3+0x56c>
    2284:	00070613          	mv	a2,a4
    2288:	00000793          	li	a5,0
    228c:	ecdff06f          	j	2158 <__umoddi3+0x484>

00002290 <_fpadd_parts>:
    2290:	00052783          	lw	a5,0(a0)
    2294:	00100693          	li	a3,1
    2298:	12f6f263          	bleu	a5,a3,23bc <_fpadd_parts+0x12c>
    229c:	0005a703          	lw	a4,0(a1)
    22a0:	10e6fc63          	bleu	a4,a3,23b8 <_fpadd_parts+0x128>
    22a4:	00400693          	li	a3,4
    22a8:	24d78063          	beq	a5,a3,24e8 <_fpadd_parts+0x258>
    22ac:	10d70663          	beq	a4,a3,23b8 <_fpadd_parts+0x128>
    22b0:	00200693          	li	a3,2
    22b4:	1cd70263          	beq	a4,a3,2478 <_fpadd_parts+0x1e8>
    22b8:	10d78063          	beq	a5,a3,23b8 <_fpadd_parts+0x128>
    22bc:	00852303          	lw	t1,8(a0)
    22c0:	0085a683          	lw	a3,8(a1)
    22c4:	01052883          	lw	a7,16(a0)
    22c8:	01452e03          	lw	t3,20(a0)
    22cc:	40d30833          	sub	a6,t1,a3
    22d0:	41f85793          	srai	a5,a6,0x1f
    22d4:	0107c733          	xor	a4,a5,a6
    22d8:	40f70733          	sub	a4,a4,a5
    22dc:	03f00793          	li	a5,63
    22e0:	0105a283          	lw	t0,16(a1)
    22e4:	0145a383          	lw	t2,20(a1)
    22e8:	0ce7dc63          	ble	a4,a5,23c0 <_fpadd_parts+0x130>
    22ec:	1e66c863          	blt	a3,t1,24dc <_fpadd_parts+0x24c>
    22f0:	00068313          	mv	t1,a3
    22f4:	00000893          	li	a7,0
    22f8:	00000e13          	li	t3,0
    22fc:	00452503          	lw	a0,4(a0)
    2300:	0045a783          	lw	a5,4(a1)
    2304:	10f50863          	beq	a0,a5,2414 <_fpadd_parts+0x184>
    2308:	1c050063          	beqz	a0,24c8 <_fpadd_parts+0x238>
    230c:	411287b3          	sub	a5,t0,a7
    2310:	00f2b6b3          	sltu	a3,t0,a5
    2314:	41c38733          	sub	a4,t2,t3
    2318:	40d706b3          	sub	a3,a4,a3
    231c:	1e06c263          	bltz	a3,2500 <_fpadd_parts+0x270>
    2320:	00062223          	sw	zero,4(a2)
    2324:	00662423          	sw	t1,8(a2)
    2328:	00f62823          	sw	a5,16(a2)
    232c:	00d62a23          	sw	a3,20(a2)
    2330:	fff78513          	addi	a0,a5,-1
    2334:	fff68593          	addi	a1,a3,-1
    2338:	00f53733          	sltu	a4,a0,a5
    233c:	00b70733          	add	a4,a4,a1
    2340:	100005b7          	lui	a1,0x10000
    2344:	0eb77863          	bleu	a1,a4,2434 <_fpadd_parts+0x1a4>
    2348:	fff58593          	addi	a1,a1,-1 # fffffff <_end+0xfff807f>
    234c:	24b70c63          	beq	a4,a1,25a4 <_fpadd_parts+0x314>
    2350:	00862503          	lw	a0,8(a2)
    2354:	100002b7          	lui	t0,0x10000
    2358:	fff28313          	addi	t1,t0,-1 # fffffff <_end+0xfff807f>
    235c:	fff50513          	addi	a0,a0,-1
    2360:	ffe00393          	li	t2,-2
    2364:	0080006f          	j	236c <_fpadd_parts+0xdc>
    2368:	14670c63          	beq	a4,t1,24c0 <_fpadd_parts+0x230>
    236c:	01f7d713          	srli	a4,a5,0x1f
    2370:	00169593          	slli	a1,a3,0x1
    2374:	00179793          	slli	a5,a5,0x1
    2378:	00b765b3          	or	a1,a4,a1
    237c:	fff78813          	addi	a6,a5,-1
    2380:	fff58893          	addi	a7,a1,-1
    2384:	00f83733          	sltu	a4,a6,a5
    2388:	01170733          	add	a4,a4,a7
    238c:	00058693          	mv	a3,a1
    2390:	00050893          	mv	a7,a0
    2394:	fff50513          	addi	a0,a0,-1
    2398:	fc5768e3          	bltu	a4,t0,2368 <_fpadd_parts+0xd8>
    239c:	00f62823          	sw	a5,16(a2)
    23a0:	00300793          	li	a5,3
    23a4:	00b62a23          	sw	a1,20(a2)
    23a8:	01162423          	sw	a7,8(a2)
    23ac:	00f62023          	sw	a5,0(a2)
    23b0:	00060513          	mv	a0,a2
    23b4:	00008067          	ret
    23b8:	00058513          	mv	a0,a1
    23bc:	00008067          	ret
    23c0:	19005863          	blez	a6,2550 <_fpadd_parts+0x2c0>
    23c4:	02077793          	andi	a5,a4,32
    23c8:	16078063          	beqz	a5,2528 <_fpadd_parts+0x298>
    23cc:	00100793          	li	a5,1
    23d0:	00e3deb3          	srl	t4,t2,a4
    23d4:	00e797b3          	sll	a5,a5,a4
    23d8:	00000f13          	li	t5,0
    23dc:	00000713          	li	a4,0
    23e0:	fff70693          	addi	a3,a4,-1
    23e4:	fff78793          	addi	a5,a5,-1
    23e8:	00e6b733          	sltu	a4,a3,a4
    23ec:	00f70733          	add	a4,a4,a5
    23f0:	00777733          	and	a4,a4,t2
    23f4:	0056f7b3          	and	a5,a3,t0
    23f8:	00e7e7b3          	or	a5,a5,a4
    23fc:	00f037b3          	snez	a5,a5
    2400:	00fee2b3          	or	t0,t4,a5
    2404:	00452503          	lw	a0,4(a0)
    2408:	0045a783          	lw	a5,4(a1)
    240c:	000f0393          	mv	t2,t5
    2410:	eef51ce3          	bne	a0,a5,2308 <_fpadd_parts+0x78>
    2414:	005887b3          	add	a5,a7,t0
    2418:	0117b8b3          	sltu	a7,a5,a7
    241c:	007e0733          	add	a4,t3,t2
    2420:	00e886b3          	add	a3,a7,a4
    2424:	00a62223          	sw	a0,4(a2)
    2428:	00662423          	sw	t1,8(a2)
    242c:	00f62823          	sw	a5,16(a2)
    2430:	00d62a23          	sw	a3,20(a2)
    2434:	00300713          	li	a4,3
    2438:	00e62023          	sw	a4,0(a2)
    243c:	20000737          	lui	a4,0x20000
    2440:	02e6e863          	bltu	a3,a4,2470 <_fpadd_parts+0x1e0>
    2444:	00862703          	lw	a4,8(a2)
    2448:	01f69513          	slli	a0,a3,0x1f
    244c:	0017d593          	srli	a1,a5,0x1
    2450:	00b565b3          	or	a1,a0,a1
    2454:	0017f793          	andi	a5,a5,1
    2458:	0016d693          	srli	a3,a3,0x1
    245c:	00f5e7b3          	or	a5,a1,a5
    2460:	00170713          	addi	a4,a4,1 # 20000001 <_end+0x1fff8081>
    2464:	00f62823          	sw	a5,16(a2)
    2468:	00d62a23          	sw	a3,20(a2)
    246c:	00e62423          	sw	a4,8(a2)
    2470:	00060513          	mv	a0,a2
    2474:	00008067          	ret
    2478:	f4e792e3          	bne	a5,a4,23bc <_fpadd_parts+0x12c>
    247c:	00f62023          	sw	a5,0(a2)
    2480:	00452783          	lw	a5,4(a0)
    2484:	00f62223          	sw	a5,4(a2)
    2488:	00852703          	lw	a4,8(a0)
    248c:	00452683          	lw	a3,4(a0)
    2490:	0045a783          	lw	a5,4(a1)
    2494:	00e62423          	sw	a4,8(a2)
    2498:	00c52703          	lw	a4,12(a0)
    249c:	00f6f7b3          	and	a5,a3,a5
    24a0:	00e62623          	sw	a4,12(a2)
    24a4:	01052703          	lw	a4,16(a0)
    24a8:	00e62823          	sw	a4,16(a2)
    24ac:	01452703          	lw	a4,20(a0)
    24b0:	00f62223          	sw	a5,4(a2)
    24b4:	00060513          	mv	a0,a2
    24b8:	00e62a23          	sw	a4,20(a2)
    24bc:	00008067          	ret
    24c0:	eb03f6e3          	bleu	a6,t2,236c <_fpadd_parts+0xdc>
    24c4:	ed9ff06f          	j	239c <_fpadd_parts+0x10c>
    24c8:	405887b3          	sub	a5,a7,t0
    24cc:	00f8b6b3          	sltu	a3,a7,a5
    24d0:	407e0733          	sub	a4,t3,t2
    24d4:	40d706b3          	sub	a3,a4,a3
    24d8:	e45ff06f          	j	231c <_fpadd_parts+0x8c>
    24dc:	00000293          	li	t0,0
    24e0:	00000393          	li	t2,0
    24e4:	e19ff06f          	j	22fc <_fpadd_parts+0x6c>
    24e8:	ecf71ae3          	bne	a4,a5,23bc <_fpadd_parts+0x12c>
    24ec:	00452703          	lw	a4,4(a0)
    24f0:	0045a783          	lw	a5,4(a1)
    24f4:	ecf704e3          	beq	a4,a5,23bc <_fpadd_parts+0x12c>
    24f8:	fd018513          	addi	a0,gp,-48 # 5068 <__thenan_df>
    24fc:	00008067          	ret
    2500:	40f007b3          	neg	a5,a5
    2504:	00f03733          	snez	a4,a5
    2508:	40d006b3          	neg	a3,a3
    250c:	40e686b3          	sub	a3,a3,a4
    2510:	00100713          	li	a4,1
    2514:	00e62223          	sw	a4,4(a2)
    2518:	00662423          	sw	t1,8(a2)
    251c:	00f62823          	sw	a5,16(a2)
    2520:	00d62a23          	sw	a3,20(a2)
    2524:	e0dff06f          	j	2330 <_fpadd_parts+0xa0>
    2528:	fff74693          	not	a3,a4
    252c:	00139793          	slli	a5,t2,0x1
    2530:	00d797b3          	sll	a5,a5,a3
    2534:	00e2deb3          	srl	t4,t0,a4
    2538:	00100813          	li	a6,1
    253c:	01d7eeb3          	or	t4,a5,t4
    2540:	00e3df33          	srl	t5,t2,a4
    2544:	00000793          	li	a5,0
    2548:	00e81733          	sll	a4,a6,a4
    254c:	e95ff06f          	j	23e0 <_fpadd_parts+0x150>
    2550:	da0806e3          	beqz	a6,22fc <_fpadd_parts+0x6c>
    2554:	02077793          	andi	a5,a4,32
    2558:	00e30333          	add	t1,t1,a4
    255c:	06078263          	beqz	a5,25c0 <_fpadd_parts+0x330>
    2560:	00ee5833          	srl	a6,t3,a4
    2564:	00000e93          	li	t4,0
    2568:	04079463          	bnez	a5,25b0 <_fpadd_parts+0x320>
    256c:	00100793          	li	a5,1
    2570:	00000693          	li	a3,0
    2574:	00e79733          	sll	a4,a5,a4
    2578:	fff70793          	addi	a5,a4,-1
    257c:	00e7b733          	sltu	a4,a5,a4
    2580:	fff68693          	addi	a3,a3,-1
    2584:	00d70733          	add	a4,a4,a3
    2588:	0117f7b3          	and	a5,a5,a7
    258c:	01c77733          	and	a4,a4,t3
    2590:	00e7e7b3          	or	a5,a5,a4
    2594:	00f037b3          	snez	a5,a5
    2598:	00f868b3          	or	a7,a6,a5
    259c:	000e8e13          	mv	t3,t4
    25a0:	d5dff06f          	j	22fc <_fpadd_parts+0x6c>
    25a4:	ffe00713          	li	a4,-2
    25a8:	daa774e3          	bleu	a0,a4,2350 <_fpadd_parts+0xc0>
    25ac:	e89ff06f          	j	2434 <_fpadd_parts+0x1a4>
    25b0:	00100693          	li	a3,1
    25b4:	00e696b3          	sll	a3,a3,a4
    25b8:	00000713          	li	a4,0
    25bc:	fbdff06f          	j	2578 <_fpadd_parts+0x2e8>
    25c0:	001e1793          	slli	a5,t3,0x1
    25c4:	fff74693          	not	a3,a4
    25c8:	00d797b3          	sll	a5,a5,a3
    25cc:	00e8d833          	srl	a6,a7,a4
    25d0:	0107e833          	or	a6,a5,a6
    25d4:	00ee5eb3          	srl	t4,t3,a4
    25d8:	f95ff06f          	j	256c <_fpadd_parts+0x2dc>

000025dc <__pack_d>:
    25dc:	00052783          	lw	a5,0(a0)
    25e0:	00100593          	li	a1,1
    25e4:	01052603          	lw	a2,16(a0)
    25e8:	01452683          	lw	a3,20(a0)
    25ec:	00452803          	lw	a6,4(a0)
    25f0:	0ef5fa63          	bleu	a5,a1,26e4 <__pack_d+0x108>
    25f4:	00400713          	li	a4,4
    25f8:	0ce78e63          	beq	a5,a4,26d4 <__pack_d+0xf8>
    25fc:	00200713          	li	a4,2
    2600:	06e78263          	beq	a5,a4,2664 <__pack_d+0x88>
    2604:	00d667b3          	or	a5,a2,a3
    2608:	04078e63          	beqz	a5,2664 <__pack_d+0x88>
    260c:	00852783          	lw	a5,8(a0)
    2610:	c0200713          	li	a4,-1022
    2614:	12e7c063          	blt	a5,a4,2734 <__pack_d+0x158>
    2618:	3ff00713          	li	a4,1023
    261c:	0af74c63          	blt	a4,a5,26d4 <__pack_d+0xf8>
    2620:	0ff67713          	andi	a4,a2,255
    2624:	08000593          	li	a1,128
    2628:	0eb70863          	beq	a4,a1,2718 <__pack_d+0x13c>
    262c:	07f60713          	addi	a4,a2,127
    2630:	00c73633          	sltu	a2,a4,a2
    2634:	00d606b3          	add	a3,a2,a3
    2638:	00070613          	mv	a2,a4
    263c:	20000737          	lui	a4,0x20000
    2640:	06e6fe63          	bleu	a4,a3,26bc <__pack_d+0xe0>
    2644:	3ff78793          	addi	a5,a5,1023
    2648:	01869713          	slli	a4,a3,0x18
    264c:	00865613          	srli	a2,a2,0x8
    2650:	00469693          	slli	a3,a3,0x4
    2654:	00c76633          	or	a2,a4,a2
    2658:	00c6d693          	srli	a3,a3,0xc
    265c:	7ff7f793          	andi	a5,a5,2047
    2660:	0100006f          	j	2670 <__pack_d+0x94>
    2664:	00000793          	li	a5,0
    2668:	00000613          	li	a2,0
    266c:	00000693          	li	a3,0
    2670:	00100737          	lui	a4,0x100
    2674:	00000593          	li	a1,0
    2678:	00060513          	mv	a0,a2
    267c:	fff70713          	addi	a4,a4,-1 # fffff <_end+0xf807f>
    2680:	fff00637          	lui	a2,0xfff00
    2684:	00b67633          	and	a2,a2,a1
    2688:	00e6f6b3          	and	a3,a3,a4
    268c:	01479713          	slli	a4,a5,0x14
    2690:	801007b7          	lui	a5,0x80100
    2694:	00d666b3          	or	a3,a2,a3
    2698:	fff78793          	addi	a5,a5,-1 # 800fffff <_end+0x800f807f>
    269c:	00f6f7b3          	and	a5,a3,a5
    26a0:	00e7e7b3          	or	a5,a5,a4
    26a4:	80000737          	lui	a4,0x80000
    26a8:	fff74713          	not	a4,a4
    26ac:	01f81813          	slli	a6,a6,0x1f
    26b0:	00e7f7b3          	and	a5,a5,a4
    26b4:	0107e5b3          	or	a1,a5,a6
    26b8:	00008067          	ret
    26bc:	01f69713          	slli	a4,a3,0x1f
    26c0:	00165613          	srli	a2,a2,0x1
    26c4:	00c76633          	or	a2,a4,a2
    26c8:	0016d693          	srli	a3,a3,0x1
    26cc:	40078793          	addi	a5,a5,1024
    26d0:	f79ff06f          	j	2648 <__pack_d+0x6c>
    26d4:	7ff00793          	li	a5,2047
    26d8:	00000613          	li	a2,0
    26dc:	00000693          	li	a3,0
    26e0:	f91ff06f          	j	2670 <__pack_d+0x94>
    26e4:	00080737          	lui	a4,0x80
    26e8:	0086d593          	srli	a1,a3,0x8
    26ec:	fff70793          	addi	a5,a4,-1 # 7ffff <_end+0x7807f>
    26f0:	00f5f7b3          	and	a5,a1,a5
    26f4:	01869593          	slli	a1,a3,0x18
    26f8:	00e7e6b3          	or	a3,a5,a4
    26fc:	001007b7          	lui	a5,0x100
    2700:	fff78793          	addi	a5,a5,-1 # fffff <_end+0xf807f>
    2704:	00865613          	srli	a2,a2,0x8
    2708:	00f6f6b3          	and	a3,a3,a5
    270c:	00c5e633          	or	a2,a1,a2
    2710:	7ff00793          	li	a5,2047
    2714:	f5dff06f          	j	2670 <__pack_d+0x94>
    2718:	10067713          	andi	a4,a2,256
    271c:	f20700e3          	beqz	a4,263c <__pack_d+0x60>
    2720:	00b60733          	add	a4,a2,a1
    2724:	00c73633          	sltu	a2,a4,a2
    2728:	00d606b3          	add	a3,a2,a3
    272c:	00070613          	mv	a2,a4
    2730:	f0dff06f          	j	263c <__pack_d+0x60>
    2734:	40f707b3          	sub	a5,a4,a5
    2738:	03800713          	li	a4,56
    273c:	f2f744e3          	blt	a4,a5,2664 <__pack_d+0x88>
    2740:	0207f713          	andi	a4,a5,32
    2744:	0a070663          	beqz	a4,27f0 <__pack_d+0x214>
    2748:	00f6d8b3          	srl	a7,a3,a5
    274c:	00f595b3          	sll	a1,a1,a5
    2750:	00000713          	li	a4,0
    2754:	00000793          	li	a5,0
    2758:	fff78513          	addi	a0,a5,-1
    275c:	00f537b3          	sltu	a5,a0,a5
    2760:	fff58593          	addi	a1,a1,-1
    2764:	00b785b3          	add	a1,a5,a1
    2768:	00d5f6b3          	and	a3,a1,a3
    276c:	00c577b3          	and	a5,a0,a2
    2770:	00d7e7b3          	or	a5,a5,a3
    2774:	00f037b3          	snez	a5,a5
    2778:	00f8e633          	or	a2,a7,a5
    277c:	0ff67693          	andi	a3,a2,255
    2780:	08000793          	li	a5,128
    2784:	02f69a63          	bne	a3,a5,27b8 <__pack_d+0x1dc>
    2788:	10067793          	andi	a5,a2,256
    278c:	08079663          	bnez	a5,2818 <__pack_d+0x23c>
    2790:	01871793          	slli	a5,a4,0x18
    2794:	00865613          	srli	a2,a2,0x8
    2798:	00471693          	slli	a3,a4,0x4
    279c:	100005b7          	lui	a1,0x10000
    27a0:	00c7e633          	or	a2,a5,a2
    27a4:	00c6d693          	srli	a3,a3,0xc
    27a8:	00100793          	li	a5,1
    27ac:	02b76c63          	bltu	a4,a1,27e4 <__pack_d+0x208>
    27b0:	0017f793          	andi	a5,a5,1
    27b4:	ebdff06f          	j	2670 <__pack_d+0x94>
    27b8:	07f60793          	addi	a5,a2,127 # fff0007f <_end+0xffef80ff>
    27bc:	00c7b633          	sltu	a2,a5,a2
    27c0:	00e60733          	add	a4,a2,a4
    27c4:	01871593          	slli	a1,a4,0x18
    27c8:	0087d613          	srli	a2,a5,0x8
    27cc:	00471693          	slli	a3,a4,0x4
    27d0:	00c5e633          	or	a2,a1,a2
    27d4:	100005b7          	lui	a1,0x10000
    27d8:	00c6d693          	srli	a3,a3,0xc
    27dc:	00100793          	li	a5,1
    27e0:	fcb778e3          	bleu	a1,a4,27b0 <__pack_d+0x1d4>
    27e4:	00000793          	li	a5,0
    27e8:	0017f793          	andi	a5,a5,1
    27ec:	e85ff06f          	j	2670 <__pack_d+0x94>
    27f0:	fff7c593          	not	a1,a5
    27f4:	00169713          	slli	a4,a3,0x1
    27f8:	00b71733          	sll	a4,a4,a1
    27fc:	00f658b3          	srl	a7,a2,a5
    2800:	00100513          	li	a0,1
    2804:	011768b3          	or	a7,a4,a7
    2808:	00000593          	li	a1,0
    280c:	00f6d733          	srl	a4,a3,a5
    2810:	00f517b3          	sll	a5,a0,a5
    2814:	f45ff06f          	j	2758 <__pack_d+0x17c>
    2818:	08060793          	addi	a5,a2,128
    281c:	fa1ff06f          	j	27bc <__pack_d+0x1e0>

00002820 <__unpack_d>:
    2820:	00655683          	lhu	a3,6(a0)
    2824:	00754703          	lbu	a4,7(a0)
    2828:	00452803          	lw	a6,4(a0)
    282c:	0046d693          	srli	a3,a3,0x4
    2830:	001007b7          	lui	a5,0x100
    2834:	00775613          	srli	a2,a4,0x7
    2838:	fff78793          	addi	a5,a5,-1 # fffff <_end+0xf807f>
    283c:	7ff6f693          	andi	a3,a3,2047
    2840:	00052703          	lw	a4,0(a0)
    2844:	00f877b3          	and	a5,a6,a5
    2848:	00c5a223          	sw	a2,4(a1) # 10000004 <_end+0xfff8084>
    284c:	04069c63          	bnez	a3,28a4 <__unpack_d+0x84>
    2850:	00f766b3          	or	a3,a4,a5
    2854:	08068663          	beqz	a3,28e0 <__unpack_d+0xc0>
    2858:	01875693          	srli	a3,a4,0x18
    285c:	00879793          	slli	a5,a5,0x8
    2860:	00f6e7b3          	or	a5,a3,a5
    2864:	00300693          	li	a3,3
    2868:	00d5a023          	sw	a3,0(a1)
    286c:	00871713          	slli	a4,a4,0x8
    2870:	c0100693          	li	a3,-1023
    2874:	10000537          	lui	a0,0x10000
    2878:	01f75613          	srli	a2,a4,0x1f
    287c:	00179793          	slli	a5,a5,0x1
    2880:	00f667b3          	or	a5,a2,a5
    2884:	00171713          	slli	a4,a4,0x1
    2888:	00068613          	mv	a2,a3
    288c:	fff68693          	addi	a3,a3,-1
    2890:	fea7e4e3          	bltu	a5,a0,2878 <__unpack_d+0x58>
    2894:	00c5a423          	sw	a2,8(a1)
    2898:	00e5a823          	sw	a4,16(a1)
    289c:	00f5aa23          	sw	a5,20(a1)
    28a0:	00008067          	ret
    28a4:	7ff00613          	li	a2,2047
    28a8:	04c68263          	beq	a3,a2,28ec <__unpack_d+0xcc>
    28ac:	01875613          	srli	a2,a4,0x18
    28b0:	00879793          	slli	a5,a5,0x8
    28b4:	00f667b3          	or	a5,a2,a5
    28b8:	c0168693          	addi	a3,a3,-1023
    28bc:	10000637          	lui	a2,0x10000
    28c0:	00871713          	slli	a4,a4,0x8
    28c4:	00c7e7b3          	or	a5,a5,a2
    28c8:	00d5a423          	sw	a3,8(a1)
    28cc:	00300693          	li	a3,3
    28d0:	00d5a023          	sw	a3,0(a1)
    28d4:	00e5a823          	sw	a4,16(a1)
    28d8:	00f5aa23          	sw	a5,20(a1)
    28dc:	00008067          	ret
    28e0:	00200793          	li	a5,2
    28e4:	00f5a023          	sw	a5,0(a1)
    28e8:	00008067          	ret
    28ec:	00f766b3          	or	a3,a4,a5
    28f0:	02068e63          	beqz	a3,292c <__unpack_d+0x10c>
    28f4:	00c79693          	slli	a3,a5,0xc
    28f8:	0406d063          	bgez	a3,2938 <__unpack_d+0x118>
    28fc:	00100693          	li	a3,1
    2900:	00d5a023          	sw	a3,0(a1)
    2904:	fff806b7          	lui	a3,0xfff80
    2908:	fff68693          	addi	a3,a3,-1 # fff7ffff <_end+0xfff7807f>
    290c:	00d7f7b3          	and	a5,a5,a3
    2910:	00879793          	slli	a5,a5,0x8
    2914:	01875693          	srli	a3,a4,0x18
    2918:	00d7e7b3          	or	a5,a5,a3
    291c:	00871713          	slli	a4,a4,0x8
    2920:	00f5aa23          	sw	a5,20(a1)
    2924:	00e5a823          	sw	a4,16(a1)
    2928:	00008067          	ret
    292c:	00400793          	li	a5,4
    2930:	00f5a023          	sw	a5,0(a1)
    2934:	00008067          	ret
    2938:	0005a023          	sw	zero,0(a1)
    293c:	fc9ff06f          	j	2904 <__unpack_d+0xe4>

00002940 <__adddf3>:
    2940:	f9010113          	addi	sp,sp,-112
    2944:	00a12423          	sw	a0,8(sp)
    2948:	00b12623          	sw	a1,12(sp)
    294c:	00810513          	addi	a0,sp,8
    2950:	01810593          	addi	a1,sp,24
    2954:	06112623          	sw	ra,108(sp)
    2958:	00d12a23          	sw	a3,20(sp)
    295c:	00c12823          	sw	a2,16(sp)
    2960:	ec1ff0ef          	jal	2820 <__unpack_d>
    2964:	03010593          	addi	a1,sp,48
    2968:	01010513          	addi	a0,sp,16
    296c:	eb5ff0ef          	jal	2820 <__unpack_d>
    2970:	04810613          	addi	a2,sp,72
    2974:	03010593          	addi	a1,sp,48
    2978:	01810513          	addi	a0,sp,24
    297c:	915ff0ef          	jal	2290 <_fpadd_parts>
    2980:	c5dff0ef          	jal	25dc <__pack_d>
    2984:	06c12083          	lw	ra,108(sp)
    2988:	07010113          	addi	sp,sp,112
    298c:	00008067          	ret

00002990 <__subdf3>:
    2990:	f9010113          	addi	sp,sp,-112
    2994:	00a12423          	sw	a0,8(sp)
    2998:	00b12623          	sw	a1,12(sp)
    299c:	00810513          	addi	a0,sp,8
    29a0:	01810593          	addi	a1,sp,24
    29a4:	06112623          	sw	ra,108(sp)
    29a8:	00d12a23          	sw	a3,20(sp)
    29ac:	00c12823          	sw	a2,16(sp)
    29b0:	e71ff0ef          	jal	2820 <__unpack_d>
    29b4:	03010593          	addi	a1,sp,48
    29b8:	01010513          	addi	a0,sp,16
    29bc:	e65ff0ef          	jal	2820 <__unpack_d>
    29c0:	03412783          	lw	a5,52(sp)
    29c4:	04810613          	addi	a2,sp,72
    29c8:	03010593          	addi	a1,sp,48
    29cc:	0017c793          	xori	a5,a5,1
    29d0:	01810513          	addi	a0,sp,24
    29d4:	02f12a23          	sw	a5,52(sp)
    29d8:	8b9ff0ef          	jal	2290 <_fpadd_parts>
    29dc:	c01ff0ef          	jal	25dc <__pack_d>
    29e0:	06c12083          	lw	ra,108(sp)
    29e4:	07010113          	addi	sp,sp,112
    29e8:	00008067          	ret

000029ec <__muldf3>:
    29ec:	f7010113          	addi	sp,sp,-144
    29f0:	00a12423          	sw	a0,8(sp)
    29f4:	00b12623          	sw	a1,12(sp)
    29f8:	00810513          	addi	a0,sp,8
    29fc:	01810593          	addi	a1,sp,24
    2a00:	00d12a23          	sw	a3,20(sp)
    2a04:	08112623          	sw	ra,140(sp)
    2a08:	00c12823          	sw	a2,16(sp)
    2a0c:	08812423          	sw	s0,136(sp)
    2a10:	08912223          	sw	s1,132(sp)
    2a14:	09212023          	sw	s2,128(sp)
    2a18:	07312e23          	sw	s3,124(sp)
    2a1c:	07412c23          	sw	s4,120(sp)
    2a20:	07512a23          	sw	s5,116(sp)
    2a24:	07612823          	sw	s6,112(sp)
    2a28:	07712623          	sw	s7,108(sp)
    2a2c:	df5ff0ef          	jal	2820 <__unpack_d>
    2a30:	03010593          	addi	a1,sp,48
    2a34:	01010513          	addi	a0,sp,16
    2a38:	de9ff0ef          	jal	2820 <__unpack_d>
    2a3c:	01812783          	lw	a5,24(sp)
    2a40:	00100693          	li	a3,1
    2a44:	1cf6fe63          	bleu	a5,a3,2c20 <__muldf3+0x234>
    2a48:	03012703          	lw	a4,48(sp)
    2a4c:	1ae6f863          	bleu	a4,a3,2bfc <__muldf3+0x210>
    2a50:	00400693          	li	a3,4
    2a54:	1cd78263          	beq	a5,a3,2c18 <__muldf3+0x22c>
    2a58:	18d70e63          	beq	a4,a3,2bf4 <__muldf3+0x208>
    2a5c:	00200693          	li	a3,2
    2a60:	1cd78063          	beq	a5,a3,2c20 <__muldf3+0x234>
    2a64:	18d70c63          	beq	a4,a3,2bfc <__muldf3+0x210>
    2a68:	02812483          	lw	s1,40(sp)
    2a6c:	04012a83          	lw	s5,64(sp)
    2a70:	04412403          	lw	s0,68(sp)
    2a74:	00048613          	mv	a2,s1
    2a78:	00000693          	li	a3,0
    2a7c:	000a8513          	mv	a0,s5
    2a80:	00000593          	li	a1,0
    2a84:	1cd000ef          	jal	3450 <__muldi3>
    2a88:	02c12a03          	lw	s4,44(sp)
    2a8c:	00048613          	mv	a2,s1
    2a90:	00058993          	mv	s3,a1
    2a94:	00000693          	li	a3,0
    2a98:	00050b93          	mv	s7,a0
    2a9c:	00000593          	li	a1,0
    2aa0:	00040513          	mv	a0,s0
    2aa4:	1ad000ef          	jal	3450 <__muldi3>
    2aa8:	00050913          	mv	s2,a0
    2aac:	00040613          	mv	a2,s0
    2ab0:	00058493          	mv	s1,a1
    2ab4:	00000693          	li	a3,0
    2ab8:	000a0513          	mv	a0,s4
    2abc:	00000593          	li	a1,0
    2ac0:	191000ef          	jal	3450 <__muldi3>
    2ac4:	00050413          	mv	s0,a0
    2ac8:	000a8613          	mv	a2,s5
    2acc:	00000693          	li	a3,0
    2ad0:	00058b13          	mv	s6,a1
    2ad4:	000a0513          	mv	a0,s4
    2ad8:	00000593          	li	a1,0
    2adc:	175000ef          	jal	3450 <__muldi3>
    2ae0:	012506b3          	add	a3,a0,s2
    2ae4:	009585b3          	add	a1,a1,s1
    2ae8:	00a6b533          	sltu	a0,a3,a0
    2aec:	00b50633          	add	a2,a0,a1
    2af0:	00098593          	mv	a1,s3
    2af4:	14966663          	bltu	a2,s1,2c40 <__muldf3+0x254>
    2af8:	14c48263          	beq	s1,a2,2c3c <__muldf3+0x250>
    2afc:	00000793          	li	a5,0
    2b00:	00000713          	li	a4,0
    2b04:	013686b3          	add	a3,a3,s3
    2b08:	000b8513          	mv	a0,s7
    2b0c:	00b6f463          	bleu	a1,a3,2b14 <__muldf3+0x128>
    2b10:	00100793          	li	a5,1
    2b14:	008608b3          	add	a7,a2,s0
    2b18:	00c8b633          	sltu	a2,a7,a2
    2b1c:	01660833          	add	a6,a2,s6
    2b20:	03812583          	lw	a1,56(sp)
    2b24:	02012603          	lw	a2,32(sp)
    2b28:	00e80733          	add	a4,a6,a4
    2b2c:	03412803          	lw	a6,52(sp)
    2b30:	00b60633          	add	a2,a2,a1
    2b34:	01c12583          	lw	a1,28(sp)
    2b38:	00f887b3          	add	a5,a7,a5
    2b3c:	0117b8b3          	sltu	a7,a5,a7
    2b40:	410585b3          	sub	a1,a1,a6
    2b44:	00b035b3          	snez	a1,a1
    2b48:	00460813          	addi	a6,a2,4 # 10000004 <_end+0xfff8084>
    2b4c:	00e88733          	add	a4,a7,a4
    2b50:	200003b7          	lui	t2,0x20000
    2b54:	04b12623          	sw	a1,76(sp)
    2b58:	05012823          	sw	a6,80(sp)
    2b5c:	00560593          	addi	a1,a2,5
    2b60:	80000eb7          	lui	t4,0x80000
    2b64:	10776a63          	bltu	a4,t2,2c78 <__muldf3+0x28c>
    2b68:	0017f813          	andi	a6,a5,1
    2b6c:	01f71613          	slli	a2,a4,0x1f
    2b70:	0017d793          	srli	a5,a5,0x1
    2b74:	00175713          	srli	a4,a4,0x1
    2b78:	01f69313          	slli	t1,a3,0x1f
    2b7c:	00155293          	srli	t0,a0,0x1
    2b80:	0016d893          	srli	a7,a3,0x1
    2b84:	00058e13          	mv	t3,a1
    2b88:	00080663          	beqz	a6,2b94 <__muldf3+0x1a8>
    2b8c:	00536533          	or	a0,t1,t0
    2b90:	01d8e6b3          	or	a3,a7,t4
    2b94:	00f667b3          	or	a5,a2,a5
    2b98:	00158593          	addi	a1,a1,1
    2b9c:	fc7776e3          	bleu	t2,a4,2b68 <__muldf3+0x17c>
    2ba0:	05c12823          	sw	t3,80(sp)
    2ba4:	0ff7f613          	andi	a2,a5,255
    2ba8:	08000593          	li	a1,128
    2bac:	0ab60063          	beq	a2,a1,2c4c <__muldf3+0x260>
    2bb0:	04f12c23          	sw	a5,88(sp)
    2bb4:	00300793          	li	a5,3
    2bb8:	04e12e23          	sw	a4,92(sp)
    2bbc:	04f12423          	sw	a5,72(sp)
    2bc0:	04810513          	addi	a0,sp,72
    2bc4:	a19ff0ef          	jal	25dc <__pack_d>
    2bc8:	08c12083          	lw	ra,140(sp)
    2bcc:	08812403          	lw	s0,136(sp)
    2bd0:	08412483          	lw	s1,132(sp)
    2bd4:	08012903          	lw	s2,128(sp)
    2bd8:	07c12983          	lw	s3,124(sp)
    2bdc:	07812a03          	lw	s4,120(sp)
    2be0:	07412a83          	lw	s5,116(sp)
    2be4:	07012b03          	lw	s6,112(sp)
    2be8:	06c12b83          	lw	s7,108(sp)
    2bec:	09010113          	addi	sp,sp,144
    2bf0:	00008067          	ret
    2bf4:	00200713          	li	a4,2
    2bf8:	06e78c63          	beq	a5,a4,2c70 <__muldf3+0x284>
    2bfc:	03412703          	lw	a4,52(sp)
    2c00:	01c12783          	lw	a5,28(sp)
    2c04:	03010513          	addi	a0,sp,48
    2c08:	40e787b3          	sub	a5,a5,a4
    2c0c:	00f037b3          	snez	a5,a5
    2c10:	02f12a23          	sw	a5,52(sp)
    2c14:	fb1ff06f          	j	2bc4 <__muldf3+0x1d8>
    2c18:	00200793          	li	a5,2
    2c1c:	04f70a63          	beq	a4,a5,2c70 <__muldf3+0x284>
    2c20:	01c12783          	lw	a5,28(sp)
    2c24:	03412703          	lw	a4,52(sp)
    2c28:	01810513          	addi	a0,sp,24
    2c2c:	40e787b3          	sub	a5,a5,a4
    2c30:	00f037b3          	snez	a5,a5
    2c34:	00f12e23          	sw	a5,28(sp)
    2c38:	f8dff06f          	j	2bc4 <__muldf3+0x1d8>
    2c3c:	ed26f0e3          	bleu	s2,a3,2afc <__muldf3+0x110>
    2c40:	00000793          	li	a5,0
    2c44:	00100713          	li	a4,1
    2c48:	ebdff06f          	j	2b04 <__muldf3+0x118>
    2c4c:	1007f613          	andi	a2,a5,256
    2c50:	f60610e3          	bnez	a2,2bb0 <__muldf3+0x1c4>
    2c54:	00d566b3          	or	a3,a0,a3
    2c58:	f4068ce3          	beqz	a3,2bb0 <__muldf3+0x1c4>
    2c5c:	00b786b3          	add	a3,a5,a1
    2c60:	00f6b7b3          	sltu	a5,a3,a5
    2c64:	00e78733          	add	a4,a5,a4
    2c68:	f006f793          	andi	a5,a3,-256
    2c6c:	f45ff06f          	j	2bb0 <__muldf3+0x1c4>
    2c70:	fd018513          	addi	a0,gp,-48 # 5068 <__thenan_df>
    2c74:	f51ff06f          	j	2bc4 <__muldf3+0x1d8>
    2c78:	10000337          	lui	t1,0x10000
    2c7c:	00360593          	addi	a1,a2,3
    2c80:	f26772e3          	bleu	t1,a4,2ba4 <__muldf3+0x1b8>
    2c84:	01f7d813          	srli	a6,a5,0x1f
    2c88:	00171613          	slli	a2,a4,0x1
    2c8c:	00c86633          	or	a2,a6,a2
    2c90:	01f55893          	srli	a7,a0,0x1f
    2c94:	00169813          	slli	a6,a3,0x1
    2c98:	00058293          	mv	t0,a1
    2c9c:	00179793          	slli	a5,a5,0x1
    2ca0:	00060713          	mv	a4,a2
    2ca4:	0006d463          	bgez	a3,2cac <__muldf3+0x2c0>
    2ca8:	0017e793          	ori	a5,a5,1
    2cac:	00151513          	slli	a0,a0,0x1
    2cb0:	0108e6b3          	or	a3,a7,a6
    2cb4:	fff58593          	addi	a1,a1,-1
    2cb8:	fc6666e3          	bltu	a2,t1,2c84 <__muldf3+0x298>
    2cbc:	04512823          	sw	t0,80(sp)
    2cc0:	ee5ff06f          	j	2ba4 <__muldf3+0x1b8>

00002cc4 <__divdf3>:
    2cc4:	fb010113          	addi	sp,sp,-80
    2cc8:	00a12023          	sw	a0,0(sp)
    2ccc:	00b12223          	sw	a1,4(sp)
    2cd0:	00010513          	mv	a0,sp
    2cd4:	01010593          	addi	a1,sp,16
    2cd8:	00c12423          	sw	a2,8(sp)
    2cdc:	04112623          	sw	ra,76(sp)
    2ce0:	00d12623          	sw	a3,12(sp)
    2ce4:	b3dff0ef          	jal	2820 <__unpack_d>
    2ce8:	02810593          	addi	a1,sp,40
    2cec:	00810513          	addi	a0,sp,8
    2cf0:	b31ff0ef          	jal	2820 <__unpack_d>
    2cf4:	01012603          	lw	a2,16(sp)
    2cf8:	00100793          	li	a5,1
    2cfc:	0ec7fa63          	bleu	a2,a5,2df0 <__divdf3+0x12c>
    2d00:	02812683          	lw	a3,40(sp)
    2d04:	14d7fc63          	bleu	a3,a5,2e5c <__divdf3+0x198>
    2d08:	01412583          	lw	a1,20(sp)
    2d0c:	02c12703          	lw	a4,44(sp)
    2d10:	ffe60793          	addi	a5,a2,-2
    2d14:	ffd7f793          	andi	a5,a5,-3
    2d18:	00e5c733          	xor	a4,a1,a4
    2d1c:	00e12a23          	sw	a4,20(sp)
    2d20:	0e078263          	beqz	a5,2e04 <__divdf3+0x140>
    2d24:	00400793          	li	a5,4
    2d28:	0ef68463          	beq	a3,a5,2e10 <__divdf3+0x14c>
    2d2c:	00200713          	li	a4,2
    2d30:	12e68063          	beq	a3,a4,2e50 <__divdf3+0x18c>
    2d34:	01812703          	lw	a4,24(sp)
    2d38:	03012603          	lw	a2,48(sp)
    2d3c:	02412783          	lw	a5,36(sp)
    2d40:	03c12883          	lw	a7,60(sp)
    2d44:	40c70633          	sub	a2,a4,a2
    2d48:	00c12c23          	sw	a2,24(sp)
    2d4c:	02012683          	lw	a3,32(sp)
    2d50:	03812f03          	lw	t5,56(sp)
    2d54:	0117e663          	bltu	a5,a7,2d60 <__divdf3+0x9c>
    2d58:	02f89063          	bne	a7,a5,2d78 <__divdf3+0xb4>
    2d5c:	01e6fe63          	bleu	t5,a3,2d78 <__divdf3+0xb4>
    2d60:	01f6d593          	srli	a1,a3,0x1f
    2d64:	00179713          	slli	a4,a5,0x1
    2d68:	fff60613          	addi	a2,a2,-1
    2d6c:	00e5e7b3          	or	a5,a1,a4
    2d70:	00169693          	slli	a3,a3,0x1
    2d74:	00c12c23          	sw	a2,24(sp)
    2d78:	03d00513          	li	a0,61
    2d7c:	00000393          	li	t2,0
    2d80:	00000e13          	li	t3,0
    2d84:	00000813          	li	a6,0
    2d88:	100005b7          	lui	a1,0x10000
    2d8c:	01f59313          	slli	t1,a1,0x1f
    2d90:	00185293          	srli	t0,a6,0x1
    2d94:	fff50513          	addi	a0,a0,-1 # fffffff <_end+0xfff807f>
    2d98:	0317e463          	bltu	a5,a7,2dc0 <__divdf3+0xfc>
    2d9c:	41e68733          	sub	a4,a3,t5
    2da0:	00e6b633          	sltu	a2,a3,a4
    2da4:	41178eb3          	sub	t4,a5,a7
    2da8:	00f89463          	bne	a7,a5,2db0 <__divdf3+0xec>
    2dac:	01e6ea63          	bltu	a3,t5,2dc0 <__divdf3+0xfc>
    2db0:	00070693          	mv	a3,a4
    2db4:	40ce87b3          	sub	a5,t4,a2
    2db8:	0103e3b3          	or	t2,t2,a6
    2dbc:	00be6e33          	or	t3,t3,a1
    2dc0:	01f6d613          	srli	a2,a3,0x1f
    2dc4:	00179713          	slli	a4,a5,0x1
    2dc8:	00536833          	or	a6,t1,t0
    2dcc:	0015d593          	srli	a1,a1,0x1
    2dd0:	00e667b3          	or	a5,a2,a4
    2dd4:	00169693          	slli	a3,a3,0x1
    2dd8:	fa051ae3          	bnez	a0,2d8c <__divdf3+0xc8>
    2ddc:	0ff3f713          	andi	a4,t2,255
    2de0:	08000613          	li	a2,128
    2de4:	04c70463          	beq	a4,a2,2e2c <__divdf3+0x168>
    2de8:	02712023          	sw	t2,32(sp)
    2dec:	03c12223          	sw	t3,36(sp)
    2df0:	01010513          	addi	a0,sp,16
    2df4:	fe8ff0ef          	jal	25dc <__pack_d>
    2df8:	04c12083          	lw	ra,76(sp)
    2dfc:	05010113          	addi	sp,sp,80
    2e00:	00008067          	ret
    2e04:	fed616e3          	bne	a2,a3,2df0 <__divdf3+0x12c>
    2e08:	fd018513          	addi	a0,gp,-48 # 5068 <__thenan_df>
    2e0c:	fe9ff06f          	j	2df4 <__divdf3+0x130>
    2e10:	00000713          	li	a4,0
    2e14:	00000793          	li	a5,0
    2e18:	02e12023          	sw	a4,32(sp)
    2e1c:	02f12223          	sw	a5,36(sp)
    2e20:	00012c23          	sw	zero,24(sp)
    2e24:	01010513          	addi	a0,sp,16
    2e28:	fcdff06f          	j	2df4 <__divdf3+0x130>
    2e2c:	1003f713          	andi	a4,t2,256
    2e30:	fa071ce3          	bnez	a4,2de8 <__divdf3+0x124>
    2e34:	00f6e7b3          	or	a5,a3,a5
    2e38:	fa0788e3          	beqz	a5,2de8 <__divdf3+0x124>
    2e3c:	00c387b3          	add	a5,t2,a2
    2e40:	0077b3b3          	sltu	t2,a5,t2
    2e44:	01c38e33          	add	t3,t2,t3
    2e48:	f007f393          	andi	t2,a5,-256
    2e4c:	f9dff06f          	j	2de8 <__divdf3+0x124>
    2e50:	00f12823          	sw	a5,16(sp)
    2e54:	01010513          	addi	a0,sp,16
    2e58:	f9dff06f          	j	2df4 <__divdf3+0x130>
    2e5c:	02810513          	addi	a0,sp,40
    2e60:	f95ff06f          	j	2df4 <__divdf3+0x130>

00002e64 <__fpcmp_parts_d>:
    2e64:	00052703          	lw	a4,0(a0)
    2e68:	00100793          	li	a5,1
    2e6c:	00050613          	mv	a2,a0
    2e70:	08e7f263          	bleu	a4,a5,2ef4 <__fpcmp_parts_d+0x90>
    2e74:	0005a683          	lw	a3,0(a1) # 10000000 <_end+0xfff8080>
    2e78:	00078513          	mv	a0,a5
    2e7c:	04d7f263          	bleu	a3,a5,2ec0 <__fpcmp_parts_d+0x5c>
    2e80:	00400793          	li	a5,4
    2e84:	04f70c63          	beq	a4,a5,2edc <__fpcmp_parts_d+0x78>
    2e88:	04f68063          	beq	a3,a5,2ec8 <__fpcmp_parts_d+0x64>
    2e8c:	00200793          	li	a5,2
    2e90:	02f70a63          	beq	a4,a5,2ec4 <__fpcmp_parts_d+0x60>
    2e94:	04f68663          	beq	a3,a5,2ee0 <__fpcmp_parts_d+0x7c>
    2e98:	00462783          	lw	a5,4(a2)
    2e9c:	0045a703          	lw	a4,4(a1)
    2ea0:	04e78e63          	beq	a5,a4,2efc <__fpcmp_parts_d+0x98>
    2ea4:	00f03533          	snez	a0,a5
    2ea8:	40a00533          	neg	a0,a0
    2eac:	00156513          	ori	a0,a0,1
    2eb0:	00008067          	ret
    2eb4:	00e69463          	bne	a3,a4,2ebc <__fpcmp_parts_d+0x58>
    2eb8:	06b66a63          	bltu	a2,a1,2f2c <__fpcmp_parts_d+0xc8>
    2ebc:	00000513          	li	a0,0
    2ec0:	00008067          	ret
    2ec4:	fee68ce3          	beq	a3,a4,2ebc <__fpcmp_parts_d+0x58>
    2ec8:	0045a503          	lw	a0,4(a1)
    2ecc:	00153513          	seqz	a0,a0
    2ed0:	40a00533          	neg	a0,a0
    2ed4:	00156513          	ori	a0,a0,1
    2ed8:	00008067          	ret
    2edc:	06e68063          	beq	a3,a4,2f3c <__fpcmp_parts_d+0xd8>
    2ee0:	00462503          	lw	a0,4(a2)
    2ee4:	00a03533          	snez	a0,a0
    2ee8:	40a00533          	neg	a0,a0
    2eec:	00156513          	ori	a0,a0,1
    2ef0:	00008067          	ret
    2ef4:	00078513          	mv	a0,a5
    2ef8:	00008067          	ret
    2efc:	00862683          	lw	a3,8(a2)
    2f00:	0085a703          	lw	a4,8(a1)
    2f04:	fad740e3          	blt	a4,a3,2ea4 <__fpcmp_parts_d+0x40>
    2f08:	02e6c263          	blt	a3,a4,2f2c <__fpcmp_parts_d+0xc8>
    2f0c:	01462703          	lw	a4,20(a2)
    2f10:	0145a683          	lw	a3,20(a1)
    2f14:	01062603          	lw	a2,16(a2)
    2f18:	0105a583          	lw	a1,16(a1)
    2f1c:	f8e6e4e3          	bltu	a3,a4,2ea4 <__fpcmp_parts_d+0x40>
    2f20:	00d71463          	bne	a4,a3,2f28 <__fpcmp_parts_d+0xc4>
    2f24:	f8c5e0e3          	bltu	a1,a2,2ea4 <__fpcmp_parts_d+0x40>
    2f28:	f8d776e3          	bleu	a3,a4,2eb4 <__fpcmp_parts_d+0x50>
    2f2c:	0017b513          	seqz	a0,a5
    2f30:	40a00533          	neg	a0,a0
    2f34:	00156513          	ori	a0,a0,1
    2f38:	00008067          	ret
    2f3c:	0045a783          	lw	a5,4(a1)
    2f40:	00462503          	lw	a0,4(a2)
    2f44:	40a78533          	sub	a0,a5,a0
    2f48:	00008067          	ret

00002f4c <__cmpdf2>:
    2f4c:	fb010113          	addi	sp,sp,-80
    2f50:	00a12023          	sw	a0,0(sp)
    2f54:	00b12223          	sw	a1,4(sp)
    2f58:	00010513          	mv	a0,sp
    2f5c:	01010593          	addi	a1,sp,16
    2f60:	04112623          	sw	ra,76(sp)
    2f64:	00c12423          	sw	a2,8(sp)
    2f68:	00d12623          	sw	a3,12(sp)
    2f6c:	8b5ff0ef          	jal	2820 <__unpack_d>
    2f70:	02810593          	addi	a1,sp,40
    2f74:	00810513          	addi	a0,sp,8
    2f78:	8a9ff0ef          	jal	2820 <__unpack_d>
    2f7c:	02810593          	addi	a1,sp,40
    2f80:	01010513          	addi	a0,sp,16
    2f84:	ee1ff0ef          	jal	2e64 <__fpcmp_parts_d>
    2f88:	04c12083          	lw	ra,76(sp)
    2f8c:	05010113          	addi	sp,sp,80
    2f90:	00008067          	ret

00002f94 <__gedf2>:
    2f94:	fb010113          	addi	sp,sp,-80
    2f98:	00a12023          	sw	a0,0(sp)
    2f9c:	00b12223          	sw	a1,4(sp)
    2fa0:	00010513          	mv	a0,sp
    2fa4:	01010593          	addi	a1,sp,16
    2fa8:	04112623          	sw	ra,76(sp)
    2fac:	00c12423          	sw	a2,8(sp)
    2fb0:	00d12623          	sw	a3,12(sp)
    2fb4:	86dff0ef          	jal	2820 <__unpack_d>
    2fb8:	00810513          	addi	a0,sp,8
    2fbc:	02810593          	addi	a1,sp,40
    2fc0:	861ff0ef          	jal	2820 <__unpack_d>
    2fc4:	01012703          	lw	a4,16(sp)
    2fc8:	00100793          	li	a5,1
    2fcc:	fff00513          	li	a0,-1
    2fd0:	00e7fc63          	bleu	a4,a5,2fe8 <__gedf2+0x54>
    2fd4:	02812703          	lw	a4,40(sp)
    2fd8:	00e7f863          	bleu	a4,a5,2fe8 <__gedf2+0x54>
    2fdc:	02810593          	addi	a1,sp,40
    2fe0:	01010513          	addi	a0,sp,16
    2fe4:	e81ff0ef          	jal	2e64 <__fpcmp_parts_d>
    2fe8:	04c12083          	lw	ra,76(sp)
    2fec:	05010113          	addi	sp,sp,80
    2ff0:	00008067          	ret

00002ff4 <__gtdf2>:
    2ff4:	fa1ff06f          	j	2f94 <__gedf2>

00002ff8 <__ledf2>:
    2ff8:	fb010113          	addi	sp,sp,-80
    2ffc:	00a12023          	sw	a0,0(sp)
    3000:	00b12223          	sw	a1,4(sp)
    3004:	00010513          	mv	a0,sp
    3008:	01010593          	addi	a1,sp,16
    300c:	04112623          	sw	ra,76(sp)
    3010:	00c12423          	sw	a2,8(sp)
    3014:	00d12623          	sw	a3,12(sp)
    3018:	809ff0ef          	jal	2820 <__unpack_d>
    301c:	00810513          	addi	a0,sp,8
    3020:	02810593          	addi	a1,sp,40
    3024:	ffcff0ef          	jal	2820 <__unpack_d>
    3028:	01012783          	lw	a5,16(sp)
    302c:	00100513          	li	a0,1
    3030:	00f57c63          	bleu	a5,a0,3048 <__ledf2+0x50>
    3034:	02812783          	lw	a5,40(sp)
    3038:	00f57863          	bleu	a5,a0,3048 <__ledf2+0x50>
    303c:	02810593          	addi	a1,sp,40
    3040:	01010513          	addi	a0,sp,16
    3044:	e21ff0ef          	jal	2e64 <__fpcmp_parts_d>
    3048:	04c12083          	lw	ra,76(sp)
    304c:	05010113          	addi	sp,sp,80
    3050:	00008067          	ret

00003054 <__ltdf2>:
    3054:	fa5ff06f          	j	2ff8 <__ledf2>

00003058 <__nedf2>:
    3058:	fa1ff06f          	j	2ff8 <__ledf2>

0000305c <__eqdf2>:
    305c:	f9dff06f          	j	2ff8 <__ledf2>

00003060 <__unorddf2>:
    3060:	fb010113          	addi	sp,sp,-80
    3064:	00a12023          	sw	a0,0(sp)
    3068:	00b12223          	sw	a1,4(sp)
    306c:	00010513          	mv	a0,sp
    3070:	01010593          	addi	a1,sp,16
    3074:	04112623          	sw	ra,76(sp)
    3078:	00c12423          	sw	a2,8(sp)
    307c:	00d12623          	sw	a3,12(sp)
    3080:	fa0ff0ef          	jal	2820 <__unpack_d>
    3084:	00810513          	addi	a0,sp,8
    3088:	02810593          	addi	a1,sp,40
    308c:	f94ff0ef          	jal	2820 <__unpack_d>
    3090:	01012783          	lw	a5,16(sp)
    3094:	00100513          	li	a0,1
    3098:	00f57663          	bleu	a5,a0,30a4 <__unorddf2+0x44>
    309c:	02812503          	lw	a0,40(sp)
    30a0:	00253513          	sltiu	a0,a0,2
    30a4:	04c12083          	lw	ra,76(sp)
    30a8:	05010113          	addi	sp,sp,80
    30ac:	00008067          	ret

000030b0 <__floatsidf>:
    30b0:	fd010113          	addi	sp,sp,-48
    30b4:	01f55793          	srli	a5,a0,0x1f
    30b8:	00300713          	li	a4,3
    30bc:	02112623          	sw	ra,44(sp)
    30c0:	02812423          	sw	s0,40(sp)
    30c4:	00e12423          	sw	a4,8(sp)
    30c8:	00f12623          	sw	a5,12(sp)
    30cc:	02051263          	bnez	a0,30f0 <__floatsidf+0x40>
    30d0:	00200793          	li	a5,2
    30d4:	00f12423          	sw	a5,8(sp)
    30d8:	00810513          	addi	a0,sp,8
    30dc:	d00ff0ef          	jal	25dc <__pack_d>
    30e0:	02c12083          	lw	ra,44(sp)
    30e4:	02812403          	lw	s0,40(sp)
    30e8:	03010113          	addi	sp,sp,48
    30ec:	00008067          	ret
    30f0:	02054c63          	bltz	a0,3128 <__floatsidf+0x78>
    30f4:	00050413          	mv	s0,a0
    30f8:	00040513          	mv	a0,s0
    30fc:	480000ef          	jal	357c <__clzsi2>
    3100:	01d50513          	addi	a0,a0,29
    3104:	02057793          	andi	a5,a0,32
    3108:	04078063          	beqz	a5,3148 <__floatsidf+0x98>
    310c:	00a41433          	sll	s0,s0,a0
    3110:	00812e23          	sw	s0,28(sp)
    3114:	00012c23          	sw	zero,24(sp)
    3118:	03c00793          	li	a5,60
    311c:	40a78533          	sub	a0,a5,a0
    3120:	00a12823          	sw	a0,16(sp)
    3124:	fb5ff06f          	j	30d8 <__floatsidf+0x28>
    3128:	800007b7          	lui	a5,0x80000
    312c:	02f50c63          	beq	a0,a5,3164 <__floatsidf+0xb4>
    3130:	40a00433          	neg	s0,a0
    3134:	00040513          	mv	a0,s0
    3138:	444000ef          	jal	357c <__clzsi2>
    313c:	01d50513          	addi	a0,a0,29
    3140:	02057793          	andi	a5,a0,32
    3144:	fc0794e3          	bnez	a5,310c <__floatsidf+0x5c>
    3148:	00145793          	srli	a5,s0,0x1
    314c:	fff54713          	not	a4,a0
    3150:	00e7d7b3          	srl	a5,a5,a4
    3154:	00a41433          	sll	s0,s0,a0
    3158:	00f12e23          	sw	a5,28(sp)
    315c:	00812c23          	sw	s0,24(sp)
    3160:	fb9ff06f          	j	3118 <__floatsidf+0x68>
    3164:	8081a503          	lw	a0,-2040(gp) # 48a0 <main+0x6d4>
    3168:	80c1a583          	lw	a1,-2036(gp) # 48a4 <main+0x6d8>
    316c:	f75ff06f          	j	30e0 <__floatsidf+0x30>

00003170 <__floatunsidf>:
    3170:	fd010113          	addi	sp,sp,-48
    3174:	02112623          	sw	ra,44(sp)
    3178:	02812423          	sw	s0,40(sp)
    317c:	00012623          	sw	zero,12(sp)
    3180:	06050663          	beqz	a0,31ec <__floatunsidf+0x7c>
    3184:	00300793          	li	a5,3
    3188:	00f12423          	sw	a5,8(sp)
    318c:	00050413          	mv	s0,a0
    3190:	3ec000ef          	jal	357c <__clzsi2>
    3194:	01d50513          	addi	a0,a0,29
    3198:	02057793          	andi	a5,a0,32
    319c:	02078a63          	beqz	a5,31d0 <__floatunsidf+0x60>
    31a0:	00a41433          	sll	s0,s0,a0
    31a4:	00812e23          	sw	s0,28(sp)
    31a8:	00012c23          	sw	zero,24(sp)
    31ac:	03c00793          	li	a5,60
    31b0:	40a78533          	sub	a0,a5,a0
    31b4:	00a12823          	sw	a0,16(sp)
    31b8:	00810513          	addi	a0,sp,8
    31bc:	c20ff0ef          	jal	25dc <__pack_d>
    31c0:	02c12083          	lw	ra,44(sp)
    31c4:	02812403          	lw	s0,40(sp)
    31c8:	03010113          	addi	sp,sp,48
    31cc:	00008067          	ret
    31d0:	00145793          	srli	a5,s0,0x1
    31d4:	fff54713          	not	a4,a0
    31d8:	00e7d7b3          	srl	a5,a5,a4
    31dc:	00a41433          	sll	s0,s0,a0
    31e0:	00f12e23          	sw	a5,28(sp)
    31e4:	00812c23          	sw	s0,24(sp)
    31e8:	fc5ff06f          	j	31ac <__floatunsidf+0x3c>
    31ec:	00200793          	li	a5,2
    31f0:	00f12423          	sw	a5,8(sp)
    31f4:	fc5ff06f          	j	31b8 <__floatunsidf+0x48>

000031f8 <__fixdfsi>:
    31f8:	fd010113          	addi	sp,sp,-48
    31fc:	00a12023          	sw	a0,0(sp)
    3200:	00b12223          	sw	a1,4(sp)
    3204:	00010513          	mv	a0,sp
    3208:	00810593          	addi	a1,sp,8
    320c:	02112623          	sw	ra,44(sp)
    3210:	e10ff0ef          	jal	2820 <__unpack_d>
    3214:	00812783          	lw	a5,8(sp)
    3218:	00200713          	li	a4,2
    321c:	06f77463          	bleu	a5,a4,3284 <__fixdfsi+0x8c>
    3220:	00400713          	li	a4,4
    3224:	00e78a63          	beq	a5,a4,3238 <__fixdfsi+0x40>
    3228:	01012503          	lw	a0,16(sp)
    322c:	04054c63          	bltz	a0,3284 <__fixdfsi+0x8c>
    3230:	01e00793          	li	a5,30
    3234:	02a7d063          	ble	a0,a5,3254 <__fixdfsi+0x5c>
    3238:	00c12783          	lw	a5,12(sp)
    323c:	80000537          	lui	a0,0x80000
    3240:	00079463          	bnez	a5,3248 <__fixdfsi+0x50>
    3244:	fff54513          	not	a0,a0
    3248:	02c12083          	lw	ra,44(sp)
    324c:	03010113          	addi	sp,sp,48
    3250:	00008067          	ret
    3254:	03c00793          	li	a5,60
    3258:	40a78533          	sub	a0,a5,a0
    325c:	02057793          	andi	a5,a0,32
    3260:	02078a63          	beqz	a5,3294 <__fixdfsi+0x9c>
    3264:	01c12783          	lw	a5,28(sp)
    3268:	00a7d533          	srl	a0,a5,a0
    326c:	00c12783          	lw	a5,12(sp)
    3270:	fc078ce3          	beqz	a5,3248 <__fixdfsi+0x50>
    3274:	02c12083          	lw	ra,44(sp)
    3278:	40a00533          	neg	a0,a0
    327c:	03010113          	addi	sp,sp,48
    3280:	00008067          	ret
    3284:	02c12083          	lw	ra,44(sp)
    3288:	00000513          	li	a0,0
    328c:	03010113          	addi	sp,sp,48
    3290:	00008067          	ret
    3294:	01c12783          	lw	a5,28(sp)
    3298:	fff54713          	not	a4,a0
    329c:	00179793          	slli	a5,a5,0x1
    32a0:	00e797b3          	sll	a5,a5,a4
    32a4:	01812703          	lw	a4,24(sp)
    32a8:	00a75533          	srl	a0,a4,a0
    32ac:	00a7e533          	or	a0,a5,a0
    32b0:	fbdff06f          	j	326c <__fixdfsi+0x74>

000032b4 <__negdf2>:
    32b4:	fd010113          	addi	sp,sp,-48
    32b8:	00a12023          	sw	a0,0(sp)
    32bc:	00b12223          	sw	a1,4(sp)
    32c0:	00010513          	mv	a0,sp
    32c4:	00810593          	addi	a1,sp,8
    32c8:	02112623          	sw	ra,44(sp)
    32cc:	d54ff0ef          	jal	2820 <__unpack_d>
    32d0:	00c12783          	lw	a5,12(sp)
    32d4:	00810513          	addi	a0,sp,8
    32d8:	0017b793          	seqz	a5,a5
    32dc:	00f12623          	sw	a5,12(sp)
    32e0:	afcff0ef          	jal	25dc <__pack_d>
    32e4:	02c12083          	lw	ra,44(sp)
    32e8:	03010113          	addi	sp,sp,48
    32ec:	00008067          	ret

000032f0 <__make_dp>:
    32f0:	fd010113          	addi	sp,sp,-48
    32f4:	00a12423          	sw	a0,8(sp)
    32f8:	00810513          	addi	a0,sp,8
    32fc:	02112623          	sw	ra,44(sp)
    3300:	00b12623          	sw	a1,12(sp)
    3304:	00c12823          	sw	a2,16(sp)
    3308:	00e12c23          	sw	a4,24(sp)
    330c:	00f12e23          	sw	a5,28(sp)
    3310:	accff0ef          	jal	25dc <__pack_d>
    3314:	02c12083          	lw	ra,44(sp)
    3318:	03010113          	addi	sp,sp,48
    331c:	00008067          	ret

00003320 <__truncdfsf2>:
    3320:	fd010113          	addi	sp,sp,-48
    3324:	00a12023          	sw	a0,0(sp)
    3328:	00b12223          	sw	a1,4(sp)
    332c:	00010513          	mv	a0,sp
    3330:	00810593          	addi	a1,sp,8
    3334:	02112623          	sw	ra,44(sp)
    3338:	ce8ff0ef          	jal	2820 <__unpack_d>
    333c:	01812703          	lw	a4,24(sp)
    3340:	01c12683          	lw	a3,28(sp)
    3344:	01e75793          	srli	a5,a4,0x1e
    3348:	00269693          	slli	a3,a3,0x2
    334c:	00f6e6b3          	or	a3,a3,a5
    3350:	00271793          	slli	a5,a4,0x2
    3354:	00078463          	beqz	a5,335c <__truncdfsf2+0x3c>
    3358:	0016e693          	ori	a3,a3,1
    335c:	01012603          	lw	a2,16(sp)
    3360:	00c12583          	lw	a1,12(sp)
    3364:	00812503          	lw	a0,8(sp)
    3368:	5f9000ef          	jal	4160 <__make_fp>
    336c:	02c12083          	lw	ra,44(sp)
    3370:	03010113          	addi	sp,sp,48
    3374:	00008067          	ret

00003378 <__mulsi3>:
    3378:	00050613          	mv	a2,a0
    337c:	00000513          	li	a0,0
    3380:	01f59693          	slli	a3,a1,0x1f
    3384:	0006d463          	bgez	a3,338c <__mulsi3+0x14>
    3388:	00c50533          	add	a0,a0,a2
    338c:	0015d593          	srli	a1,a1,0x1
    3390:	00161613          	slli	a2,a2,0x1
    3394:	fe0596e3          	bnez	a1,3380 <__mulsi3+0x8>
    3398:	00008067          	ret

0000339c <__divsi3>:
    339c:	06054063          	bltz	a0,33fc <__umodsi3+0x10>
    33a0:	0605c663          	bltz	a1,340c <__umodsi3+0x20>

000033a4 <__udivsi3>:
    33a4:	00058613          	mv	a2,a1
    33a8:	00050593          	mv	a1,a0
    33ac:	fff00513          	li	a0,-1
    33b0:	02060c63          	beqz	a2,33e8 <__udivsi3+0x44>
    33b4:	00100693          	li	a3,1
    33b8:	00b67a63          	bleu	a1,a2,33cc <__udivsi3+0x28>
    33bc:	00c05863          	blez	a2,33cc <__udivsi3+0x28>
    33c0:	00161613          	slli	a2,a2,0x1
    33c4:	00169693          	slli	a3,a3,0x1
    33c8:	feb66ae3          	bltu	a2,a1,33bc <__udivsi3+0x18>
    33cc:	00000513          	li	a0,0
    33d0:	00c5e663          	bltu	a1,a2,33dc <__udivsi3+0x38>
    33d4:	40c585b3          	sub	a1,a1,a2
    33d8:	00d56533          	or	a0,a0,a3
    33dc:	0016d693          	srli	a3,a3,0x1
    33e0:	00165613          	srli	a2,a2,0x1
    33e4:	fe0696e3          	bnez	a3,33d0 <__udivsi3+0x2c>
    33e8:	00008067          	ret

000033ec <__umodsi3>:
    33ec:	00008293          	mv	t0,ra
    33f0:	fb5ff0ef          	jal	33a4 <__udivsi3>
    33f4:	00058513          	mv	a0,a1
    33f8:	00028067          	jr	t0
    33fc:	40a00533          	neg	a0,a0
    3400:	0005d863          	bgez	a1,3410 <__umodsi3+0x24>
    3404:	40b005b3          	neg	a1,a1
    3408:	f95ff06f          	j	339c <__divsi3>
    340c:	40b005b3          	neg	a1,a1
    3410:	00008293          	mv	t0,ra
    3414:	f89ff0ef          	jal	339c <__divsi3>
    3418:	40a00533          	neg	a0,a0
    341c:	00028067          	jr	t0

00003420 <__modsi3>:
    3420:	00008293          	mv	t0,ra
    3424:	0005ca63          	bltz	a1,3438 <__modsi3+0x18>
    3428:	00054c63          	bltz	a0,3440 <__modsi3+0x20>
    342c:	f79ff0ef          	jal	33a4 <__udivsi3>
    3430:	00058513          	mv	a0,a1
    3434:	00028067          	jr	t0
    3438:	40b005b3          	neg	a1,a1
    343c:	fe0558e3          	bgez	a0,342c <__modsi3+0xc>
    3440:	40a00533          	neg	a0,a0
    3444:	f61ff0ef          	jal	33a4 <__udivsi3>
    3448:	40b00533          	neg	a0,a1
    344c:	00028067          	jr	t0

00003450 <__muldi3>:
    3450:	fd010113          	addi	sp,sp,-48
    3454:	01912223          	sw	s9,4(sp)
    3458:	00010cb7          	lui	s9,0x10
    345c:	02812423          	sw	s0,40(sp)
    3460:	fffc8413          	addi	s0,s9,-1 # ffff <_end+0x807f>
    3464:	01612823          	sw	s6,16(sp)
    3468:	00a47b33          	and	s6,s0,a0
    346c:	00c47433          	and	s0,s0,a2
    3470:	03212023          	sw	s2,32(sp)
    3474:	01312e23          	sw	s3,28(sp)
    3478:	01812423          	sw	s8,8(sp)
    347c:	00050993          	mv	s3,a0
    3480:	01055c13          	srli	s8,a0,0x10
    3484:	00058913          	mv	s2,a1
    3488:	000b0513          	mv	a0,s6
    348c:	00040593          	mv	a1,s0
    3490:	02112623          	sw	ra,44(sp)
    3494:	02912223          	sw	s1,36(sp)
    3498:	01412c23          	sw	s4,24(sp)
    349c:	01512a23          	sw	s5,20(sp)
    34a0:	00060a13          	mv	s4,a2
    34a4:	01712623          	sw	s7,12(sp)
    34a8:	01a12023          	sw	s10,0(sp)
    34ac:	01065b93          	srli	s7,a2,0x10
    34b0:	00068d13          	mv	s10,a3
    34b4:	ec5ff0ef          	jal	3378 <__mulsi3>
    34b8:	00050a93          	mv	s5,a0
    34bc:	00040593          	mv	a1,s0
    34c0:	000c0513          	mv	a0,s8
    34c4:	eb5ff0ef          	jal	3378 <__mulsi3>
    34c8:	00050493          	mv	s1,a0
    34cc:	000b8593          	mv	a1,s7
    34d0:	000c0513          	mv	a0,s8
    34d4:	ea5ff0ef          	jal	3378 <__mulsi3>
    34d8:	00050413          	mv	s0,a0
    34dc:	000b8593          	mv	a1,s7
    34e0:	000b0513          	mv	a0,s6
    34e4:	e95ff0ef          	jal	3378 <__mulsi3>
    34e8:	00950533          	add	a0,a0,s1
    34ec:	010ad793          	srli	a5,s5,0x10
    34f0:	00a78533          	add	a0,a5,a0
    34f4:	00957463          	bleu	s1,a0,34fc <__muldi3+0xac>
    34f8:	01940433          	add	s0,s0,s9
    34fc:	000107b7          	lui	a5,0x10
    3500:	fff78713          	addi	a4,a5,-1 # ffff <_end+0x807f>
    3504:	00e574b3          	and	s1,a0,a4
    3508:	01055793          	srli	a5,a0,0x10
    350c:	00eaf733          	and	a4,s5,a4
    3510:	000d0593          	mv	a1,s10
    3514:	00098513          	mv	a0,s3
    3518:	01049493          	slli	s1,s1,0x10
    351c:	00878433          	add	s0,a5,s0
    3520:	00e484b3          	add	s1,s1,a4
    3524:	e55ff0ef          	jal	3378 <__mulsi3>
    3528:	00050993          	mv	s3,a0
    352c:	00090593          	mv	a1,s2
    3530:	000a0513          	mv	a0,s4
    3534:	e45ff0ef          	jal	3378 <__mulsi3>
    3538:	02c12083          	lw	ra,44(sp)
    353c:	00a985b3          	add	a1,s3,a0
    3540:	008585b3          	add	a1,a1,s0
    3544:	00048513          	mv	a0,s1
    3548:	02812403          	lw	s0,40(sp)
    354c:	02412483          	lw	s1,36(sp)
    3550:	02012903          	lw	s2,32(sp)
    3554:	01c12983          	lw	s3,28(sp)
    3558:	01812a03          	lw	s4,24(sp)
    355c:	01412a83          	lw	s5,20(sp)
    3560:	01012b03          	lw	s6,16(sp)
    3564:	00c12b83          	lw	s7,12(sp)
    3568:	00812c03          	lw	s8,8(sp)
    356c:	00412c83          	lw	s9,4(sp)
    3570:	00012d03          	lw	s10,0(sp)
    3574:	03010113          	addi	sp,sp,48
    3578:	00008067          	ret

0000357c <__clzsi2>:
    357c:	000107b7          	lui	a5,0x10
    3580:	02f57a63          	bleu	a5,a0,35b4 <__clzsi2+0x38>
    3584:	0ff00693          	li	a3,255
    3588:	01800713          	li	a4,24
    358c:	00800793          	li	a5,8
    3590:	00a6e663          	bltu	a3,a0,359c <__clzsi2+0x20>
    3594:	02000713          	li	a4,32
    3598:	00000793          	li	a5,0
    359c:	00f55533          	srl	a0,a0,a5
    35a0:	fe818793          	addi	a5,gp,-24 # 5080 <__clz_tab>
    35a4:	00f507b3          	add	a5,a0,a5
    35a8:	0007c503          	lbu	a0,0(a5) # 10000 <_end+0x8080>
    35ac:	40a70533          	sub	a0,a4,a0
    35b0:	00008067          	ret
    35b4:	010006b7          	lui	a3,0x1000
    35b8:	00800713          	li	a4,8
    35bc:	01800793          	li	a5,24
    35c0:	fcd57ee3          	bleu	a3,a0,359c <__clzsi2+0x20>
    35c4:	01000713          	li	a4,16
    35c8:	00070793          	mv	a5,a4
    35cc:	00f55533          	srl	a0,a0,a5
    35d0:	fe818793          	addi	a5,gp,-24 # 5080 <__clz_tab>
    35d4:	00f507b3          	add	a5,a0,a5
    35d8:	0007c503          	lbu	a0,0(a5)
    35dc:	40a70533          	sub	a0,a4,a0
    35e0:	00008067          	ret

000035e4 <_fpadd_parts>:
    35e4:	00052783          	lw	a5,0(a0) # 80000000 <_end+0x7fff8080>
    35e8:	00100713          	li	a4,1
    35ec:	0ef77463          	bleu	a5,a4,36d4 <_fpadd_parts+0xf0>
    35f0:	0005a683          	lw	a3,0(a1)
    35f4:	0cd77e63          	bleu	a3,a4,36d0 <_fpadd_parts+0xec>
    35f8:	00400813          	li	a6,4
    35fc:	15078c63          	beq	a5,a6,3754 <_fpadd_parts+0x170>
    3600:	0d068863          	beq	a3,a6,36d0 <_fpadd_parts+0xec>
    3604:	00200813          	li	a6,2
    3608:	11068663          	beq	a3,a6,3714 <_fpadd_parts+0x130>
    360c:	0d078263          	beq	a5,a6,36d0 <_fpadd_parts+0xec>
    3610:	00852303          	lw	t1,8(a0)
    3614:	0085a783          	lw	a5,8(a1)
    3618:	01f00693          	li	a3,31
    361c:	00c52383          	lw	t2,12(a0)
    3620:	40f30833          	sub	a6,t1,a5
    3624:	41f85293          	srai	t0,a6,0x1f
    3628:	0102c8b3          	xor	a7,t0,a6
    362c:	405888b3          	sub	a7,a7,t0
    3630:	00c5a283          	lw	t0,12(a1)
    3634:	0b16d263          	ble	a7,a3,36d8 <_fpadd_parts+0xf4>
    3638:	1067ca63          	blt	a5,t1,374c <_fpadd_parts+0x168>
    363c:	00078313          	mv	t1,a5
    3640:	00000393          	li	t2,0
    3644:	00452703          	lw	a4,4(a0)
    3648:	0045a783          	lw	a5,4(a1)
    364c:	0af70a63          	beq	a4,a5,3700 <_fpadd_parts+0x11c>
    3650:	405387b3          	sub	a5,t2,t0
    3654:	00070463          	beqz	a4,365c <_fpadd_parts+0x78>
    3658:	407287b3          	sub	a5,t0,t2
    365c:	1007c863          	bltz	a5,376c <_fpadd_parts+0x188>
    3660:	00062223          	sw	zero,4(a2)
    3664:	00662423          	sw	t1,8(a2)
    3668:	00f62623          	sw	a5,12(a2)
    366c:	400005b7          	lui	a1,0x40000
    3670:	fff78713          	addi	a4,a5,-1
    3674:	ffe58593          	addi	a1,a1,-2 # 3ffffffe <_end+0x3fff807e>
    3678:	02e5e463          	bltu	a1,a4,36a0 <_fpadd_parts+0xbc>
    367c:	00862703          	lw	a4,8(a2)
    3680:	fff70713          	addi	a4,a4,-1
    3684:	00179793          	slli	a5,a5,0x1
    3688:	fff78693          	addi	a3,a5,-1
    368c:	00070513          	mv	a0,a4
    3690:	fff70713          	addi	a4,a4,-1
    3694:	fed5f8e3          	bleu	a3,a1,3684 <_fpadd_parts+0xa0>
    3698:	00f62623          	sw	a5,12(a2)
    369c:	00a62423          	sw	a0,8(a2)
    36a0:	00300713          	li	a4,3
    36a4:	00e62023          	sw	a4,0(a2)
    36a8:	00060513          	mv	a0,a2
    36ac:	0207d463          	bgez	a5,36d4 <_fpadd_parts+0xf0>
    36b0:	00862703          	lw	a4,8(a2)
    36b4:	0017d693          	srli	a3,a5,0x1
    36b8:	0017f793          	andi	a5,a5,1
    36bc:	00f6e7b3          	or	a5,a3,a5
    36c0:	00170713          	addi	a4,a4,1
    36c4:	00f62623          	sw	a5,12(a2)
    36c8:	00e62423          	sw	a4,8(a2)
    36cc:	00008067          	ret
    36d0:	00058513          	mv	a0,a1
    36d4:	00008067          	ret
    36d8:	0b005663          	blez	a6,3784 <_fpadd_parts+0x1a0>
    36dc:	011716b3          	sll	a3,a4,a7
    36e0:	fff68693          	addi	a3,a3,-1 # ffffff <_end+0xff807f>
    36e4:	0056f6b3          	and	a3,a3,t0
    36e8:	00d03733          	snez	a4,a3
    36ec:	0112d2b3          	srl	t0,t0,a7
    36f0:	00e2e2b3          	or	t0,t0,a4
    36f4:	0045a783          	lw	a5,4(a1)
    36f8:	00452703          	lw	a4,4(a0)
    36fc:	f4f71ae3          	bne	a4,a5,3650 <_fpadd_parts+0x6c>
    3700:	005387b3          	add	a5,t2,t0
    3704:	00e62223          	sw	a4,4(a2)
    3708:	00662423          	sw	t1,8(a2)
    370c:	00f62623          	sw	a5,12(a2)
    3710:	f91ff06f          	j	36a0 <_fpadd_parts+0xbc>
    3714:	fcd790e3          	bne	a5,a3,36d4 <_fpadd_parts+0xf0>
    3718:	00f62023          	sw	a5,0(a2)
    371c:	00452783          	lw	a5,4(a0)
    3720:	00f62223          	sw	a5,4(a2)
    3724:	00852703          	lw	a4,8(a0)
    3728:	00452683          	lw	a3,4(a0)
    372c:	0045a783          	lw	a5,4(a1)
    3730:	00e62423          	sw	a4,8(a2)
    3734:	00c52703          	lw	a4,12(a0)
    3738:	00f6f7b3          	and	a5,a3,a5
    373c:	00f62223          	sw	a5,4(a2)
    3740:	00e62623          	sw	a4,12(a2)
    3744:	00060513          	mv	a0,a2
    3748:	00008067          	ret
    374c:	00000293          	li	t0,0
    3750:	ef5ff06f          	j	3644 <_fpadd_parts+0x60>
    3754:	f8f690e3          	bne	a3,a5,36d4 <_fpadd_parts+0xf0>
    3758:	00452703          	lw	a4,4(a0)
    375c:	0045a783          	lw	a5,4(a1)
    3760:	f6f70ae3          	beq	a4,a5,36d4 <_fpadd_parts+0xf0>
    3764:	0e818513          	addi	a0,gp,232 # 5180 <__thenan_sf>
    3768:	00008067          	ret
    376c:	40f007b3          	neg	a5,a5
    3770:	00100713          	li	a4,1
    3774:	00e62223          	sw	a4,4(a2)
    3778:	00662423          	sw	t1,8(a2)
    377c:	00f62623          	sw	a5,12(a2)
    3780:	eedff06f          	j	366c <_fpadd_parts+0x88>
    3784:	ec0800e3          	beqz	a6,3644 <_fpadd_parts+0x60>
    3788:	01171833          	sll	a6,a4,a7
    378c:	fff80813          	addi	a6,a6,-1
    3790:	00787833          	and	a6,a6,t2
    3794:	0113d7b3          	srl	a5,t2,a7
    3798:	010036b3          	snez	a3,a6
    379c:	01130333          	add	t1,t1,a7
    37a0:	00d7e3b3          	or	t2,a5,a3
    37a4:	ea1ff06f          	j	3644 <_fpadd_parts+0x60>

000037a8 <__pack_f>:
    37a8:	00052783          	lw	a5,0(a0)
    37ac:	00100613          	li	a2,1
    37b0:	00c52683          	lw	a3,12(a0)
    37b4:	00452583          	lw	a1,4(a0)
    37b8:	08f67a63          	bleu	a5,a2,384c <__pack_f+0xa4>
    37bc:	00400713          	li	a4,4
    37c0:	08e78063          	beq	a5,a4,3840 <__pack_f+0x98>
    37c4:	00200713          	li	a4,2
    37c8:	04e78263          	beq	a5,a4,380c <__pack_f+0x64>
    37cc:	04068063          	beqz	a3,380c <__pack_f+0x64>
    37d0:	00852703          	lw	a4,8(a0)
    37d4:	f8200793          	li	a5,-126
    37d8:	0af74c63          	blt	a4,a5,3890 <__pack_f+0xe8>
    37dc:	07f00793          	li	a5,127
    37e0:	06e7c063          	blt	a5,a4,3840 <__pack_f+0x98>
    37e4:	00f6f7b3          	and	a5,a3,a5
    37e8:	04000613          	li	a2,64
    37ec:	08c78463          	beq	a5,a2,3874 <__pack_f+0xcc>
    37f0:	03f68693          	addi	a3,a3,63
    37f4:	0806c863          	bltz	a3,3884 <__pack_f+0xdc>
    37f8:	07f70713          	addi	a4,a4,127
    37fc:	00269693          	slli	a3,a3,0x2
    3800:	0096d693          	srli	a3,a3,0x9
    3804:	0ff77713          	andi	a4,a4,255
    3808:	00c0006f          	j	3814 <__pack_f+0x6c>
    380c:	00000713          	li	a4,0
    3810:	00000693          	li	a3,0
    3814:	008007b7          	lui	a5,0x800
    3818:	fff78793          	addi	a5,a5,-1 # 7fffff <_end+0x7f807f>
    381c:	80800637          	lui	a2,0x80800
    3820:	00f6f7b3          	and	a5,a3,a5
    3824:	fff60613          	addi	a2,a2,-1 # 807fffff <_end+0x807f807f>
    3828:	01771713          	slli	a4,a4,0x17
    382c:	00c7f7b3          	and	a5,a5,a2
    3830:	01f59513          	slli	a0,a1,0x1f
    3834:	00e7e7b3          	or	a5,a5,a4
    3838:	00a7e533          	or	a0,a5,a0
    383c:	00008067          	ret
    3840:	0ff00713          	li	a4,255
    3844:	00000693          	li	a3,0
    3848:	fcdff06f          	j	3814 <__pack_f+0x6c>
    384c:	004007b7          	lui	a5,0x400
    3850:	0076d713          	srli	a4,a3,0x7
    3854:	fff78693          	addi	a3,a5,-1 # 3fffff <_end+0x3f807f>
    3858:	00d776b3          	and	a3,a4,a3
    385c:	00f6e6b3          	or	a3,a3,a5
    3860:	008007b7          	lui	a5,0x800
    3864:	fff78793          	addi	a5,a5,-1 # 7fffff <_end+0x7f807f>
    3868:	00f6f6b3          	and	a3,a3,a5
    386c:	0ff00713          	li	a4,255
    3870:	fa5ff06f          	j	3814 <__pack_f+0x6c>
    3874:	0806f793          	andi	a5,a3,128
    3878:	f6078ee3          	beqz	a5,37f4 <__pack_f+0x4c>
    387c:	00c686b3          	add	a3,a3,a2
    3880:	f75ff06f          	j	37f4 <__pack_f+0x4c>
    3884:	0016d693          	srli	a3,a3,0x1
    3888:	08070713          	addi	a4,a4,128
    388c:	f71ff06f          	j	37fc <__pack_f+0x54>
    3890:	40e78733          	sub	a4,a5,a4
    3894:	01900793          	li	a5,25
    3898:	f6e7cae3          	blt	a5,a4,380c <__pack_f+0x64>
    389c:	00e617b3          	sll	a5,a2,a4
    38a0:	fff78793          	addi	a5,a5,-1
    38a4:	00d7f7b3          	and	a5,a5,a3
    38a8:	00e6d6b3          	srl	a3,a3,a4
    38ac:	00f03733          	snez	a4,a5
    38b0:	00e6e6b3          	or	a3,a3,a4
    38b4:	07f6f713          	andi	a4,a3,127
    38b8:	04000793          	li	a5,64
    38bc:	02f71263          	bne	a4,a5,38e0 <__pack_f+0x138>
    38c0:	0806f793          	andi	a5,a3,128
    38c4:	02079c63          	bnez	a5,38fc <__pack_f+0x154>
    38c8:	40000737          	lui	a4,0x40000
    38cc:	00e6b733          	sltu	a4,a3,a4
    38d0:	00269613          	slli	a2,a3,0x2
    38d4:	00965693          	srli	a3,a2,0x9
    38d8:	00174713          	xori	a4,a4,1
    38dc:	f39ff06f          	j	3814 <__pack_f+0x6c>
    38e0:	03f68713          	addi	a4,a3,63
    38e4:	400007b7          	lui	a5,0x40000
    38e8:	00271693          	slli	a3,a4,0x2
    38ec:	00f73733          	sltu	a4,a4,a5
    38f0:	0096d693          	srli	a3,a3,0x9
    38f4:	00174713          	xori	a4,a4,1
    38f8:	f1dff06f          	j	3814 <__pack_f+0x6c>
    38fc:	04068713          	addi	a4,a3,64
    3900:	fe5ff06f          	j	38e4 <__pack_f+0x13c>

00003904 <__unpack_f>:
    3904:	00255703          	lhu	a4,2(a0)
    3908:	00354683          	lbu	a3,3(a0)
    390c:	00052603          	lw	a2,0(a0)
    3910:	00775713          	srli	a4,a4,0x7
    3914:	008007b7          	lui	a5,0x800
    3918:	0076d693          	srli	a3,a3,0x7
    391c:	fff78793          	addi	a5,a5,-1 # 7fffff <_end+0x7f807f>
    3920:	0ff77713          	andi	a4,a4,255
    3924:	00f677b3          	and	a5,a2,a5
    3928:	00d5a223          	sw	a3,4(a1)
    392c:	02071c63          	bnez	a4,3964 <__unpack_f+0x60>
    3930:	06078063          	beqz	a5,3990 <__unpack_f+0x8c>
    3934:	00300713          	li	a4,3
    3938:	00e5a023          	sw	a4,0(a1)
    393c:	00779793          	slli	a5,a5,0x7
    3940:	f8100713          	li	a4,-127
    3944:	40000637          	lui	a2,0x40000
    3948:	00179793          	slli	a5,a5,0x1
    394c:	00070693          	mv	a3,a4
    3950:	fff70713          	addi	a4,a4,-1 # 3fffffff <_end+0x3fff807f>
    3954:	fec7eae3          	bltu	a5,a2,3948 <__unpack_f+0x44>
    3958:	00d5a423          	sw	a3,8(a1)
    395c:	00f5a623          	sw	a5,12(a1)
    3960:	00008067          	ret
    3964:	0ff00693          	li	a3,255
    3968:	02d70a63          	beq	a4,a3,399c <__unpack_f+0x98>
    396c:	f8170713          	addi	a4,a4,-127
    3970:	00779793          	slli	a5,a5,0x7
    3974:	400006b7          	lui	a3,0x40000
    3978:	00d7e7b3          	or	a5,a5,a3
    397c:	00e5a423          	sw	a4,8(a1)
    3980:	00300713          	li	a4,3
    3984:	00e5a023          	sw	a4,0(a1)
    3988:	00f5a623          	sw	a5,12(a1)
    398c:	00008067          	ret
    3990:	00200793          	li	a5,2
    3994:	00f5a023          	sw	a5,0(a1)
    3998:	00008067          	ret
    399c:	02078663          	beqz	a5,39c8 <__unpack_f+0xc4>
    39a0:	00979713          	slli	a4,a5,0x9
    39a4:	02075863          	bgez	a4,39d4 <__unpack_f+0xd0>
    39a8:	00100713          	li	a4,1
    39ac:	00e5a023          	sw	a4,0(a1)
    39b0:	ffc00737          	lui	a4,0xffc00
    39b4:	fff70713          	addi	a4,a4,-1 # ffbfffff <_end+0xffbf807f>
    39b8:	00e7f7b3          	and	a5,a5,a4
    39bc:	00779793          	slli	a5,a5,0x7
    39c0:	00f5a623          	sw	a5,12(a1)
    39c4:	00008067          	ret
    39c8:	00400793          	li	a5,4
    39cc:	00f5a023          	sw	a5,0(a1)
    39d0:	00008067          	ret
    39d4:	0005a023          	sw	zero,0(a1)
    39d8:	fd9ff06f          	j	39b0 <__unpack_f+0xac>

000039dc <__addsf3>:
    39dc:	fb010113          	addi	sp,sp,-80
    39e0:	00a12423          	sw	a0,8(sp)
    39e4:	00b12623          	sw	a1,12(sp)
    39e8:	00810513          	addi	a0,sp,8
    39ec:	01010593          	addi	a1,sp,16
    39f0:	04112623          	sw	ra,76(sp)
    39f4:	f11ff0ef          	jal	3904 <__unpack_f>
    39f8:	02010593          	addi	a1,sp,32
    39fc:	00c10513          	addi	a0,sp,12
    3a00:	f05ff0ef          	jal	3904 <__unpack_f>
    3a04:	03010613          	addi	a2,sp,48
    3a08:	02010593          	addi	a1,sp,32
    3a0c:	01010513          	addi	a0,sp,16
    3a10:	bd5ff0ef          	jal	35e4 <_fpadd_parts>
    3a14:	d95ff0ef          	jal	37a8 <__pack_f>
    3a18:	04c12083          	lw	ra,76(sp)
    3a1c:	05010113          	addi	sp,sp,80
    3a20:	00008067          	ret

00003a24 <__subsf3>:
    3a24:	fb010113          	addi	sp,sp,-80
    3a28:	00a12423          	sw	a0,8(sp)
    3a2c:	00b12623          	sw	a1,12(sp)
    3a30:	00810513          	addi	a0,sp,8
    3a34:	01010593          	addi	a1,sp,16
    3a38:	04112623          	sw	ra,76(sp)
    3a3c:	ec9ff0ef          	jal	3904 <__unpack_f>
    3a40:	02010593          	addi	a1,sp,32
    3a44:	00c10513          	addi	a0,sp,12
    3a48:	ebdff0ef          	jal	3904 <__unpack_f>
    3a4c:	02412783          	lw	a5,36(sp)
    3a50:	03010613          	addi	a2,sp,48
    3a54:	02010593          	addi	a1,sp,32
    3a58:	0017c793          	xori	a5,a5,1
    3a5c:	01010513          	addi	a0,sp,16
    3a60:	02f12223          	sw	a5,36(sp)
    3a64:	b81ff0ef          	jal	35e4 <_fpadd_parts>
    3a68:	d41ff0ef          	jal	37a8 <__pack_f>
    3a6c:	04c12083          	lw	ra,76(sp)
    3a70:	05010113          	addi	sp,sp,80
    3a74:	00008067          	ret

00003a78 <__mulsf3>:
    3a78:	fb010113          	addi	sp,sp,-80
    3a7c:	00a12423          	sw	a0,8(sp)
    3a80:	00b12623          	sw	a1,12(sp)
    3a84:	00810513          	addi	a0,sp,8
    3a88:	01010593          	addi	a1,sp,16
    3a8c:	04112623          	sw	ra,76(sp)
    3a90:	e75ff0ef          	jal	3904 <__unpack_f>
    3a94:	02010593          	addi	a1,sp,32
    3a98:	00c10513          	addi	a0,sp,12
    3a9c:	e69ff0ef          	jal	3904 <__unpack_f>
    3aa0:	01012783          	lw	a5,16(sp)
    3aa4:	00100693          	li	a3,1
    3aa8:	0ef6f863          	bleu	a5,a3,3b98 <__mulsf3+0x120>
    3aac:	02012703          	lw	a4,32(sp)
    3ab0:	0ae6fc63          	bleu	a4,a3,3b68 <__mulsf3+0xf0>
    3ab4:	00400693          	li	a3,4
    3ab8:	0cd78c63          	beq	a5,a3,3b90 <__mulsf3+0x118>
    3abc:	0ad70263          	beq	a4,a3,3b60 <__mulsf3+0xe8>
    3ac0:	00200693          	li	a3,2
    3ac4:	0cd78a63          	beq	a5,a3,3b98 <__mulsf3+0x120>
    3ac8:	0ad70063          	beq	a4,a3,3b68 <__mulsf3+0xf0>
    3acc:	02c12603          	lw	a2,44(sp)
    3ad0:	01c12503          	lw	a0,28(sp)
    3ad4:	00000693          	li	a3,0
    3ad8:	00000593          	li	a1,0
    3adc:	975ff0ef          	jal	3450 <__muldi3>
    3ae0:	02812703          	lw	a4,40(sp)
    3ae4:	01812783          	lw	a5,24(sp)
    3ae8:	02412603          	lw	a2,36(sp)
    3aec:	00050693          	mv	a3,a0
    3af0:	00e787b3          	add	a5,a5,a4
    3af4:	01412703          	lw	a4,20(sp)
    3af8:	00278813          	addi	a6,a5,2
    3afc:	03012c23          	sw	a6,56(sp)
    3b00:	40c70633          	sub	a2,a4,a2
    3b04:	00c03633          	snez	a2,a2
    3b08:	00058713          	mv	a4,a1
    3b0c:	02c12a23          	sw	a2,52(sp)
    3b10:	0c05d863          	bgez	a1,3be0 <__mulsf3+0x168>
    3b14:	0015f713          	andi	a4,a1,1
    3b18:	00378793          	addi	a5,a5,3
    3b1c:	00070863          	beqz	a4,3b2c <__mulsf3+0xb4>
    3b20:	00155693          	srli	a3,a0,0x1
    3b24:	80000737          	lui	a4,0x80000
    3b28:	00e6e6b3          	or	a3,a3,a4
    3b2c:	0015d713          	srli	a4,a1,0x1
    3b30:	02f12c23          	sw	a5,56(sp)
    3b34:	07f77793          	andi	a5,a4,127
    3b38:	04000613          	li	a2,64
    3b3c:	08c78263          	beq	a5,a2,3bc0 <__mulsf3+0x148>
    3b40:	00300793          	li	a5,3
    3b44:	02e12e23          	sw	a4,60(sp)
    3b48:	02f12823          	sw	a5,48(sp)
    3b4c:	03010513          	addi	a0,sp,48
    3b50:	c59ff0ef          	jal	37a8 <__pack_f>
    3b54:	04c12083          	lw	ra,76(sp)
    3b58:	05010113          	addi	sp,sp,80
    3b5c:	00008067          	ret
    3b60:	00200713          	li	a4,2
    3b64:	06e78a63          	beq	a5,a4,3bd8 <__mulsf3+0x160>
    3b68:	02412703          	lw	a4,36(sp)
    3b6c:	01412783          	lw	a5,20(sp)
    3b70:	02010513          	addi	a0,sp,32
    3b74:	40e787b3          	sub	a5,a5,a4
    3b78:	00f037b3          	snez	a5,a5
    3b7c:	02f12223          	sw	a5,36(sp)
    3b80:	c29ff0ef          	jal	37a8 <__pack_f>
    3b84:	04c12083          	lw	ra,76(sp)
    3b88:	05010113          	addi	sp,sp,80
    3b8c:	00008067          	ret
    3b90:	00200793          	li	a5,2
    3b94:	04f70263          	beq	a4,a5,3bd8 <__mulsf3+0x160>
    3b98:	02412703          	lw	a4,36(sp)
    3b9c:	01412783          	lw	a5,20(sp)
    3ba0:	01010513          	addi	a0,sp,16
    3ba4:	40e787b3          	sub	a5,a5,a4
    3ba8:	00f037b3          	snez	a5,a5
    3bac:	00f12a23          	sw	a5,20(sp)
    3bb0:	bf9ff0ef          	jal	37a8 <__pack_f>
    3bb4:	04c12083          	lw	ra,76(sp)
    3bb8:	05010113          	addi	sp,sp,80
    3bbc:	00008067          	ret
    3bc0:	08077793          	andi	a5,a4,128
    3bc4:	f6079ee3          	bnez	a5,3b40 <__mulsf3+0xc8>
    3bc8:	f6068ce3          	beqz	a3,3b40 <__mulsf3+0xc8>
    3bcc:	00c70733          	add	a4,a4,a2
    3bd0:	f8077713          	andi	a4,a4,-128
    3bd4:	f6dff06f          	j	3b40 <__mulsf3+0xc8>
    3bd8:	0e818513          	addi	a0,gp,232 # 5180 <__thenan_sf>
    3bdc:	f75ff06f          	j	3b50 <__mulsf3+0xd8>
    3be0:	40000637          	lui	a2,0x40000
    3be4:	f4c5f8e3          	bleu	a2,a1,3b34 <__mulsf3+0xbc>
    3be8:	00178793          	addi	a5,a5,1
    3bec:	0100006f          	j	3bfc <__mulsf3+0x184>
    3bf0:	00169693          	slli	a3,a3,0x1
    3bf4:	fff78793          	addi	a5,a5,-1
    3bf8:	02c77063          	bleu	a2,a4,3c18 <__mulsf3+0x1a0>
    3bfc:	00171713          	slli	a4,a4,0x1
    3c00:	00078593          	mv	a1,a5
    3c04:	fe06d6e3          	bgez	a3,3bf0 <__mulsf3+0x178>
    3c08:	00176713          	ori	a4,a4,1
    3c0c:	00169693          	slli	a3,a3,0x1
    3c10:	fff78793          	addi	a5,a5,-1
    3c14:	fec764e3          	bltu	a4,a2,3bfc <__mulsf3+0x184>
    3c18:	02b12c23          	sw	a1,56(sp)
    3c1c:	f19ff06f          	j	3b34 <__mulsf3+0xbc>

00003c20 <__divsf3>:
    3c20:	fc010113          	addi	sp,sp,-64
    3c24:	00a12423          	sw	a0,8(sp)
    3c28:	00b12623          	sw	a1,12(sp)
    3c2c:	00810513          	addi	a0,sp,8
    3c30:	01010593          	addi	a1,sp,16
    3c34:	02112e23          	sw	ra,60(sp)
    3c38:	ccdff0ef          	jal	3904 <__unpack_f>
    3c3c:	02010593          	addi	a1,sp,32
    3c40:	00c10513          	addi	a0,sp,12
    3c44:	cc1ff0ef          	jal	3904 <__unpack_f>
    3c48:	01012683          	lw	a3,16(sp)
    3c4c:	00100793          	li	a5,1
    3c50:	08d7f663          	bleu	a3,a5,3cdc <__divsf3+0xbc>
    3c54:	02012603          	lw	a2,32(sp)
    3c58:	0ec7f463          	bleu	a2,a5,3d40 <__divsf3+0x120>
    3c5c:	01412583          	lw	a1,20(sp)
    3c60:	02412703          	lw	a4,36(sp)
    3c64:	ffe68793          	addi	a5,a3,-2 # 3ffffffe <_end+0x3fff807e>
    3c68:	ffd7f793          	andi	a5,a5,-3
    3c6c:	00e5c733          	xor	a4,a1,a4
    3c70:	00e12a23          	sw	a4,20(sp)
    3c74:	06078e63          	beqz	a5,3cf0 <__divsf3+0xd0>
    3c78:	00400793          	li	a5,4
    3c7c:	08f60863          	beq	a2,a5,3d0c <__divsf3+0xec>
    3c80:	00200713          	li	a4,2
    3c84:	0ae60863          	beq	a2,a4,3d34 <__divsf3+0x114>
    3c88:	01812703          	lw	a4,24(sp)
    3c8c:	02812683          	lw	a3,40(sp)
    3c90:	01c12783          	lw	a5,28(sp)
    3c94:	02c12603          	lw	a2,44(sp)
    3c98:	40d70733          	sub	a4,a4,a3
    3c9c:	00e12c23          	sw	a4,24(sp)
    3ca0:	04c7ee63          	bltu	a5,a2,3cfc <__divsf3+0xdc>
    3ca4:	01f00713          	li	a4,31
    3ca8:	00000593          	li	a1,0
    3cac:	400006b7          	lui	a3,0x40000
    3cb0:	fff70713          	addi	a4,a4,-1 # 7fffffff <_end+0x7fff807f>
    3cb4:	00c7e663          	bltu	a5,a2,3cc0 <__divsf3+0xa0>
    3cb8:	00d5e5b3          	or	a1,a1,a3
    3cbc:	40c787b3          	sub	a5,a5,a2
    3cc0:	0016d693          	srli	a3,a3,0x1
    3cc4:	00179793          	slli	a5,a5,0x1
    3cc8:	fe0714e3          	bnez	a4,3cb0 <__divsf3+0x90>
    3ccc:	07f5f713          	andi	a4,a1,127
    3cd0:	04000693          	li	a3,64
    3cd4:	04d70463          	beq	a4,a3,3d1c <__divsf3+0xfc>
    3cd8:	00b12e23          	sw	a1,28(sp)
    3cdc:	01010513          	addi	a0,sp,16
    3ce0:	ac9ff0ef          	jal	37a8 <__pack_f>
    3ce4:	03c12083          	lw	ra,60(sp)
    3ce8:	04010113          	addi	sp,sp,64
    3cec:	00008067          	ret
    3cf0:	fec696e3          	bne	a3,a2,3cdc <__divsf3+0xbc>
    3cf4:	0e818513          	addi	a0,gp,232 # 5180 <__thenan_sf>
    3cf8:	fe9ff06f          	j	3ce0 <__divsf3+0xc0>
    3cfc:	fff70713          	addi	a4,a4,-1
    3d00:	00179793          	slli	a5,a5,0x1
    3d04:	00e12c23          	sw	a4,24(sp)
    3d08:	f9dff06f          	j	3ca4 <__divsf3+0x84>
    3d0c:	00012e23          	sw	zero,28(sp)
    3d10:	00012c23          	sw	zero,24(sp)
    3d14:	01010513          	addi	a0,sp,16
    3d18:	fc9ff06f          	j	3ce0 <__divsf3+0xc0>
    3d1c:	0805f713          	andi	a4,a1,128
    3d20:	fa071ce3          	bnez	a4,3cd8 <__divsf3+0xb8>
    3d24:	fa078ae3          	beqz	a5,3cd8 <__divsf3+0xb8>
    3d28:	00d585b3          	add	a1,a1,a3
    3d2c:	f805f593          	andi	a1,a1,-128
    3d30:	fa9ff06f          	j	3cd8 <__divsf3+0xb8>
    3d34:	00f12823          	sw	a5,16(sp)
    3d38:	01010513          	addi	a0,sp,16
    3d3c:	fa5ff06f          	j	3ce0 <__divsf3+0xc0>
    3d40:	02010513          	addi	a0,sp,32
    3d44:	f9dff06f          	j	3ce0 <__divsf3+0xc0>

00003d48 <__fpcmp_parts_f>:
    3d48:	00052703          	lw	a4,0(a0)
    3d4c:	00100793          	li	a5,1
    3d50:	00050613          	mv	a2,a0
    3d54:	06e7fe63          	bleu	a4,a5,3dd0 <__fpcmp_parts_f+0x88>
    3d58:	0005a683          	lw	a3,0(a1)
    3d5c:	00078513          	mv	a0,a5
    3d60:	04d7f063          	bleu	a3,a5,3da0 <__fpcmp_parts_f+0x58>
    3d64:	00400793          	li	a5,4
    3d68:	04f70863          	beq	a4,a5,3db8 <__fpcmp_parts_f+0x70>
    3d6c:	02f68c63          	beq	a3,a5,3da4 <__fpcmp_parts_f+0x5c>
    3d70:	00200793          	li	a5,2
    3d74:	02f70263          	beq	a4,a5,3d98 <__fpcmp_parts_f+0x50>
    3d78:	04f68263          	beq	a3,a5,3dbc <__fpcmp_parts_f+0x74>
    3d7c:	00462783          	lw	a5,4(a2) # 40000004 <_end+0x3fff8084>
    3d80:	0045a703          	lw	a4,4(a1)
    3d84:	04e78a63          	beq	a5,a4,3dd8 <__fpcmp_parts_f+0x90>
    3d88:	00f03533          	snez	a0,a5
    3d8c:	40a00533          	neg	a0,a0
    3d90:	00156513          	ori	a0,a0,1
    3d94:	00008067          	ret
    3d98:	00e69663          	bne	a3,a4,3da4 <__fpcmp_parts_f+0x5c>
    3d9c:	00000513          	li	a0,0
    3da0:	00008067          	ret
    3da4:	0045a503          	lw	a0,4(a1)
    3da8:	00153513          	seqz	a0,a0
    3dac:	40a00533          	neg	a0,a0
    3db0:	00156513          	ori	a0,a0,1
    3db4:	00008067          	ret
    3db8:	04e68a63          	beq	a3,a4,3e0c <__fpcmp_parts_f+0xc4>
    3dbc:	00462503          	lw	a0,4(a2)
    3dc0:	00a03533          	snez	a0,a0
    3dc4:	40a00533          	neg	a0,a0
    3dc8:	00156513          	ori	a0,a0,1
    3dcc:	00008067          	ret
    3dd0:	00078513          	mv	a0,a5
    3dd4:	00008067          	ret
    3dd8:	00862683          	lw	a3,8(a2)
    3ddc:	0085a703          	lw	a4,8(a1)
    3de0:	fad744e3          	blt	a4,a3,3d88 <__fpcmp_parts_f+0x40>
    3de4:	00e6cc63          	blt	a3,a4,3dfc <__fpcmp_parts_f+0xb4>
    3de8:	00c62683          	lw	a3,12(a2)
    3dec:	00c5a703          	lw	a4,12(a1)
    3df0:	f8d76ce3          	bltu	a4,a3,3d88 <__fpcmp_parts_f+0x40>
    3df4:	00000513          	li	a0,0
    3df8:	fae6f4e3          	bleu	a4,a3,3da0 <__fpcmp_parts_f+0x58>
    3dfc:	0017b513          	seqz	a0,a5
    3e00:	40a00533          	neg	a0,a0
    3e04:	00156513          	ori	a0,a0,1
    3e08:	00008067          	ret
    3e0c:	0045a783          	lw	a5,4(a1)
    3e10:	00462503          	lw	a0,4(a2)
    3e14:	40a78533          	sub	a0,a5,a0
    3e18:	00008067          	ret

00003e1c <__cmpsf2>:
    3e1c:	fc010113          	addi	sp,sp,-64
    3e20:	00a12423          	sw	a0,8(sp)
    3e24:	00b12623          	sw	a1,12(sp)
    3e28:	00810513          	addi	a0,sp,8
    3e2c:	01010593          	addi	a1,sp,16
    3e30:	02112e23          	sw	ra,60(sp)
    3e34:	ad1ff0ef          	jal	3904 <__unpack_f>
    3e38:	02010593          	addi	a1,sp,32
    3e3c:	00c10513          	addi	a0,sp,12
    3e40:	ac5ff0ef          	jal	3904 <__unpack_f>
    3e44:	02010593          	addi	a1,sp,32
    3e48:	01010513          	addi	a0,sp,16
    3e4c:	efdff0ef          	jal	3d48 <__fpcmp_parts_f>
    3e50:	03c12083          	lw	ra,60(sp)
    3e54:	04010113          	addi	sp,sp,64
    3e58:	00008067          	ret

00003e5c <__gesf2>:
    3e5c:	fc010113          	addi	sp,sp,-64
    3e60:	00a12423          	sw	a0,8(sp)
    3e64:	00b12623          	sw	a1,12(sp)
    3e68:	00810513          	addi	a0,sp,8
    3e6c:	01010593          	addi	a1,sp,16
    3e70:	02112e23          	sw	ra,60(sp)
    3e74:	a91ff0ef          	jal	3904 <__unpack_f>
    3e78:	00c10513          	addi	a0,sp,12
    3e7c:	02010593          	addi	a1,sp,32
    3e80:	a85ff0ef          	jal	3904 <__unpack_f>
    3e84:	01012703          	lw	a4,16(sp)
    3e88:	00100793          	li	a5,1
    3e8c:	fff00513          	li	a0,-1
    3e90:	00e7fc63          	bleu	a4,a5,3ea8 <__gesf2+0x4c>
    3e94:	02012703          	lw	a4,32(sp)
    3e98:	00e7f863          	bleu	a4,a5,3ea8 <__gesf2+0x4c>
    3e9c:	02010593          	addi	a1,sp,32
    3ea0:	01010513          	addi	a0,sp,16
    3ea4:	ea5ff0ef          	jal	3d48 <__fpcmp_parts_f>
    3ea8:	03c12083          	lw	ra,60(sp)
    3eac:	04010113          	addi	sp,sp,64
    3eb0:	00008067          	ret

00003eb4 <__gtsf2>:
    3eb4:	fa9ff06f          	j	3e5c <__gesf2>

00003eb8 <__lesf2>:
    3eb8:	fc010113          	addi	sp,sp,-64
    3ebc:	00a12423          	sw	a0,8(sp)
    3ec0:	00b12623          	sw	a1,12(sp)
    3ec4:	00810513          	addi	a0,sp,8
    3ec8:	01010593          	addi	a1,sp,16
    3ecc:	02112e23          	sw	ra,60(sp)
    3ed0:	a35ff0ef          	jal	3904 <__unpack_f>
    3ed4:	00c10513          	addi	a0,sp,12
    3ed8:	02010593          	addi	a1,sp,32
    3edc:	a29ff0ef          	jal	3904 <__unpack_f>
    3ee0:	01012783          	lw	a5,16(sp)
    3ee4:	00100513          	li	a0,1
    3ee8:	00f57c63          	bleu	a5,a0,3f00 <__lesf2+0x48>
    3eec:	02012783          	lw	a5,32(sp)
    3ef0:	00f57863          	bleu	a5,a0,3f00 <__lesf2+0x48>
    3ef4:	02010593          	addi	a1,sp,32
    3ef8:	01010513          	addi	a0,sp,16
    3efc:	e4dff0ef          	jal	3d48 <__fpcmp_parts_f>
    3f00:	03c12083          	lw	ra,60(sp)
    3f04:	04010113          	addi	sp,sp,64
    3f08:	00008067          	ret

00003f0c <__ltsf2>:
    3f0c:	fadff06f          	j	3eb8 <__lesf2>

00003f10 <__nesf2>:
    3f10:	fa9ff06f          	j	3eb8 <__lesf2>

00003f14 <__eqsf2>:
    3f14:	fa5ff06f          	j	3eb8 <__lesf2>

00003f18 <__unordsf2>:
    3f18:	fc010113          	addi	sp,sp,-64
    3f1c:	00a12423          	sw	a0,8(sp)
    3f20:	00b12623          	sw	a1,12(sp)
    3f24:	00810513          	addi	a0,sp,8
    3f28:	01010593          	addi	a1,sp,16
    3f2c:	02112e23          	sw	ra,60(sp)
    3f30:	9d5ff0ef          	jal	3904 <__unpack_f>
    3f34:	00c10513          	addi	a0,sp,12
    3f38:	02010593          	addi	a1,sp,32
    3f3c:	9c9ff0ef          	jal	3904 <__unpack_f>
    3f40:	01012783          	lw	a5,16(sp)
    3f44:	00100513          	li	a0,1
    3f48:	00f57663          	bleu	a5,a0,3f54 <__unordsf2+0x3c>
    3f4c:	02012503          	lw	a0,32(sp)
    3f50:	00253513          	sltiu	a0,a0,2
    3f54:	03c12083          	lw	ra,60(sp)
    3f58:	04010113          	addi	sp,sp,64
    3f5c:	00008067          	ret

00003f60 <__floatsisf>:
    3f60:	fe010113          	addi	sp,sp,-32
    3f64:	01f55793          	srli	a5,a0,0x1f
    3f68:	00300713          	li	a4,3
    3f6c:	00112e23          	sw	ra,28(sp)
    3f70:	00812c23          	sw	s0,24(sp)
    3f74:	00e12023          	sw	a4,0(sp)
    3f78:	00f12223          	sw	a5,4(sp)
    3f7c:	02051263          	bnez	a0,3fa0 <__floatsisf+0x40>
    3f80:	00200793          	li	a5,2
    3f84:	00f12023          	sw	a5,0(sp)
    3f88:	00010513          	mv	a0,sp
    3f8c:	81dff0ef          	jal	37a8 <__pack_f>
    3f90:	01c12083          	lw	ra,28(sp)
    3f94:	01812403          	lw	s0,24(sp)
    3f98:	02010113          	addi	sp,sp,32
    3f9c:	00008067          	ret
    3fa0:	01e00793          	li	a5,30
    3fa4:	00f12423          	sw	a5,8(sp)
    3fa8:	02054863          	bltz	a0,3fd8 <__floatsisf+0x78>
    3fac:	00050413          	mv	s0,a0
    3fb0:	00040513          	mv	a0,s0
    3fb4:	dc8ff0ef          	jal	357c <__clzsi2>
    3fb8:	fff50793          	addi	a5,a0,-1
    3fbc:	02078c63          	beqz	a5,3ff4 <__floatsisf+0x94>
    3fc0:	01e00713          	li	a4,30
    3fc4:	00f41533          	sll	a0,s0,a5
    3fc8:	40f707b3          	sub	a5,a4,a5
    3fcc:	00a12623          	sw	a0,12(sp)
    3fd0:	00f12423          	sw	a5,8(sp)
    3fd4:	fb5ff06f          	j	3f88 <__floatsisf+0x28>
    3fd8:	800007b7          	lui	a5,0x80000
    3fdc:	02f50063          	beq	a0,a5,3ffc <__floatsisf+0x9c>
    3fe0:	40a00433          	neg	s0,a0
    3fe4:	00040513          	mv	a0,s0
    3fe8:	d94ff0ef          	jal	357c <__clzsi2>
    3fec:	fff50793          	addi	a5,a0,-1
    3ff0:	fc0798e3          	bnez	a5,3fc0 <__floatsisf+0x60>
    3ff4:	00812623          	sw	s0,12(sp)
    3ff8:	f91ff06f          	j	3f88 <__floatsisf+0x28>
    3ffc:	8101a503          	lw	a0,-2032(gp) # 48a8 <main+0x6dc>
    4000:	f91ff06f          	j	3f90 <__floatsisf+0x30>

00004004 <__floatunsisf>:
    4004:	fe010113          	addi	sp,sp,-32
    4008:	00112e23          	sw	ra,28(sp)
    400c:	00812c23          	sw	s0,24(sp)
    4010:	00912a23          	sw	s1,20(sp)
    4014:	00012223          	sw	zero,4(sp)
    4018:	04050a63          	beqz	a0,406c <__floatunsisf+0x68>
    401c:	00300793          	li	a5,3
    4020:	01e00493          	li	s1,30
    4024:	00f12023          	sw	a5,0(sp)
    4028:	00050413          	mv	s0,a0
    402c:	00912423          	sw	s1,8(sp)
    4030:	d4cff0ef          	jal	357c <__clzsi2>
    4034:	fff50793          	addi	a5,a0,-1
    4038:	04050063          	beqz	a0,4078 <__floatunsisf+0x74>
    403c:	04078c63          	beqz	a5,4094 <__floatunsisf+0x90>
    4040:	00f41433          	sll	s0,s0,a5
    4044:	40f484b3          	sub	s1,s1,a5
    4048:	00812623          	sw	s0,12(sp)
    404c:	00912423          	sw	s1,8(sp)
    4050:	00010513          	mv	a0,sp
    4054:	f54ff0ef          	jal	37a8 <__pack_f>
    4058:	01c12083          	lw	ra,28(sp)
    405c:	01812403          	lw	s0,24(sp)
    4060:	01412483          	lw	s1,20(sp)
    4064:	02010113          	addi	sp,sp,32
    4068:	00008067          	ret
    406c:	00200793          	li	a5,2
    4070:	00f12023          	sw	a5,0(sp)
    4074:	fddff06f          	j	4050 <__floatunsisf+0x4c>
    4078:	00147793          	andi	a5,s0,1
    407c:	00145413          	srli	s0,s0,0x1
    4080:	0087e433          	or	s0,a5,s0
    4084:	01f00793          	li	a5,31
    4088:	00812623          	sw	s0,12(sp)
    408c:	00f12423          	sw	a5,8(sp)
    4090:	fc1ff06f          	j	4050 <__floatunsisf+0x4c>
    4094:	00812623          	sw	s0,12(sp)
    4098:	fb9ff06f          	j	4050 <__floatunsisf+0x4c>

0000409c <__fixsfsi>:
    409c:	fd010113          	addi	sp,sp,-48
    40a0:	00a12623          	sw	a0,12(sp)
    40a4:	01010593          	addi	a1,sp,16
    40a8:	00c10513          	addi	a0,sp,12
    40ac:	02112623          	sw	ra,44(sp)
    40b0:	855ff0ef          	jal	3904 <__unpack_f>
    40b4:	01012783          	lw	a5,16(sp)
    40b8:	00200713          	li	a4,2
    40bc:	04f77e63          	bleu	a5,a4,4118 <__fixsfsi+0x7c>
    40c0:	00400713          	li	a4,4
    40c4:	00e78a63          	beq	a5,a4,40d8 <__fixsfsi+0x3c>
    40c8:	01812783          	lw	a5,24(sp)
    40cc:	0407c663          	bltz	a5,4118 <__fixsfsi+0x7c>
    40d0:	01e00513          	li	a0,30
    40d4:	02f55063          	ble	a5,a0,40f4 <__fixsfsi+0x58>
    40d8:	01412783          	lw	a5,20(sp)
    40dc:	80000537          	lui	a0,0x80000
    40e0:	00079463          	bnez	a5,40e8 <__fixsfsi+0x4c>
    40e4:	fff54513          	not	a0,a0
    40e8:	02c12083          	lw	ra,44(sp)
    40ec:	03010113          	addi	sp,sp,48
    40f0:	00008067          	ret
    40f4:	40f50533          	sub	a0,a0,a5
    40f8:	01c12783          	lw	a5,28(sp)
    40fc:	00a7d533          	srl	a0,a5,a0
    4100:	01412783          	lw	a5,20(sp)
    4104:	fe0782e3          	beqz	a5,40e8 <__fixsfsi+0x4c>
    4108:	02c12083          	lw	ra,44(sp)
    410c:	40a00533          	neg	a0,a0
    4110:	03010113          	addi	sp,sp,48
    4114:	00008067          	ret
    4118:	02c12083          	lw	ra,44(sp)
    411c:	00000513          	li	a0,0
    4120:	03010113          	addi	sp,sp,48
    4124:	00008067          	ret

00004128 <__negsf2>:
    4128:	fd010113          	addi	sp,sp,-48
    412c:	00a12623          	sw	a0,12(sp)
    4130:	01010593          	addi	a1,sp,16
    4134:	00c10513          	addi	a0,sp,12
    4138:	02112623          	sw	ra,44(sp)
    413c:	fc8ff0ef          	jal	3904 <__unpack_f>
    4140:	01412783          	lw	a5,20(sp)
    4144:	01010513          	addi	a0,sp,16
    4148:	0017b793          	seqz	a5,a5
    414c:	00f12a23          	sw	a5,20(sp)
    4150:	e58ff0ef          	jal	37a8 <__pack_f>
    4154:	02c12083          	lw	ra,44(sp)
    4158:	03010113          	addi	sp,sp,48
    415c:	00008067          	ret

00004160 <__make_fp>:
    4160:	fe010113          	addi	sp,sp,-32
    4164:	00a12023          	sw	a0,0(sp)
    4168:	00010513          	mv	a0,sp
    416c:	00112e23          	sw	ra,28(sp)
    4170:	00b12223          	sw	a1,4(sp)
    4174:	00c12423          	sw	a2,8(sp)
    4178:	00d12623          	sw	a3,12(sp)
    417c:	e2cff0ef          	jal	37a8 <__pack_f>
    4180:	01c12083          	lw	ra,28(sp)
    4184:	02010113          	addi	sp,sp,32
    4188:	00008067          	ret

0000418c <__extendsfdf2>:
    418c:	fd010113          	addi	sp,sp,-48
    4190:	00a12623          	sw	a0,12(sp)
    4194:	01010593          	addi	a1,sp,16
    4198:	00c10513          	addi	a0,sp,12
    419c:	02112623          	sw	ra,44(sp)
    41a0:	f64ff0ef          	jal	3904 <__unpack_f>
    41a4:	01c12783          	lw	a5,28(sp)
    41a8:	01812603          	lw	a2,24(sp)
    41ac:	01412583          	lw	a1,20(sp)
    41b0:	01012503          	lw	a0,16(sp)
    41b4:	01e79713          	slli	a4,a5,0x1e
    41b8:	0027d793          	srli	a5,a5,0x2
    41bc:	934ff0ef          	jal	32f0 <__make_dp>
    41c0:	02c12083          	lw	ra,44(sp)
    41c4:	03010113          	addi	sp,sp,48
    41c8:	00008067          	ret

Disassembly of section .text.startup:

000041cc <main>:
    41cc:	f6010113          	addi	sp,sp,-160
    41d0:	81418713          	addi	a4,gp,-2028 # 48ac <main+0x6e0>
    41d4:	08112e23          	sw	ra,156(sp)
    41d8:	08812c23          	sw	s0,152(sp)
    41dc:	08912a23          	sw	s1,148(sp)
    41e0:	0a010413          	addi	s0,sp,160
    41e4:	09212823          	sw	s2,144(sp)
    41e8:	09312623          	sw	s3,140(sp)
    41ec:	09412423          	sw	s4,136(sp)
    41f0:	8141a583          	lw	a1,-2028(gp) # 48ac <main+0x6e0>
    41f4:	09512223          	sw	s5,132(sp)
    41f8:	09612023          	sw	s6,128(sp)
    41fc:	07712e23          	sw	s7,124(sp)
    4200:	07812c23          	sw	s8,120(sp)
    4204:	07912a23          	sw	s9,116(sp)
    4208:	07a12823          	sw	s10,112(sp)
    420c:	07b12623          	sw	s11,108(sp)
    4210:	fc010113          	addi	sp,sp,-64
    4214:	00010613          	mv	a2,sp
    4218:	fc010113          	addi	sp,sp,-64
    421c:	00200813          	li	a6,2
    4220:	d5c18793          	addi	a5,gp,-676 # 4df4 <main+0xc28>
    4224:	01012423          	sw	a6,8(sp)
    4228:	02800813          	li	a6,40
    422c:	01472f83          	lw	t6,20(a4)
    4230:	01872f03          	lw	t5,24(a4)
    4234:	01c75e83          	lhu	t4,28(a4)
    4238:	01e74e03          	lbu	t3,30(a4)
    423c:	d5c1a383          	lw	t2,-676(gp) # 4df4 <main+0xc28>
    4240:	0087a303          	lw	t1,8(a5) # 80000008 <_end+0x7fff8088>
    4244:	00c7a283          	lw	t0,12(a5)
    4248:	0107a883          	lw	a7,16(a5)
    424c:	0047a503          	lw	a0,4(a5)
    4250:	00472a03          	lw	s4,4(a4)
    4254:	00872983          	lw	s3,8(a4)
    4258:	00c72903          	lw	s2,12(a4)
    425c:	01072483          	lw	s1,16(a4)
    4260:	00c12023          	sw	a2,0(sp)
    4264:	00b12823          	sw	a1,16(sp)
    4268:	00012223          	sw	zero,4(sp)
    426c:	01012623          	sw	a6,12(sp)
    4270:	0147a803          	lw	a6,20(a5)
    4274:	01c7d703          	lhu	a4,28(a5)
    4278:	0187a583          	lw	a1,24(a5)
    427c:	01e7c783          	lbu	a5,30(a5)
    4280:	f8e41e23          	sh	a4,-100(s0)
    4284:	64c1a623          	sw	a2,1612(gp) # 56e4 <Next_Ptr_Glob>
    4288:	65818713          	addi	a4,gp,1624 # 56f0 <Arr_2_Glob>
    428c:	f8a42223          	sw	a0,-124(s0)
    4290:	f8f40f23          	sb	a5,-98(s0)
    4294:	a8018513          	addi	a0,gp,-1408 # 4b18 <main+0x94c>
    4298:	00a00793          	li	a5,10
    429c:	64f72e23          	sw	a5,1628(a4)
    42a0:	6421a823          	sw	sp,1616(gp) # 56e8 <Ptr_Glob>
    42a4:	03f12223          	sw	t6,36(sp)
    42a8:	03e12423          	sw	t5,40(sp)
    42ac:	03d11623          	sh	t4,44(sp)
    42b0:	03c10723          	sb	t3,46(sp)
    42b4:	f8742023          	sw	t2,-128(s0)
    42b8:	f8642423          	sw	t1,-120(s0)
    42bc:	f8542623          	sw	t0,-116(s0)
    42c0:	f9142823          	sw	a7,-112(s0)
    42c4:	f9042a23          	sw	a6,-108(s0)
    42c8:	f8b42c23          	sw	a1,-104(s0)
    42cc:	01412a23          	sw	s4,20(sp)
    42d0:	01312c23          	sw	s3,24(sp)
    42d4:	01212e23          	sw	s2,28(sp)
    42d8:	02912023          	sw	s1,32(sp)
    42dc:	cd8fc0ef          	jal	7b4 <debug_printf>
    42e0:	83418593          	addi	a1,gp,-1996 # 48cc <main+0x700>
    42e4:	84418513          	addi	a0,gp,-1980 # 48dc <main+0x710>
    42e8:	cccfc0ef          	jal	7b4 <debug_printf>
    42ec:	63c1a783          	lw	a5,1596(gp) # 56d4 <Reg>
    42f0:	58078063          	beqz	a5,4870 <main+0x6a4>
    42f4:	86818513          	addi	a0,gp,-1944 # 4900 <main+0x734>
    42f8:	cbcfc0ef          	jal	7b4 <debug_printf>
    42fc:	000f4637          	lui	a2,0xf4
    4300:	24060613          	addi	a2,a2,576 # f4240 <_end+0xec2c0>
    4304:	8c418593          	addi	a1,gp,-1852 # 495c <main+0x790>
    4308:	8d018513          	addi	a0,gp,-1840 # 4968 <main+0x79c>
    430c:	ca8fc0ef          	jal	7b4 <debug_printf>
    4310:	a8018513          	addi	a0,gp,-1408 # 4b18 <main+0x94c>
    4314:	ca0fc0ef          	jal	7b4 <debug_printf>
    4318:	d7c1a383          	lw	t2,-644(gp) # 4e14 <main+0xc48>
    431c:	d9c1ac83          	lw	s9,-612(gp) # 4e34 <main+0xc68>
    4320:	f6742423          	sw	t2,-152(s0)
    4324:	6201ac23          	sw	zero,1592(gp) # 56d0 <Done>
    4328:	1f400d93          	li	s11,500
    432c:	d7c18993          	addi	s3,gp,-644 # 4e14 <main+0xc48>
    4330:	00200493          	li	s1,2
    4334:	8e418513          	addi	a0,gp,-1820 # 497c <main+0x7b0>
    4338:	000d8593          	mv	a1,s11
    433c:	c78fc0ef          	jal	7b4 <debug_printf>
    4340:	00100513          	li	a0,1
    4344:	d05fc0ef          	jal	1048 <setStats>
    4348:	c00027f3          	rdcycle	a5
    434c:	00100a13          	li	s4,1
    4350:	62f1aa23          	sw	a5,1588(gp) # 56cc <Begin_Time>
    4354:	000a0d13          	mv	s10,s4
    4358:	a3cfc0ef          	jal	594 <Proc_5>
    435c:	a14fc0ef          	jal	570 <Proc_4>
    4360:	0149a603          	lw	a2,20(s3)
    4364:	0189a683          	lw	a3,24(s3)
    4368:	0049a303          	lw	t1,4(s3)
    436c:	0089a283          	lw	t0,8(s3)
    4370:	00c9a883          	lw	a7,12(s3)
    4374:	0109a803          	lw	a6,16(s3)
    4378:	01c9d703          	lhu	a4,28(s3)
    437c:	01e9c783          	lbu	a5,30(s3)
    4380:	f6842383          	lw	t2,-152(s0)
    4384:	fa040593          	addi	a1,s0,-96
    4388:	f8040513          	addi	a0,s0,-128
    438c:	fac42a23          	sw	a2,-76(s0)
    4390:	fad42c23          	sw	a3,-72(s0)
    4394:	f6942a23          	sw	s1,-140(s0)
    4398:	fa742023          	sw	t2,-96(s0)
    439c:	fa642223          	sw	t1,-92(s0)
    43a0:	fa542423          	sw	t0,-88(s0)
    43a4:	fb142623          	sw	a7,-84(s0)
    43a8:	fb042823          	sw	a6,-80(s0)
    43ac:	fae41e23          	sh	a4,-68(s0)
    43b0:	faf40f23          	sb	a5,-66(s0)
    43b4:	f7a42e23          	sw	s10,-132(s0)
    43b8:	ac0fc0ef          	jal	678 <Func_2>
    43bc:	f7442603          	lw	a2,-140(s0)
    43c0:	00153513          	seqz	a0,a0
    43c4:	64a1a223          	sw	a0,1604(gp) # 56dc <Bool_Glob>
    43c8:	02c4cc63          	blt	s1,a2,4400 <main+0x234>
    43cc:	00060513          	mv	a0,a2
    43d0:	00251793          	slli	a5,a0,0x2
    43d4:	00a787b3          	add	a5,a5,a0
    43d8:	ffd78793          	addi	a5,a5,-3
    43dc:	f7840613          	addi	a2,s0,-136
    43e0:	00300593          	li	a1,3
    43e4:	f6f42c23          	sw	a5,-136(s0)
    43e8:	9bcfc0ef          	jal	5a4 <Proc_7>
    43ec:	f7442503          	lw	a0,-140(s0)
    43f0:	00150513          	addi	a0,a0,1 # 80000001 <_end+0x7fff8081>
    43f4:	f6a42a23          	sw	a0,-140(s0)
    43f8:	fca4dce3          	ble	a0,s1,43d0 <main+0x204>
    43fc:	00050613          	mv	a2,a0
    4400:	f7842683          	lw	a3,-136(s0)
    4404:	00008537          	lui	a0,0x8
    4408:	65818593          	addi	a1,gp,1624 # 56f0 <Arr_2_Glob>
    440c:	e0050513          	addi	a0,a0,-512 # 7e00 <Arr_1_Glob>
    4410:	9a4fc0ef          	jal	5b4 <Proc_8>
    4414:	6501a503          	lw	a0,1616(gp) # 56e8 <Ptr_Glob>
    4418:	00300b13          	li	s6,3
    441c:	848fc0ef          	jal	464 <Proc_1>
    4420:	6401c703          	lbu	a4,1600(gp) # 56d8 <Ch_2_Glob>
    4424:	04000793          	li	a5,64
    4428:	08e7fe63          	bleu	a4,a5,44c4 <main+0x2f8>
    442c:	04100a93          	li	s5,65
    4430:	0140006f          	j	4444 <main+0x278>
    4434:	6401c783          	lbu	a5,1600(gp) # 56d8 <Ch_2_Glob>
    4438:	001a8a93          	addi	s5,s5,1
    443c:	0ffafa93          	andi	s5,s5,255
    4440:	0957e263          	bltu	a5,s5,44c4 <main+0x2f8>
    4444:	04300593          	li	a1,67
    4448:	000a8513          	mv	a0,s5
    444c:	a0cfc0ef          	jal	658 <Func_1>
    4450:	f7c42783          	lw	a5,-132(s0)
    4454:	fef510e3          	bne	a0,a5,4434 <main+0x268>
    4458:	f7c40593          	addi	a1,s0,-132
    445c:	00000513          	li	a0,0
    4460:	a94fc0ef          	jal	6f4 <Proc_6>
    4464:	d9c18793          	addi	a5,gp,-612 # 4e34 <main+0xc68>
    4468:	0047a883          	lw	a7,4(a5)
    446c:	0087a803          	lw	a6,8(a5)
    4470:	00c7a503          	lw	a0,12(a5)
    4474:	0107a583          	lw	a1,16(a5)
    4478:	0147a603          	lw	a2,20(a5)
    447c:	0187a683          	lw	a3,24(a5)
    4480:	01c7d703          	lhu	a4,28(a5)
    4484:	01e7c783          	lbu	a5,30(a5)
    4488:	001a8a93          	addi	s5,s5,1
    448c:	0ffafa93          	andi	s5,s5,255
    4490:	faf40f23          	sb	a5,-66(s0)
    4494:	6401c783          	lbu	a5,1600(gp) # 56d8 <Ch_2_Glob>
    4498:	fb942023          	sw	s9,-96(s0)
    449c:	fb142223          	sw	a7,-92(s0)
    44a0:	fb042423          	sw	a6,-88(s0)
    44a4:	faa42623          	sw	a0,-84(s0)
    44a8:	fab42823          	sw	a1,-80(s0)
    44ac:	fac42a23          	sw	a2,-76(s0)
    44b0:	fad42c23          	sw	a3,-72(s0)
    44b4:	fae41e23          	sh	a4,-68(s0)
    44b8:	6541a423          	sw	s4,1608(gp) # 56e0 <Int_Glob>
    44bc:	000a0b13          	mv	s6,s4
    44c0:	f957f2e3          	bleu	s5,a5,4444 <main+0x278>
    44c4:	f7442583          	lw	a1,-140(s0)
    44c8:	000b0513          	mv	a0,s6
    44cc:	001a0a13          	addi	s4,s4,1
    44d0:	ea9fe0ef          	jal	3378 <__mulsi3>
    44d4:	f7842a83          	lw	s5,-136(s0)
    44d8:	f6a42623          	sw	a0,-148(s0)
    44dc:	000a8593          	mv	a1,s5
    44e0:	ebdfe0ef          	jal	339c <__divsi3>
    44e4:	00050b13          	mv	s6,a0
    44e8:	f7440513          	addi	a0,s0,-140
    44ec:	f7642a23          	sw	s6,-140(s0)
    44f0:	f29fb0ef          	jal	418 <Proc_2>
    44f4:	e74dd2e3          	ble	s4,s11,4358 <main+0x18c>
    44f8:	000b0793          	mv	a5,s6
    44fc:	000a8b13          	mv	s6,s5
    4500:	00078a93          	mv	s5,a5
    4504:	c00027f3          	rdcycle	a5
    4508:	00000513          	li	a0,0
    450c:	62f1a823          	sw	a5,1584(gp) # 56c8 <End_Time>
    4510:	b39fc0ef          	jal	1048 <setStats>
    4514:	6301a783          	lw	a5,1584(gp) # 56c8 <End_Time>
    4518:	6341a703          	lw	a4,1588(gp) # 56cc <Begin_Time>
    451c:	40e787b3          	sub	a5,a5,a4
    4520:	62f1a623          	sw	a5,1580(gp) # 56c4 <User_Time>
    4524:	32f05263          	blez	a5,4848 <main+0x67c>
    4528:	00100793          	li	a5,1
    452c:	62f1ac23          	sw	a5,1592(gp) # 56d0 <Done>
    4530:	94018513          	addi	a0,gp,-1728 # 49d8 <main+0x80c>
    4534:	a80fc0ef          	jal	7b4 <debug_printf>
    4538:	a8018513          	addi	a0,gp,-1408 # 4b18 <main+0x94c>
    453c:	a78fc0ef          	jal	7b4 <debug_printf>
    4540:	6481a583          	lw	a1,1608(gp) # 56e0 <Int_Glob>
    4544:	97818513          	addi	a0,gp,-1672 # 4a10 <main+0x844>
    4548:	a6cfc0ef          	jal	7b4 <debug_printf>
    454c:	99418513          	addi	a0,gp,-1644 # 4a2c <main+0x860>
    4550:	00500593          	li	a1,5
    4554:	a60fc0ef          	jal	7b4 <debug_printf>
    4558:	6441a583          	lw	a1,1604(gp) # 56dc <Bool_Glob>
    455c:	9b018513          	addi	a0,gp,-1616 # 4a48 <main+0x87c>
    4560:	a54fc0ef          	jal	7b4 <debug_printf>
    4564:	99418513          	addi	a0,gp,-1644 # 4a2c <main+0x860>
    4568:	00100593          	li	a1,1
    456c:	a48fc0ef          	jal	7b4 <debug_printf>
    4570:	6411c583          	lbu	a1,1601(gp) # 56d9 <Ch_1_Glob>
    4574:	9cc18513          	addi	a0,gp,-1588 # 4a64 <main+0x898>
    4578:	a3cfc0ef          	jal	7b4 <debug_printf>
    457c:	9e818513          	addi	a0,gp,-1560 # 4a80 <main+0x8b4>
    4580:	04100593          	li	a1,65
    4584:	a30fc0ef          	jal	7b4 <debug_printf>
    4588:	6401c583          	lbu	a1,1600(gp) # 56d8 <Ch_2_Glob>
    458c:	a0418513          	addi	a0,gp,-1532 # 4a9c <main+0x8d0>
    4590:	a24fc0ef          	jal	7b4 <debug_printf>
    4594:	9e818513          	addi	a0,gp,-1560 # 4a80 <main+0x8b4>
    4598:	04200593          	li	a1,66
    459c:	a18fc0ef          	jal	7b4 <debug_printf>
    45a0:	000077b7          	lui	a5,0x7
    45a4:	6f078793          	addi	a5,a5,1776 # 76f0 <Arr_2_Glob+0x2000>
    45a8:	7307a583          	lw	a1,1840(a5)
    45ac:	a2018513          	addi	a0,gp,-1504 # 4ab8 <main+0x8ec>
    45b0:	a04fc0ef          	jal	7b4 <debug_printf>
    45b4:	99418513          	addi	a0,gp,-1644 # 4a2c <main+0x860>
    45b8:	00700593          	li	a1,7
    45bc:	9f8fc0ef          	jal	7b4 <debug_printf>
    45c0:	65818793          	addi	a5,gp,1624 # 56f0 <Arr_2_Glob>
    45c4:	65c7a583          	lw	a1,1628(a5)
    45c8:	a3c18513          	addi	a0,gp,-1476 # 4ad4 <main+0x908>
    45cc:	9e8fc0ef          	jal	7b4 <debug_printf>
    45d0:	a5818513          	addi	a0,gp,-1448 # 4af0 <main+0x924>
    45d4:	9e0fc0ef          	jal	7b4 <debug_printf>
    45d8:	a8418513          	addi	a0,gp,-1404 # 4b1c <main+0x950>
    45dc:	9d8fc0ef          	jal	7b4 <debug_printf>
    45e0:	6501a703          	lw	a4,1616(gp) # 56e8 <Ptr_Glob>
    45e4:	a9018513          	addi	a0,gp,-1392 # 4b28 <main+0x95c>
    45e8:	00072583          	lw	a1,0(a4)
    45ec:	f6f42223          	sw	a5,-156(s0)
    45f0:	9c4fc0ef          	jal	7b4 <debug_printf>
    45f4:	aac18513          	addi	a0,gp,-1364 # 4b44 <main+0x978>
    45f8:	9bcfc0ef          	jal	7b4 <debug_printf>
    45fc:	6501a703          	lw	a4,1616(gp) # 56e8 <Ptr_Glob>
    4600:	ae018513          	addi	a0,gp,-1312 # 4b78 <main+0x9ac>
    4604:	00472583          	lw	a1,4(a4)
    4608:	9acfc0ef          	jal	7b4 <debug_printf>
    460c:	99418513          	addi	a0,gp,-1644 # 4a2c <main+0x860>
    4610:	00000593          	li	a1,0
    4614:	9a0fc0ef          	jal	7b4 <debug_printf>
    4618:	6501a703          	lw	a4,1616(gp) # 56e8 <Ptr_Glob>
    461c:	afc18513          	addi	a0,gp,-1284 # 4b94 <main+0x9c8>
    4620:	00872583          	lw	a1,8(a4)
    4624:	990fc0ef          	jal	7b4 <debug_printf>
    4628:	99418513          	addi	a0,gp,-1644 # 4a2c <main+0x860>
    462c:	00200593          	li	a1,2
    4630:	984fc0ef          	jal	7b4 <debug_printf>
    4634:	6501a703          	lw	a4,1616(gp) # 56e8 <Ptr_Glob>
    4638:	b1818513          	addi	a0,gp,-1256 # 4bb0 <main+0x9e4>
    463c:	00c72583          	lw	a1,12(a4)
    4640:	974fc0ef          	jal	7b4 <debug_printf>
    4644:	99418513          	addi	a0,gp,-1644 # 4a2c <main+0x860>
    4648:	01100593          	li	a1,17
    464c:	968fc0ef          	jal	7b4 <debug_printf>
    4650:	6501a583          	lw	a1,1616(gp) # 56e8 <Ptr_Glob>
    4654:	b3418513          	addi	a0,gp,-1228 # 4bcc <main+0xa00>
    4658:	01058593          	addi	a1,a1,16
    465c:	958fc0ef          	jal	7b4 <debug_printf>
    4660:	b5018513          	addi	a0,gp,-1200 # 4be8 <main+0xa1c>
    4664:	950fc0ef          	jal	7b4 <debug_printf>
    4668:	b8818513          	addi	a0,gp,-1144 # 4c20 <main+0xa54>
    466c:	948fc0ef          	jal	7b4 <debug_printf>
    4670:	64c1a703          	lw	a4,1612(gp) # 56e4 <Next_Ptr_Glob>
    4674:	f6442783          	lw	a5,-156(s0)
    4678:	00072583          	lw	a1,0(a4)
    467c:	a9018513          	addi	a0,gp,-1392 # 4b28 <main+0x95c>
    4680:	934fc0ef          	jal	7b4 <debug_printf>
    4684:	b9c18513          	addi	a0,gp,-1124 # 4c34 <main+0xa68>
    4688:	92cfc0ef          	jal	7b4 <debug_printf>
    468c:	64c1a783          	lw	a5,1612(gp) # 56e4 <Next_Ptr_Glob>
    4690:	ae018513          	addi	a0,gp,-1312 # 4b78 <main+0x9ac>
    4694:	0047a583          	lw	a1,4(a5)
    4698:	91cfc0ef          	jal	7b4 <debug_printf>
    469c:	99418513          	addi	a0,gp,-1644 # 4a2c <main+0x860>
    46a0:	00000593          	li	a1,0
    46a4:	910fc0ef          	jal	7b4 <debug_printf>
    46a8:	64c1a783          	lw	a5,1612(gp) # 56e4 <Next_Ptr_Glob>
    46ac:	afc18513          	addi	a0,gp,-1284 # 4b94 <main+0x9c8>
    46b0:	0087a583          	lw	a1,8(a5)
    46b4:	900fc0ef          	jal	7b4 <debug_printf>
    46b8:	99418513          	addi	a0,gp,-1644 # 4a2c <main+0x860>
    46bc:	00100593          	li	a1,1
    46c0:	8f4fc0ef          	jal	7b4 <debug_printf>
    46c4:	64c1a783          	lw	a5,1612(gp) # 56e4 <Next_Ptr_Glob>
    46c8:	b1818513          	addi	a0,gp,-1256 # 4bb0 <main+0x9e4>
    46cc:	00c7a583          	lw	a1,12(a5)
    46d0:	8e4fc0ef          	jal	7b4 <debug_printf>
    46d4:	99418513          	addi	a0,gp,-1644 # 4a2c <main+0x860>
    46d8:	01200593          	li	a1,18
    46dc:	8d8fc0ef          	jal	7b4 <debug_printf>
    46e0:	64c1a583          	lw	a1,1612(gp) # 56e4 <Next_Ptr_Glob>
    46e4:	b3418513          	addi	a0,gp,-1228 # 4bcc <main+0xa00>
    46e8:	01058593          	addi	a1,a1,16
    46ec:	8c8fc0ef          	jal	7b4 <debug_printf>
    46f0:	b5018513          	addi	a0,gp,-1200 # 4be8 <main+0xa1c>
    46f4:	8c0fc0ef          	jal	7b4 <debug_printf>
    46f8:	f7442583          	lw	a1,-140(s0)
    46fc:	bdc18513          	addi	a0,gp,-1060 # 4c74 <main+0xaa8>
    4700:	8b4fc0ef          	jal	7b4 <debug_printf>
    4704:	99418513          	addi	a0,gp,-1644 # 4a2c <main+0x860>
    4708:	00500593          	li	a1,5
    470c:	8a8fc0ef          	jal	7b4 <debug_printf>
    4710:	f6c42783          	lw	a5,-148(s0)
    4714:	bf818513          	addi	a0,gp,-1032 # 4c90 <main+0xac4>
    4718:	41678b33          	sub	s6,a5,s6
    471c:	003b1793          	slli	a5,s6,0x3
    4720:	416785b3          	sub	a1,a5,s6
    4724:	415585b3          	sub	a1,a1,s5
    4728:	88cfc0ef          	jal	7b4 <debug_printf>
    472c:	99418513          	addi	a0,gp,-1644 # 4a2c <main+0x860>
    4730:	00d00593          	li	a1,13
    4734:	880fc0ef          	jal	7b4 <debug_printf>
    4738:	f7842583          	lw	a1,-136(s0)
    473c:	c1418513          	addi	a0,gp,-1004 # 4cac <main+0xae0>
    4740:	874fc0ef          	jal	7b4 <debug_printf>
    4744:	99418513          	addi	a0,gp,-1644 # 4a2c <main+0x860>
    4748:	00700593          	li	a1,7
    474c:	868fc0ef          	jal	7b4 <debug_printf>
    4750:	f7c42583          	lw	a1,-132(s0)
    4754:	c3018513          	addi	a0,gp,-976 # 4cc8 <main+0xafc>
    4758:	85cfc0ef          	jal	7b4 <debug_printf>
    475c:	99418513          	addi	a0,gp,-1644 # 4a2c <main+0x860>
    4760:	00100593          	li	a1,1
    4764:	850fc0ef          	jal	7b4 <debug_printf>
    4768:	f8040593          	addi	a1,s0,-128
    476c:	c4c18513          	addi	a0,gp,-948 # 4ce4 <main+0xb18>
    4770:	844fc0ef          	jal	7b4 <debug_printf>
    4774:	c6818513          	addi	a0,gp,-920 # 4d00 <main+0xb34>
    4778:	83cfc0ef          	jal	7b4 <debug_printf>
    477c:	fa040593          	addi	a1,s0,-96
    4780:	ca018513          	addi	a0,gp,-864 # 4d38 <main+0xb6c>
    4784:	830fc0ef          	jal	7b4 <debug_printf>
    4788:	cbc18513          	addi	a0,gp,-836 # 4d54 <main+0xb88>
    478c:	828fc0ef          	jal	7b4 <debug_printf>
    4790:	a8018513          	addi	a0,gp,-1408 # 4b18 <main+0x94c>
    4794:	820fc0ef          	jal	7b4 <debug_printf>
    4798:	62c1aa03          	lw	s4,1580(gp) # 56c4 <User_Time>
    479c:	000d8593          	mv	a1,s11
    47a0:	000a0513          	mv	a0,s4
    47a4:	bf9fe0ef          	jal	339c <__divsi3>
    47a8:	909fe0ef          	jal	30b0 <__floatsidf>
    47ac:	8001a603          	lw	a2,-2048(gp) # 4898 <main+0x6cc>
    47b0:	8041a683          	lw	a3,-2044(gp) # 489c <main+0x6d0>
    47b4:	a38fe0ef          	jal	29ec <__muldf3>
    47b8:	8001a603          	lw	a2,-2048(gp) # 4898 <main+0x6cc>
    47bc:	8041a683          	lw	a3,-2044(gp) # 489c <main+0x6d0>
    47c0:	d04fe0ef          	jal	2cc4 <__divdf3>
    47c4:	a35fe0ef          	jal	31f8 <__fixdfsi>
    47c8:	000f45b7          	lui	a1,0xf4
    47cc:	00050493          	mv	s1,a0
    47d0:	24058593          	addi	a1,a1,576 # f4240 <_end+0xec2c0>
    47d4:	000d8513          	mv	a0,s11
    47d8:	6291a423          	sw	s1,1576(gp) # 56c0 <Microseconds>
    47dc:	b9dfe0ef          	jal	3378 <__mulsi3>
    47e0:	000a0593          	mv	a1,s4
    47e4:	bb9fe0ef          	jal	339c <__divsi3>
    47e8:	62a1a223          	sw	a0,1572(gp) # 56bc <Dhrystones_Per_Second>
    47ec:	00048593          	mv	a1,s1
    47f0:	cf418513          	addi	a0,gp,-780 # 4d8c <main+0xbc0>
    47f4:	921fc0ef          	jal	1114 <printf>
    47f8:	6241a583          	lw	a1,1572(gp) # 56bc <Dhrystones_Per_Second>
    47fc:	d2818513          	addi	a0,gp,-728 # 4dc0 <main+0xbf4>
    4800:	915fc0ef          	jal	1114 <printf>
    4804:	f6040113          	addi	sp,s0,-160
    4808:	09c12083          	lw	ra,156(sp)
    480c:	00000513          	li	a0,0
    4810:	09812403          	lw	s0,152(sp)
    4814:	09412483          	lw	s1,148(sp)
    4818:	09012903          	lw	s2,144(sp)
    481c:	08c12983          	lw	s3,140(sp)
    4820:	08812a03          	lw	s4,136(sp)
    4824:	08412a83          	lw	s5,132(sp)
    4828:	08012b03          	lw	s6,128(sp)
    482c:	07c12b83          	lw	s7,124(sp)
    4830:	07812c03          	lw	s8,120(sp)
    4834:	07412c83          	lw	s9,116(sp)
    4838:	07012d03          	lw	s10,112(sp)
    483c:	06c12d83          	lw	s11,108(sp)
    4840:	0a010113          	addi	sp,sp,160
    4844:	00008067          	ret
    4848:	90818513          	addi	a0,gp,-1784 # 49a0 <main+0x7d4>
    484c:	8c9fc0ef          	jal	1114 <printf>
    4850:	001d9793          	slli	a5,s11,0x1
    4854:	a8018513          	addi	a0,gp,-1408 # 4b18 <main+0x94c>
    4858:	003d9d93          	slli	s11,s11,0x3
    485c:	01b78db3          	add	s11,a5,s11
    4860:	8b5fc0ef          	jal	1114 <printf>
    4864:	6381a783          	lw	a5,1592(gp) # 56d0 <Done>
    4868:	ac0786e3          	beqz	a5,4334 <main+0x168>
    486c:	cc5ff06f          	j	4530 <main+0x364>
    4870:	89418513          	addi	a0,gp,-1900 # 492c <main+0x760>
    4874:	f41fb0ef          	jal	7b4 <debug_printf>
    4878:	a85ff06f          	j	42fc <main+0x130>
    487c:	04000893          	li	a7,64
    4880:	00100513          	li	a0,1
    4884:	e5418593          	addi	a1,gp,-428 # 4eec <main+0xd20>
    4888:	01700613          	li	a2,23
    488c:	00000073          	ecall
    4890:	fff00513          	li	a0,-1
    4894:	00008067          	ret
