
median.riscv:     file format elf32-littleriscv


Disassembly of section .text:

00002000 <_start>:
    2000:	00000093          	li	ra,0
    2004:	00000113          	li	sp,0
    2008:	00000193          	li	gp,0
    200c:	00000213          	li	tp,0
    2010:	00000293          	li	t0,0
    2014:	00000313          	li	t1,0
    2018:	00000393          	li	t2,0
    201c:	00000413          	li	s0,0
    2020:	00000493          	li	s1,0
    2024:	00000513          	li	a0,0
    2028:	00000593          	li	a1,0
    202c:	00000613          	li	a2,0
    2030:	00000693          	li	a3,0
    2034:	00000713          	li	a4,0
    2038:	00000793          	li	a5,0
    203c:	00000813          	li	a6,0
    2040:	00000893          	li	a7,0
    2044:	00000913          	li	s2,0
    2048:	00000993          	li	s3,0
    204c:	00000a13          	li	s4,0
    2050:	00000a93          	li	s5,0
    2054:	00000b13          	li	s6,0
    2058:	00000b93          	li	s7,0
    205c:	00000c13          	li	s8,0
    2060:	00000c93          	li	s9,0
    2064:	00000d13          	li	s10,0
    2068:	00000d93          	li	s11,0
    206c:	00000e13          	li	t3,0
    2070:	00000e93          	li	t4,0
    2074:	00000f13          	li	t5,0
    2078:	00000f93          	li	t6,0
    207c:	50b02573          	csrr	a0,hartid
    2080:	fe051ee3          	bnez	a0,207c <_start+0x7c>
    2084:	00021117          	auipc	sp,0x21
    2088:	e6c10113          	addi	sp,sp,-404 # 22ef0 <stacktop>
    208c:	13c000ef          	jal	21c8 <main>
    2090:	00000013          	nop
    2094:	00000013          	nop
    2098:	00000063          	b	2098 <_start+0x98>

0000209c <barrier>:
    209c:	0330000f          	fence	rw,rw
    20a0:	00022683          	lw	a3,0(tp) # 0 <threadsense.1383>
    20a4:	00023737          	lui	a4,0x23
    20a8:	ef470593          	addi	a1,a4,-268 # 22ef4 <count.1382>
    20ac:	0016b693          	seqz	a3,a3
    20b0:	00d22023          	sw	a3,0(tp) # 0 <threadsense.1383>
    20b4:	00100693          	li	a3,1
    20b8:	06d5a62f          	amoadd.w.sc	a2,a3,(a1)
    20bc:	000036b7          	lui	a3,0x3
    20c0:	eec6a683          	lw	a3,-276(a3) # 2eec <_end>
    20c4:	fff68693          	addi	a3,a3,-1
    20c8:	00d60e63          	beq	a2,a3,20e4 <barrier+0x48>
    20cc:	00022683          	lw	a3,0(tp) # 0 <threadsense.1383>
    20d0:	00023737          	lui	a4,0x23
    20d4:	ef072783          	lw	a5,-272(a4) # 22ef0 <stacktop>
    20d8:	fed79ee3          	bne	a5,a3,20d4 <barrier+0x38>
    20dc:	0330000f          	fence	rw,rw
    20e0:	00008067          	ret
    20e4:	00022683          	lw	a3,0(tp) # 0 <threadsense.1383>
    20e8:	000237b7          	lui	a5,0x23
    20ec:	ee072a23          	sw	zero,-268(a4)
    20f0:	eed7a823          	sw	a3,-272(a5) # 22ef0 <stacktop>
    20f4:	0330000f          	fence	rw,rw
    20f8:	00008067          	ret

000020fc <finishTest>:
    20fc:	51e51073          	csrw	tohost,a0
    2100:	00008067          	ret

00002104 <setStats>:
    2104:	0c051073          	csrw	stats,a0
    2108:	00008067          	ret

0000210c <verify>:
    210c:	02a05e63          	blez	a0,2148 <verify+0x3c>
    2110:	0005a703          	lw	a4,0(a1)
    2114:	00062783          	lw	a5,0(a2)
    2118:	02f71c63          	bne	a4,a5,2150 <verify+0x44>
    211c:	00458593          	addi	a1,a1,4
    2120:	00460613          	addi	a2,a2,4
    2124:	00000793          	li	a5,0
    2128:	0180006f          	j	2140 <verify+0x34>
    212c:	0005a683          	lw	a3,0(a1)
    2130:	00062703          	lw	a4,0(a2)
    2134:	00458593          	addi	a1,a1,4
    2138:	00460613          	addi	a2,a2,4
    213c:	00e69a63          	bne	a3,a4,2150 <verify+0x44>
    2140:	00178793          	addi	a5,a5,1
    2144:	fea794e3          	bne	a5,a0,212c <verify+0x20>
    2148:	00100513          	li	a0,1
    214c:	00008067          	ret
    2150:	00200513          	li	a0,2
    2154:	00008067          	ret

00002158 <median>:
    2158:	00251813          	slli	a6,a0,0x2
    215c:	ffc80813          	addi	a6,a6,-4
    2160:	01060833          	add	a6,a2,a6
    2164:	00200793          	li	a5,2
    2168:	00062023          	sw	zero,0(a2)
    216c:	00082023          	sw	zero,0(a6)
    2170:	00460613          	addi	a2,a2,4
    2174:	02a7c063          	blt	a5,a0,2194 <median+0x3c>
    2178:	0440006f          	j	21bc <median+0x64>
    217c:	02d7c863          	blt	a5,a3,21ac <median+0x54>
    2180:	04e6c063          	blt	a3,a4,21c0 <median+0x68>
    2184:	00d62023          	sw	a3,0(a2)
    2188:	00460613          	addi	a2,a2,4
    218c:	00458593          	addi	a1,a1,4
    2190:	02c80663          	beq	a6,a2,21bc <median+0x64>
    2194:	0005a703          	lw	a4,0(a1)
    2198:	0045a783          	lw	a5,4(a1)
    219c:	0085a683          	lw	a3,8(a1)
    21a0:	fcf74ee3          	blt	a4,a5,217c <median+0x24>
    21a4:	00d74e63          	blt	a4,a3,21c0 <median+0x68>
    21a8:	fcf6dee3          	ble	a5,a3,2184 <median+0x2c>
    21ac:	00f62023          	sw	a5,0(a2)
    21b0:	00460613          	addi	a2,a2,4
    21b4:	00458593          	addi	a1,a1,4
    21b8:	fcc81ee3          	bne	a6,a2,2194 <median+0x3c>
    21bc:	00008067          	ret
    21c0:	00e62023          	sw	a4,0(a2)
    21c4:	fc5ff06f          	j	2188 <median+0x30>

Disassembly of section .text.startup:

000021c8 <main>:
    21c8:	9b010113          	addi	sp,sp,-1616
    21cc:	64812423          	sw	s0,1608(sp)
    21d0:	00002437          	lui	s0,0x2
    21d4:	26440413          	addi	s0,s0,612 # 2264 <input_data>
    21d8:	19000513          	li	a0,400
    21dc:	00040593          	mv	a1,s0
    21e0:	00010613          	mv	a2,sp
    21e4:	64112623          	sw	ra,1612(sp)
    21e8:	f71ff0ef          	jal	2158 <median>
    21ec:	00100793          	li	a5,1
    21f0:	0c079073          	csrw	stats,a5
    21f4:	19000513          	li	a0,400
    21f8:	00040593          	mv	a1,s0
    21fc:	00010613          	mv	a2,sp
    2200:	f59ff0ef          	jal	2158 <median>
    2204:	00000793          	li	a5,0
    2208:	0c079073          	csrw	stats,a5
    220c:	00003637          	lui	a2,0x3
    2210:	00000793          	li	a5,0
    2214:	8a460613          	addi	a2,a2,-1884 # 28a4 <verify_data>
    2218:	64000593          	li	a1,1600
    221c:	0080006f          	j	2224 <main+0x5c>
    2220:	02b78e63          	beq	a5,a1,225c <main+0x94>
    2224:	00010713          	mv	a4,sp
    2228:	00f706b3          	add	a3,a4,a5
    222c:	00f60733          	add	a4,a2,a5
    2230:	0006a683          	lw	a3,0(a3)
    2234:	00072703          	lw	a4,0(a4)
    2238:	00478793          	addi	a5,a5,4
    223c:	fee682e3          	beq	a3,a4,2220 <main+0x58>
    2240:	00200793          	li	a5,2
    2244:	51e79073          	csrw	tohost,a5
    2248:	64c12083          	lw	ra,1612(sp)
    224c:	00000513          	li	a0,0
    2250:	64812403          	lw	s0,1608(sp)
    2254:	65010113          	addi	sp,sp,1616
    2258:	00008067          	ret
    225c:	00100793          	li	a5,1
    2260:	fe5ff06f          	j	2244 <main+0x7c>
