
qsort.riscv:     file format elf32-littleriscv


Disassembly of section .text:

00002000 <_start>:
    2000:	00000093 	li	ra,0
    2004:	00000113 	li	s0,0
    2008:	00000193 	li	s1,0
    200c:	00000213 	li	s2,0
    2010:	00000293 	li	s3,0
    2014:	00000313 	li	s4,0
    2018:	00000393 	li	s5,0
    201c:	00000413 	li	s6,0
    2020:	00000493 	li	s7,0
    2024:	00000513 	li	s8,0
    2028:	00000593 	li	s9,0
    202c:	00000613 	li	s10,0
    2030:	00000693 	li	s11,0
    2034:	00000713 	li	sp,0
    2038:	00000793 	li	tp,0
    203c:	00000813 	li	v0,0
    2040:	00000893 	li	v1,0
    2044:	00000913 	li	a0,0
    2048:	00000993 	li	a1,0
    204c:	00000a13 	li	a2,0
    2050:	00000a93 	li	a3,0
    2054:	00000b13 	li	a4,0
    2058:	00000b93 	li	a5,0
    205c:	00000c13 	li	a6,0
    2060:	00000c93 	li	a7,0
    2064:	00000d13 	li	t0,0
    2068:	00000d93 	li	t1,0
    206c:	00000e13 	li	t2,0
    2070:	00000e93 	li	t3,0
    2074:	00000f13 	li	t4,0
    2078:	00000f93 	li	gp,0
    207c:	00100093 	li	ra,1
    2080:	00c00113 	li	s0,12
    2084:	002090b3 	sll	ra,ra,s0

00002088 <init1>:
    2088:	fff08093 	addi	ra,ra,-1
    208c:	fe009ee3 	bnez	ra,2088 <init1>
    2090:	00100093 	li	ra,1
    2094:	51c0d073 	csrwi	stats,1
    2098:	00000093 	li	ra,0
    209c:	00000113 	li	s0,0
    20a0:	50b02973 	csrr	a0,hartid
    20a4:	fe091ee3 	bnez	a0,20a0 <init1+0x18>
    20a8:	00021717 	auipc	sp,0x21
    20ac:	de070713 	addi	sp,sp,-544 # 22de0 <stacktop>
    20b0:	4a0000ef 	jal	2550 <main>
    20b4:	00000013 	nop
    20b8:	00000013 	nop
    20bc:	00000063 	b	20bc <init1+0x34>

000020c0 <__do_global_dtors_aux>:
    20c0:	fe070713 	addi	sp,sp,-32
    20c4:	00272c23 	sw	s0,24(sp)
    20c8:	00021117 	auipc	s0,0x21
    20cc:	de014803 	lbu	v0,-544(s0) # 22de0 <stacktop>
    20d0:	00172e23 	sw	ra,28(sp)
    20d4:	00372a23 	sw	s1,20(sp)
    20d8:	00472823 	sw	s2,16(sp)
    20dc:	00572623 	sw	s3,12(sp)
    20e0:	06081863 	bnez	v0,2150 <__do_global_dtors_aux+0x90>
    20e4:	00001297 	auipc	s3,0x1
    20e8:	00001217 	auipc	s2,0x1
    20ec:	00021197 	auipc	s1,0x21
    20f0:	da828293 	addi	s3,s3,-600 # 2da8 <__DTOR_LIST__>
    20f4:	dac20213 	addi	s2,s2,-596 # 2dac <__DTOR_END__>
    20f8:	40520233 	sub	s2,s2,s3
    20fc:	de41a803 	lw	v0,-540(s1) # 22de4 <dtor_idx.2406>
    2100:	40225213 	srai	s2,s2,0x2
    2104:	fff20213 	addi	s2,s2,-1
    2108:	02487263 	bleu	s2,v0,212c <__do_global_dtors_aux+0x6c>
    210c:	00180813 	addi	v0,v0,1
    2110:	00281893 	slli	v1,v0,0x2
    2114:	011288b3 	add	v1,s3,v1
    2118:	0008a883 	lw	v1,0(v1)
    211c:	df01a223 	sw	v0,-540(s1)
    2120:	000880e7 	jalr	v1
    2124:	de41a803 	lw	v0,-540(s1)
    2128:	fe4862e3 	bltu	v0,s2,210c <__do_global_dtors_aux+0x4c>
    212c:	ffffe817 	auipc	v0,0xffffe
    2130:	00000813 	li	v0,0
    2134:	00080a63 	beqz	v0,2148 <__do_global_dtors_aux+0x88>
    2138:	00000917 	auipc	a0,0x0
    213c:	5c490913 	addi	a0,a0,1476 # 25c4 <__EH_FRAME_BEGIN__>
    2140:	00000d17 	auipc	t0,0x0
    2144:	140d00e7 	jalr	t0,320 # 2140 <__do_global_dtors_aux+0x80>
    2148:	00100813 	li	v0,1
    214c:	df010023 	sb	v0,-544(s0)
    2150:	01c72083 	lw	ra,28(sp)
    2154:	01872103 	lw	s0,24(sp)
    2158:	01472183 	lw	s1,20(sp)
    215c:	01072203 	lw	s2,16(sp)
    2160:	00c72283 	lw	s3,12(sp)
    2164:	02070713 	addi	sp,sp,32
    2168:	00008067 	ret

0000216c <call___do_global_dtors_aux>:
    216c:	ff070713 	addi	sp,sp,-16
    2170:	00172623 	sw	ra,12(sp)
    2174:	00c72083 	lw	ra,12(sp)
    2178:	01070713 	addi	sp,sp,16
    217c:	00008067 	ret

00002180 <frame_dummy>:
    2180:	ffffe817 	auipc	v0,0xffffe
    2184:	ff070713 	addi	sp,sp,-16
    2188:	00000813 	li	v0,0
    218c:	00172623 	sw	ra,12(sp)
    2190:	00080e63 	beqz	v0,21ac <frame_dummy+0x2c>
    2194:	00000917 	auipc	a0,0x0
    2198:	00001997 	auipc	a1,0x1
    219c:	5c490913 	addi	a0,a0,1476 # 25c4 <__EH_FRAME_BEGIN__>
    21a0:	dc098993 	addi	a1,a1,-576 # 2dc0 <object.2419>
    21a4:	00000d17 	auipc	t0,0x0
    21a8:	1a4d00e7 	jalr	t0,420 # 21a4 <frame_dummy+0x24>
    21ac:	00001917 	auipc	a0,0x1
    21b0:	db092803 	lw	v0,-592(a0) # 2db0 <__JCR_END__>
    21b4:	02080063 	beqz	v0,21d4 <frame_dummy+0x54>
    21b8:	ffffed17 	auipc	t0,0xffffe
    21bc:	00000d13 	li	t0,0
    21c0:	000d0a63 	beqz	t0,21d4 <frame_dummy+0x54>
    21c4:	00c72083 	lw	ra,12(sp)
    21c8:	db090913 	addi	a0,a0,-592
    21cc:	01070713 	addi	sp,sp,16
    21d0:	000d0067 	jr	t0
    21d4:	00c72083 	lw	ra,12(sp)
    21d8:	01070713 	addi	sp,sp,16
    21dc:	00008067 	ret

000021e0 <call_frame_dummy>:
    21e0:	ff070713 	addi	sp,sp,-16
    21e4:	00172623 	sw	ra,12(sp)
    21e8:	00c72083 	lw	ra,12(sp)
    21ec:	01070713 	addi	sp,sp,16
    21f0:	00008067 	ret

000021f4 <barrier>:
    21f4:	ffff98b7 	lui	v1,0xffff9
    21f8:	0ff0000f 	fence
    21fc:	00f888b3 	add	v1,v1,tp
    2200:	0008a903 	lw	a0,0(v1)
    2204:	00021817 	auipc	v0,0x21
    2208:	dec80a13 	addi	a2,v0,-532 # 22dec <count.1250>
    220c:	00193913 	seqz	a0,a0
    2210:	0128a023 	sw	a0,0(v1)
    2214:	00100913 	li	a0,1
    2218:	012a29af 	amoadd.w	a1,a0,(a2)
    221c:	00001917 	auipc	a0,0x1
    2220:	db892903 	lw	a0,-584(a0) # 2db8 <ncores>
    2224:	fff90913 	addi	a0,a0,-1
    2228:	01298e63 	beq	a1,a0,2244 <barrier+0x50>
    222c:	0008a903 	lw	a0,0(v1)
    2230:	00021897 	auipc	v1,0x21
    2234:	de88a803 	lw	v0,-536(v1) # 22de8 <sense.1249>
    2238:	ff281ee3 	bne	v0,a0,2234 <barrier+0x40>
    223c:	0ff0000f 	fence
    2240:	00008067 	ret
    2244:	0008a883 	lw	v1,0(v1)
    2248:	de082623 	sw	zero,-532(v0)
    224c:	00021817 	auipc	v0,0x21
    2250:	df182423 	sw	v1,-536(v0) # 22de8 <sense.1249>
    2254:	0ff0000f 	fence
    2258:	00008067 	ret

0000225c <finishTest>:
    225c:	51e91073 	csrw	tohost,a0
    2260:	00008067 	ret

00002264 <verify>:
    2264:	00100813 	li	v0,1
    2268:	05205263 	blez	a0,22ac <verify+0x48>
    226c:	0009aa83 	lw	a3,0(a1)
    2270:	000a2883 	lw	v1,0(a2)
    2274:	00200813 	li	v0,2
    2278:	031a9a63 	bne	a3,v1,22ac <verify+0x48>
    227c:	00000813 	li	v0,0
    2280:	0180006f 	j	2298 <verify+0x34>
    2284:	0049aa83 	lw	a3,4(a1)
    2288:	004a2883 	lw	v1,4(a2)
    228c:	00498993 	addi	a1,a1,4
    2290:	004a0a13 	addi	a2,a2,4
    2294:	011a9a63 	bne	a3,v1,22a8 <verify+0x44>
    2298:	00180813 	addi	v0,v0,1
    229c:	ff2814e3 	bne	v0,a0,2284 <verify+0x20>
    22a0:	00100813 	li	v0,1
    22a4:	00008067 	ret
    22a8:	00200813 	li	v0,2
    22ac:	00008067 	ret

000022b0 <setStats>:
    22b0:	00008067 	ret

000022b4 <sort>:
    22b4:	f3070713 	addi	sp,sp,-208
    22b8:	00000d93 	li	t1,0
    22bc:	00100b93 	li	a5,1
    22c0:	00200e93 	li	t3,2
    22c4:	41790833 	sub	v0,a0,a5
    22c8:	00782813 	slti	v0,v0,7
    22cc:	0a080663 	beqz	v0,2378 <sort+0xc4>
    22d0:	07d94863 	blt	a0,t3,2340 <sort+0x8c>
    22d4:	002e9c93 	slli	a7,t3,0x2
    22d8:	000b8c13 	mv	a6,a5
    22dc:	01998cb3 	add	a7,a1,a7
    22e0:	ffccab03 	lw	a4,-4(a7)
    22e4:	000c0813 	mv	v0,a6
    22e8:	000c0a93 	mv	a3,a6
    22ec:	037c4e63 	blt	a6,a5,2328 <sort+0x74>
    22f0:	ff8ca883 	lw	v1,-8(a7)
    22f4:	000c8a13 	mv	a2,a7
    22f8:	011b4a63 	blt	a4,v1,230c <sort+0x58>
    22fc:	02c0006f 	j	2328 <sort+0x74>
    2300:	ff8a2883 	lw	v1,-8(a2)
    2304:	00080a93 	mv	a3,v0
    2308:	031b5063 	ble	v1,a4,2328 <sort+0x74>
    230c:	002a9a93 	slli	a3,a3,0x2
    2310:	01598ab3 	add	a3,a1,a3
    2314:	fff80813 	addi	v0,v0,-1
    2318:	ffca0a13 	addi	a2,a2,-4
    231c:	011aa023 	sw	v1,0(a3)
    2320:	ff7850e3 	ble	a5,v0,2300 <sort+0x4c>
    2324:	00080a93 	mv	a3,v0
    2328:	002a9a93 	slli	a3,a3,0x2
    232c:	01598ab3 	add	a3,a1,a3
    2330:	001c0c13 	addi	a6,a6,1
    2334:	016aa023 	sw	a4,0(a3)
    2338:	004c8c93 	addi	a7,a7,4
    233c:	fb2c12e3 	bne	a6,a0,22e0 <sort+0x2c>
    2340:	160d8863 	beqz	t1,24b0 <sort+0x1fc>
    2344:	fffd8813 	addi	v0,t1,-1
    2348:	0d070893 	addi	v1,sp,208
    234c:	00281813 	slli	v0,v0,0x2
    2350:	01088833 	add	v0,v1,v0
    2354:	f3882b83 	lw	a5,-200(v0)
    2358:	002d9813 	slli	v0,t1,0x2
    235c:	01088833 	add	v0,v1,v0
    2360:	f3882903 	lw	a0,-200(v0)
    2364:	ffed8d93 	addi	t1,t1,-2
    2368:	001b8e93 	addi	t3,a5,1
    236c:	41790833 	sub	v0,a0,a5
    2370:	00782813 	slti	v0,v0,7
    2374:	f4081ee3 	bnez	v0,22d0 <sort+0x1c>
    2378:	012b8833 	add	v0,a5,a0
    237c:	40185813 	srai	v0,v0,0x1
    2380:	fff80813 	addi	v0,v0,-1
    2384:	00281813 	slli	v0,v0,0x2
    2388:	002b9e13 	slli	t2,a5,0x2
    238c:	01098833 	add	v0,a1,v0
    2390:	01c98e33 	add	t2,a1,t2
    2394:	00082a83 	lw	a3,0(v0)
    2398:	000e2b03 	lw	a4,0(t2)
    239c:	fffb8893 	addi	v1,a5,-1
    23a0:	fff90a13 	addi	a2,a0,-1
    23a4:	00289893 	slli	v1,v1,0x2
    23a8:	002a1a13 	slli	a2,a2,0x2
    23ac:	01682023 	sw	a4,0(v0)
    23b0:	011988b3 	add	v1,a1,v1
    23b4:	015e2023 	sw	a3,0(t2)
    23b8:	01498a33 	add	a2,a1,a2
    23bc:	0008ab03 	lw	a4,0(v1)
    23c0:	000a2803 	lw	v0,0(a2)
    23c4:	01685a63 	ble	a4,v0,23d8 <sort+0x124>
    23c8:	0108a023 	sw	v0,0(v1)
    23cc:	016a2023 	sw	a4,0(a2)
    23d0:	000e2a83 	lw	a3,0(t2)
    23d4:	000b0813 	mv	v0,a4
    23d8:	01585863 	ble	a3,v0,23e8 <sort+0x134>
    23dc:	010e2023 	sw	v0,0(t2)
    23e0:	015a2023 	sw	a3,0(a2)
    23e4:	000e2a83 	lw	a3,0(t2)
    23e8:	0008a803 	lw	v0,0(v1)
    23ec:	010ad863 	ble	v0,a3,23fc <sort+0x148>
    23f0:	0158a023 	sw	a3,0(v1)
    23f4:	010e2023 	sw	v0,0(t2)
    23f8:	00080a93 	mv	a3,v0
    23fc:	000e8c93 	mv	a7,t3
    2400:	000e0c13 	mv	a6,t2
    2404:	00090893 	mv	v1,a0
    2408:	004c2d03 	lw	t0,4(a6)
    240c:	001c8c93 	addi	a7,a7,1
    2410:	035d4863 	blt	t0,a3,2440 <sort+0x18c>
    2414:	ffe88813 	addi	v0,v1,-2
    2418:	00281813 	slli	v0,v0,0x2
    241c:	01098833 	add	v0,a1,v0
    2420:	00080b13 	mv	a4,v0
    2424:	ffc80813 	addi	v0,v0,-4
    2428:	00482a03 	lw	a2,4(v0)
    242c:	fff88893 	addi	v1,v1,-1
    2430:	ff4ac8e3 	blt	a3,a2,2420 <sort+0x16c>
    2434:	0198ca63 	blt	v1,a7,2448 <sort+0x194>
    2438:	014c2223 	sw	a2,4(a6)
    243c:	01ab2023 	sw	t0,0(a4)
    2440:	004c0c13 	addi	a6,a6,4
    2444:	fc5ff06f 	j	2408 <sort+0x154>
    2448:	41990d33 	sub	t0,a0,a7
    244c:	002d8813 	addi	v0,t1,2
    2450:	014e2023 	sw	a2,0(t2)
    2454:	001d0d13 	addi	t0,t0,1 # 1 <threadsense.1251+0x1>
    2458:	015b2023 	sw	a3,0(a4)
    245c:	001d8a13 	addi	a2,t1,1
    2460:	00281a93 	slli	a3,v0,0x2
    2464:	0d070b13 	addi	a4,sp,208
    2468:	41788c33 	sub	a6,v1,a5
    246c:	002a1a13 	slli	a2,a2,0x2
    2470:	015b0ab3 	add	a3,a4,a3
    2474:	018d4e63 	blt	t0,a6,2490 <sort+0x1dc>
    2478:	014b0a33 	add	a2,a4,a2
    247c:	f32aac23 	sw	a0,-200(a3)
    2480:	00080d93 	mv	t1,v0
    2484:	f39a2c23 	sw	a7,-200(a2)
    2488:	fff88913 	addi	a0,v1,-1
    248c:	e39ff06f 	j	22c4 <sort+0x10>
    2490:	fff88893 	addi	v1,v1,-1
    2494:	014b0a33 	add	a2,a4,a2
    2498:	f31aac23 	sw	v1,-200(a3)
    249c:	00080d93 	mv	t1,v0
    24a0:	f37a2c23 	sw	a5,-200(a2)
    24a4:	001c8e93 	addi	t3,a7,1
    24a8:	000c8b93 	mv	a5,a7
    24ac:	e19ff06f 	j	22c4 <sort+0x10>
    24b0:	0d070713 	addi	sp,sp,208
    24b4:	00008067 	ret

000024b8 <__do_global_ctors_aux>:
    24b8:	00001817 	auipc	v0,0x1
    24bc:	da082803 	lw	v0,-608(v0) # 2da0 <_end>
    24c0:	ff070713 	addi	sp,sp,-16
    24c4:	fff00893 	li	v1,-1
    24c8:	00172623 	sw	ra,12(sp)
    24cc:	00272423 	sw	s0,8(sp)
    24d0:	00372223 	sw	s1,4(sp)
    24d4:	03180063 	beq	v0,v1,24f4 <__do_global_ctors_aux+0x3c>
    24d8:	00001117 	auipc	s0,0x1
    24dc:	da010113 	addi	s0,s0,-608 # 2da0 <_end>
    24e0:	fff00193 	li	s1,-1
    24e4:	ffc10113 	addi	s0,s0,-4
    24e8:	000800e7 	jalr	v0
    24ec:	00012803 	lw	v0,0(s0)
    24f0:	fe381ae3 	bne	v0,s1,24e4 <__do_global_ctors_aux+0x2c>
    24f4:	00c72083 	lw	ra,12(sp)
    24f8:	00872103 	lw	s0,8(sp)
    24fc:	00472183 	lw	s1,4(sp)
    2500:	01070713 	addi	sp,sp,16
    2504:	00008067 	ret

00002508 <call___do_global_ctors_aux>:
    2508:	ff070713 	addi	sp,sp,-16
    250c:	00172623 	sw	ra,12(sp)
    2510:	00c72083 	lw	ra,12(sp)
    2514:	01070713 	addi	sp,sp,16
    2518:	00008067 	ret

Disassembly of section .text.startup:

00002550 <main>:
    2550:	ff070713 	addi	sp,sp,-16
    2554:	00272423 	sw	s0,8(sp)
    2558:	00000117 	auipc	s0,0x0
    255c:	5c810113 	addi	s0,s0,1480 # 25c8 <input_data>
    2560:	0fa00913 	li	a0,250
    2564:	00010993 	mv	a1,s0
    2568:	00172623 	sw	ra,12(sp)
    256c:	d49ff0ef 	jal	22b4 <sort>
    2570:	00010993 	mv	a1,s0
    2574:	0fa00913 	li	a0,250
    2578:	d3dff0ef 	jal	22b4 <sort>
    257c:	3e810813 	addi	v0,s0,1000
    2580:	00080993 	mv	a1,v0
    2584:	0080006f 	j	258c <main+0x3c>
    2588:	03310a63 	beq	s0,a1,25bc <main+0x6c>
    258c:	00012903 	lw	a0,0(s0)
    2590:	00082883 	lw	v1,0(v0)
    2594:	00410113 	addi	s0,s0,4
    2598:	00480813 	addi	v0,v0,4
    259c:	ff1906e3 	beq	a0,v1,2588 <main+0x38>
    25a0:	00200813 	li	v0,2
    25a4:	51e81073 	csrw	tohost,v0
    25a8:	00c72083 	lw	ra,12(sp)
    25ac:	00000813 	li	v0,0
    25b0:	00872103 	lw	s0,8(sp)
    25b4:	01070713 	addi	sp,sp,16
    25b8:	00008067 	ret
    25bc:	00100813 	li	v0,1
    25c0:	fe5ff06f 	j	25a4 <main+0x54>
