
qsort.riscv:     file format elf32-littleriscv


Disassembly of section .text:

00002000 <_start>:
    2000:	00000093 	li	ra,0
    2004:	00000113 	li	s0,0
    2008:	00000193 	li	s1,0
    200c:	00000213 	li	s2,0
    2010:	00000293 	li	s3,0
    2014:	00000313 	li	s4,0
    2018:	00000393 	li	s5,0
    201c:	00000413 	li	s6,0
    2020:	00000493 	li	s7,0
    2024:	00000513 	li	s8,0
    2028:	00000593 	li	s9,0
    202c:	00000613 	li	s10,0
    2030:	00000693 	li	s11,0
    2034:	00000713 	li	sp,0
    2038:	00000793 	li	tp,0
    203c:	00000813 	li	v0,0
    2040:	00000893 	li	v1,0
    2044:	00000913 	li	a0,0
    2048:	00000993 	li	a1,0
    204c:	00000a13 	li	a2,0
    2050:	00000a93 	li	a3,0
    2054:	00000b13 	li	a4,0
    2058:	00000b93 	li	a5,0
    205c:	00000c13 	li	a6,0
    2060:	00000c93 	li	a7,0
    2064:	00000d13 	li	t0,0
    2068:	00000d93 	li	t1,0
    206c:	00000e13 	li	t2,0
    2070:	00000e93 	li	t3,0
    2074:	00000f13 	li	t4,0
    2078:	00000f93 	li	gp,0
    207c:	50b02973 	csrr	a0,hartid
    2080:	fe091ee3 	bnez	a0,207c <_start+0x7c>
    2084:	00021717 	auipc	sp,0x21
    2088:	dc070713 	add	sp,sp,-576 # 22dc0 <stacktop>
    208c:	4a0000ef 	jal	252c <main>
    2090:	00000013 	nop
    2094:	00000013 	nop
    2098:	00000063 	b	2098 <_start+0x98>

0000209c <__do_global_dtors_aux>:
    209c:	fe070713 	add	sp,sp,-32
    20a0:	00272c23 	sw	s0,24(sp)
    20a4:	00021117 	auipc	s0,0x21
    20a8:	dc014803 	lbu	v0,-576(s0) # 22dc0 <stacktop>
    20ac:	00172e23 	sw	ra,28(sp)
    20b0:	00372a23 	sw	s1,20(sp)
    20b4:	00472823 	sw	s2,16(sp)
    20b8:	00572623 	sw	s3,12(sp)
    20bc:	06081863 	bnez	v0,212c <__do_global_dtors_aux+0x90>
    20c0:	00001297 	auipc	s3,0x1
    20c4:	00001217 	auipc	s2,0x1
    20c8:	00021197 	auipc	s1,0x21
    20cc:	d8428293 	add	s3,s3,-636 # 2d84 <__DTOR_LIST__>
    20d0:	d8820213 	add	s2,s2,-632 # 2d88 <__DTOR_END__>
    20d4:	40520233 	sub	s2,s2,s3
    20d8:	dc41a803 	lw	v0,-572(s1) # 22dc4 <dtor_idx.2406>
    20dc:	40225213 	sra	s2,s2,0x2
    20e0:	fff20213 	add	s2,s2,-1
    20e4:	02487263 	bleu	s2,v0,2108 <__do_global_dtors_aux+0x6c>
    20e8:	00180813 	add	v0,v0,1
    20ec:	00281893 	sll	v1,v0,0x2
    20f0:	011288b3 	add	v1,s3,v1
    20f4:	0008a883 	lw	v1,0(v1)
    20f8:	dd01a223 	sw	v0,-572(s1)
    20fc:	000880e7 	jalr	v1
    2100:	dc41a803 	lw	v0,-572(s1)
    2104:	fe4862e3 	bltu	v0,s2,20e8 <__do_global_dtors_aux+0x4c>
    2108:	ffffe817 	auipc	v0,0xffffe
    210c:	00000813 	li	v0,0
    2110:	00080a63 	beqz	v0,2124 <__do_global_dtors_aux+0x88>
    2114:	00000917 	auipc	a0,0x0
    2118:	5a090913 	add	a0,a0,1440 # 25a0 <__EH_FRAME_BEGIN__>
    211c:	00000d17 	auipc	t0,0x0
    2120:	11cd00e7 	jalr	t0,284 # 211c <__do_global_dtors_aux+0x80>
    2124:	00100813 	li	v0,1
    2128:	dd010023 	sb	v0,-576(s0)
    212c:	01c72083 	lw	ra,28(sp)
    2130:	01872103 	lw	s0,24(sp)
    2134:	01472183 	lw	s1,20(sp)
    2138:	01072203 	lw	s2,16(sp)
    213c:	00c72283 	lw	s3,12(sp)
    2140:	02070713 	add	sp,sp,32
    2144:	00008067 	ret

00002148 <call___do_global_dtors_aux>:
    2148:	ff070713 	add	sp,sp,-16
    214c:	00172623 	sw	ra,12(sp)
    2150:	00c72083 	lw	ra,12(sp)
    2154:	01070713 	add	sp,sp,16
    2158:	00008067 	ret

0000215c <frame_dummy>:
    215c:	ffffe817 	auipc	v0,0xffffe
    2160:	ff070713 	add	sp,sp,-16
    2164:	00000813 	li	v0,0
    2168:	00172623 	sw	ra,12(sp)
    216c:	00080e63 	beqz	v0,2188 <frame_dummy+0x2c>
    2170:	00000917 	auipc	a0,0x0
    2174:	00001997 	auipc	a1,0x1
    2178:	5a090913 	add	a0,a0,1440 # 25a0 <__EH_FRAME_BEGIN__>
    217c:	da098993 	add	a1,a1,-608 # 2da0 <object.2419>
    2180:	00000d17 	auipc	t0,0x0
    2184:	180d00e7 	jalr	t0,384 # 2180 <frame_dummy+0x24>
    2188:	00001917 	auipc	a0,0x1
    218c:	d8c92803 	lw	v0,-628(a0) # 2d8c <__JCR_END__>
    2190:	02080063 	beqz	v0,21b0 <frame_dummy+0x54>
    2194:	ffffed17 	auipc	t0,0xffffe
    2198:	00000d13 	li	t0,0
    219c:	000d0a63 	beqz	t0,21b0 <frame_dummy+0x54>
    21a0:	00c72083 	lw	ra,12(sp)
    21a4:	d8c90913 	add	a0,a0,-628
    21a8:	01070713 	add	sp,sp,16
    21ac:	000d0067 	jr	t0
    21b0:	00c72083 	lw	ra,12(sp)
    21b4:	01070713 	add	sp,sp,16
    21b8:	00008067 	ret

000021bc <call_frame_dummy>:
    21bc:	ff070713 	add	sp,sp,-16
    21c0:	00172623 	sw	ra,12(sp)
    21c4:	00c72083 	lw	ra,12(sp)
    21c8:	01070713 	add	sp,sp,16
    21cc:	00008067 	ret

000021d0 <barrier>:
    21d0:	ffff98b7 	lui	v1,0xffff9
    21d4:	0ff0000f 	fence
    21d8:	00f888b3 	add	v1,v1,tp
    21dc:	0008a903 	lw	a0,0(v1)
    21e0:	00021817 	auipc	v0,0x21
    21e4:	dcc80a13 	add	a2,v0,-564 # 22dcc <count.1250>
    21e8:	00193913 	seqz	a0,a0
    21ec:	0128a023 	sw	a0,0(v1)
    21f0:	00100913 	li	a0,1
    21f4:	012a29af 	amoadd.w	a1,a0,(a2)
    21f8:	00001917 	auipc	a0,0x1
    21fc:	d9492903 	lw	a0,-620(a0) # 2d94 <ncores>
    2200:	fff90913 	add	a0,a0,-1
    2204:	01298e63 	beq	a1,a0,2220 <barrier+0x50>
    2208:	0008a903 	lw	a0,0(v1)
    220c:	00021897 	auipc	v1,0x21
    2210:	dc88a803 	lw	v0,-568(v1) # 22dc8 <sense.1249>
    2214:	ff281ee3 	bne	v0,a0,2210 <barrier+0x40>
    2218:	0ff0000f 	fence
    221c:	00008067 	ret
    2220:	0008a883 	lw	v1,0(v1)
    2224:	dc082623 	sw	zero,-564(v0)
    2228:	00021817 	auipc	v0,0x21
    222c:	dd182423 	sw	v1,-568(v0) # 22dc8 <sense.1249>
    2230:	0ff0000f 	fence
    2234:	00008067 	ret

00002238 <finishTest>:
    2238:	51e91073 	csrw	tohost,a0
    223c:	00008067 	ret

00002240 <verify>:
    2240:	00100813 	li	v0,1
    2244:	05205263 	blez	a0,2288 <verify+0x48>
    2248:	0009aa83 	lw	a3,0(a1)
    224c:	000a2883 	lw	v1,0(a2)
    2250:	00200813 	li	v0,2
    2254:	031a9a63 	bne	a3,v1,2288 <verify+0x48>
    2258:	00000813 	li	v0,0
    225c:	0180006f 	j	2274 <verify+0x34>
    2260:	0049aa83 	lw	a3,4(a1)
    2264:	004a2883 	lw	v1,4(a2)
    2268:	00498993 	add	a1,a1,4
    226c:	004a0a13 	add	a2,a2,4
    2270:	011a9a63 	bne	a3,v1,2284 <verify+0x44>
    2274:	00180813 	add	v0,v0,1
    2278:	ff2814e3 	bne	v0,a0,2260 <verify+0x20>
    227c:	00100813 	li	v0,1
    2280:	00008067 	ret
    2284:	00200813 	li	v0,2
    2288:	00008067 	ret

0000228c <setStats>:
    228c:	00008067 	ret

00002290 <sort>:
    2290:	f3070713 	add	sp,sp,-208
    2294:	00000d93 	li	t1,0
    2298:	00100b93 	li	a5,1
    229c:	00200e93 	li	t3,2
    22a0:	41790833 	sub	v0,a0,a5
    22a4:	00782813 	slt	v0,v0,7
    22a8:	0a080663 	beqz	v0,2354 <sort+0xc4>
    22ac:	07d94863 	blt	a0,t3,231c <sort+0x8c>
    22b0:	002e9c93 	sll	a7,t3,0x2
    22b4:	000b8c13 	mv	a6,a5
    22b8:	01998cb3 	add	a7,a1,a7
    22bc:	ffccab03 	lw	a4,-4(a7)
    22c0:	000c0813 	mv	v0,a6
    22c4:	000c0a93 	mv	a3,a6
    22c8:	037c4e63 	blt	a6,a5,2304 <sort+0x74>
    22cc:	ff8ca883 	lw	v1,-8(a7)
    22d0:	000c8a13 	mv	a2,a7
    22d4:	011b4a63 	blt	a4,v1,22e8 <sort+0x58>
    22d8:	02c0006f 	j	2304 <sort+0x74>
    22dc:	ff8a2883 	lw	v1,-8(a2)
    22e0:	00080a93 	mv	a3,v0
    22e4:	031b5063 	ble	v1,a4,2304 <sort+0x74>
    22e8:	002a9a93 	sll	a3,a3,0x2
    22ec:	01598ab3 	add	a3,a1,a3
    22f0:	fff80813 	add	v0,v0,-1
    22f4:	ffca0a13 	add	a2,a2,-4
    22f8:	011aa023 	sw	v1,0(a3)
    22fc:	ff7850e3 	ble	a5,v0,22dc <sort+0x4c>
    2300:	00080a93 	mv	a3,v0
    2304:	002a9a93 	sll	a3,a3,0x2
    2308:	01598ab3 	add	a3,a1,a3
    230c:	001c0c13 	add	a6,a6,1
    2310:	016aa023 	sw	a4,0(a3)
    2314:	004c8c93 	add	a7,a7,4
    2318:	fb2c12e3 	bne	a6,a0,22bc <sort+0x2c>
    231c:	160d8863 	beqz	t1,248c <sort+0x1fc>
    2320:	fffd8813 	add	v0,t1,-1
    2324:	0d070893 	add	v1,sp,208
    2328:	00281813 	sll	v0,v0,0x2
    232c:	01088833 	add	v0,v1,v0
    2330:	f3882b83 	lw	a5,-200(v0)
    2334:	002d9813 	sll	v0,t1,0x2
    2338:	01088833 	add	v0,v1,v0
    233c:	f3882903 	lw	a0,-200(v0)
    2340:	ffed8d93 	add	t1,t1,-2
    2344:	001b8e93 	add	t3,a5,1
    2348:	41790833 	sub	v0,a0,a5
    234c:	00782813 	slt	v0,v0,7
    2350:	f4081ee3 	bnez	v0,22ac <sort+0x1c>
    2354:	012b8833 	add	v0,a5,a0
    2358:	40185813 	sra	v0,v0,0x1
    235c:	fff80813 	add	v0,v0,-1
    2360:	00281813 	sll	v0,v0,0x2
    2364:	002b9e13 	sll	t2,a5,0x2
    2368:	01098833 	add	v0,a1,v0
    236c:	01c98e33 	add	t2,a1,t2
    2370:	00082a83 	lw	a3,0(v0)
    2374:	000e2b03 	lw	a4,0(t2)
    2378:	fffb8893 	add	v1,a5,-1
    237c:	fff90a13 	add	a2,a0,-1
    2380:	00289893 	sll	v1,v1,0x2
    2384:	002a1a13 	sll	a2,a2,0x2
    2388:	01682023 	sw	a4,0(v0)
    238c:	011988b3 	add	v1,a1,v1
    2390:	015e2023 	sw	a3,0(t2)
    2394:	01498a33 	add	a2,a1,a2
    2398:	0008ab03 	lw	a4,0(v1)
    239c:	000a2803 	lw	v0,0(a2)
    23a0:	01685a63 	ble	a4,v0,23b4 <sort+0x124>
    23a4:	0108a023 	sw	v0,0(v1)
    23a8:	016a2023 	sw	a4,0(a2)
    23ac:	000e2a83 	lw	a3,0(t2)
    23b0:	000b0813 	mv	v0,a4
    23b4:	01585863 	ble	a3,v0,23c4 <sort+0x134>
    23b8:	010e2023 	sw	v0,0(t2)
    23bc:	015a2023 	sw	a3,0(a2)
    23c0:	000e2a83 	lw	a3,0(t2)
    23c4:	0008a803 	lw	v0,0(v1)
    23c8:	010ad863 	ble	v0,a3,23d8 <sort+0x148>
    23cc:	0158a023 	sw	a3,0(v1)
    23d0:	010e2023 	sw	v0,0(t2)
    23d4:	00080a93 	mv	a3,v0
    23d8:	000e8c93 	mv	a7,t3
    23dc:	000e0c13 	mv	a6,t2
    23e0:	00090893 	mv	v1,a0
    23e4:	004c2d03 	lw	t0,4(a6)
    23e8:	001c8c93 	add	a7,a7,1
    23ec:	035d4863 	blt	t0,a3,241c <sort+0x18c>
    23f0:	ffe88813 	add	v0,v1,-2
    23f4:	00281813 	sll	v0,v0,0x2
    23f8:	01098833 	add	v0,a1,v0
    23fc:	00080b13 	mv	a4,v0
    2400:	ffc80813 	add	v0,v0,-4
    2404:	00482a03 	lw	a2,4(v0)
    2408:	fff88893 	add	v1,v1,-1
    240c:	ff4ac8e3 	blt	a3,a2,23fc <sort+0x16c>
    2410:	0198ca63 	blt	v1,a7,2424 <sort+0x194>
    2414:	014c2223 	sw	a2,4(a6)
    2418:	01ab2023 	sw	t0,0(a4)
    241c:	004c0c13 	add	a6,a6,4
    2420:	fc5ff06f 	j	23e4 <sort+0x154>
    2424:	41990d33 	sub	t0,a0,a7
    2428:	002d8813 	add	v0,t1,2
    242c:	014e2023 	sw	a2,0(t2)
    2430:	001d0d13 	add	t0,t0,1 # 1 <threadsense.1251+0x1>
    2434:	015b2023 	sw	a3,0(a4)
    2438:	001d8a13 	add	a2,t1,1
    243c:	00281a93 	sll	a3,v0,0x2
    2440:	0d070b13 	add	a4,sp,208
    2444:	41788c33 	sub	a6,v1,a5
    2448:	002a1a13 	sll	a2,a2,0x2
    244c:	015b0ab3 	add	a3,a4,a3
    2450:	018d4e63 	blt	t0,a6,246c <sort+0x1dc>
    2454:	014b0a33 	add	a2,a4,a2
    2458:	f32aac23 	sw	a0,-200(a3)
    245c:	00080d93 	mv	t1,v0
    2460:	f39a2c23 	sw	a7,-200(a2)
    2464:	fff88913 	add	a0,v1,-1
    2468:	e39ff06f 	j	22a0 <sort+0x10>
    246c:	fff88893 	add	v1,v1,-1
    2470:	014b0a33 	add	a2,a4,a2
    2474:	f31aac23 	sw	v1,-200(a3)
    2478:	00080d93 	mv	t1,v0
    247c:	f37a2c23 	sw	a5,-200(a2)
    2480:	001c8e93 	add	t3,a7,1
    2484:	000c8b93 	mv	a5,a7
    2488:	e19ff06f 	j	22a0 <sort+0x10>
    248c:	0d070713 	add	sp,sp,208
    2490:	00008067 	ret

00002494 <__do_global_ctors_aux>:
    2494:	00001817 	auipc	v0,0x1
    2498:	d7c82803 	lw	v0,-644(v0) # 2d7c <_end>
    249c:	ff070713 	add	sp,sp,-16
    24a0:	fff00893 	li	v1,-1
    24a4:	00172623 	sw	ra,12(sp)
    24a8:	00272423 	sw	s0,8(sp)
    24ac:	00372223 	sw	s1,4(sp)
    24b0:	03180063 	beq	v0,v1,24d0 <__do_global_ctors_aux+0x3c>
    24b4:	00001117 	auipc	s0,0x1
    24b8:	d7c10113 	add	s0,s0,-644 # 2d7c <_end>
    24bc:	fff00193 	li	s1,-1
    24c0:	ffc10113 	add	s0,s0,-4
    24c4:	000800e7 	jalr	v0
    24c8:	00012803 	lw	v0,0(s0)
    24cc:	fe381ae3 	bne	v0,s1,24c0 <__do_global_ctors_aux+0x2c>
    24d0:	00c72083 	lw	ra,12(sp)
    24d4:	00872103 	lw	s0,8(sp)
    24d8:	00472183 	lw	s1,4(sp)
    24dc:	01070713 	add	sp,sp,16
    24e0:	00008067 	ret

000024e4 <call___do_global_ctors_aux>:
    24e4:	ff070713 	add	sp,sp,-16
    24e8:	00172623 	sw	ra,12(sp)
    24ec:	00c72083 	lw	ra,12(sp)
    24f0:	01070713 	add	sp,sp,16
    24f4:	00008067 	ret

Disassembly of section .text.startup:

0000252c <main>:
    252c:	ff070713 	add	sp,sp,-16
    2530:	00272423 	sw	s0,8(sp)
    2534:	00000117 	auipc	s0,0x0
    2538:	5a410113 	add	s0,s0,1444 # 25a4 <input_data>
    253c:	0fa00913 	li	a0,250
    2540:	00010993 	mv	a1,s0
    2544:	00172623 	sw	ra,12(sp)
    2548:	d49ff0ef 	jal	2290 <sort>
    254c:	00010993 	mv	a1,s0
    2550:	0fa00913 	li	a0,250
    2554:	d3dff0ef 	jal	2290 <sort>
    2558:	3e810813 	add	v0,s0,1000
    255c:	00080993 	mv	a1,v0
    2560:	0080006f 	j	2568 <main+0x3c>
    2564:	03310a63 	beq	s0,a1,2598 <main+0x6c>
    2568:	00012903 	lw	a0,0(s0)
    256c:	00082883 	lw	v1,0(v0)
    2570:	00410113 	add	s0,s0,4
    2574:	00480813 	add	v0,v0,4
    2578:	ff1906e3 	beq	a0,v1,2564 <main+0x38>
    257c:	00200813 	li	v0,2
    2580:	51e81073 	csrw	tohost,v0
    2584:	00c72083 	lw	ra,12(sp)
    2588:	00000813 	li	v0,0
    258c:	00872103 	lw	s0,8(sp)
    2590:	01070713 	add	sp,sp,16
    2594:	00008067 	ret
    2598:	00100813 	li	v0,1
    259c:	fe5ff06f 	j	2580 <main+0x54>

Disassembly of section .data:

000025a4 <input_data>:
    25a4:	0029      	0x29
    25a6:	0000      	unimp
    25a8:	01c6      	0x1c6
    25aa:	0000      	unimp
    25ac:	0341      	0x341
    25ae:	0000      	unimp
    25b0:	0000014f 	fnmadd.s	fs2,fs0,fs0,fs0,rne
    25b4:	0234      	0x234
    25b6:	0000      	unimp
    25b8:	0001      	0x1
    25ba:	0000      	unimp
    25bc:	000000bb 	addw	ra,zero,zero
    25c0:	03dd      	0x3dd
    25c2:	0000      	unimp
    25c4:	02ed      	0x2ed
    25c6:	0000      	unimp
    25c8:	016d      	0x16d
    25ca:	0000      	unimp
    25cc:	015e      	0x15e
    25ce:	0000      	unimp
    25d0:	023c      	0x23c
    25d2:	0000      	unimp
    25d4:	0084      	0x84
    25d6:	0000      	unimp
    25d8:	0040      	0x40
    25da:	0000      	unimp
    25dc:	03b5      	0x3b5
    25de:	0000      	unimp
    25e0:	0099      	0x99
    25e2:	0000      	unimp
    25e4:	0248      	0x248
    25e6:	0000      	unimp
    25e8:	00d8      	0xd8
    25ea:	0000      	unimp
    25ec:	0325      	0x325
    25ee:	0000      	unimp
    25f0:	008c      	0x8c
    25f2:	0000      	unimp
    25f4:	026d      	0x26d
    25f6:	0000      	unimp
    25f8:	00d2      	0xd2
    25fa:	0000      	unimp
    25fc:	0006      	0x6
    25fe:	0000      	unimp
    2600:	023c      	0x23c
    2602:	0000      	unimp
    2604:	000003a3 	sb	zero,7(zero)
    2608:	00000153 	fadd.s	fs2,fs0,fs0,rne
    260c:	037a      	0x37a
    260e:	0000      	unimp
    2610:	0251      	0x251
    2612:	0000      	unimp
    2614:	0188      	0x188
    2616:	0000      	unimp
    2618:	0382      	0x382
    261a:	0000      	unimp
    261c:	02b6      	0x2b6
    261e:	0000      	unimp
    2620:	00e4      	0xe4
    2622:	0000      	unimp
    2624:	03c1      	0x3c1
    2626:	0000      	unimp
    2628:	000c      	0xc
    262a:	0000      	unimp
    262c:	006e      	0x6e
    262e:	0000      	unimp
    2630:	00000373 	0x373
    2634:	0074      	0x74
    2636:	0000      	unimp
    2638:	02ee      	0x2ee
    263a:	0000      	unimp
    263c:	0128      	0x128
    263e:	0000      	unimp
    2640:	0286      	0x286
    2642:	0000      	unimp
    2644:	01aa      	0x1aa
    2646:	0000      	unimp
    2648:	01f4      	0x1f4
    264a:	0000      	unimp
    264c:	013a      	0x13a
    264e:	0000      	unimp
    2650:	01b4      	0x1b4
    2652:	0000      	unimp
    2654:	00000293 	li	s3,0
    2658:	02bd      	0x2bd
    265a:	0000      	unimp
    265c:	0306      	0x306
    265e:	0000      	unimp
    2660:	032c      	0x32c
    2662:	0000      	unimp
    2664:	0000013f 	0x13f
    2668:	03d5      	0x3d5
    266a:	0000      	unimp
    266c:	02a6      	0x2a6
    266e:	0000      	unimp
    2670:	0096      	0x96
    2672:	0000      	unimp
    2674:	0000036b 	0x36b
    2678:	02b8      	0x2b8
    267a:	0000      	unimp
    267c:	0178      	0x178
    267e:	0000      	unimp
    2680:	0234      	0x234
    2682:	0000      	unimp
    2684:	01da      	0x1da
    2686:	0000      	unimp
    2688:	0110      	0x110
    268a:	0000      	unimp
    268c:	03aa      	0x3aa
    268e:	0000      	unimp
    2690:	0102      	0x102
    2692:	0000      	unimp
    2694:	0000021b 	sext.w	s2,zero
    2698:	00000287 	0x287
    269c:	0239      	0x239
    269e:	0000      	unimp
    26a0:	01fd      	0x1fd
    26a2:	0000      	unimp
    26a4:	000000cb 	fnmsub.s	fs1,fs0,fs0,fs0,rne
    26a8:	0058      	0x58
    26aa:	0000      	unimp
    26ac:	0118      	0x118
    26ae:	0000      	unimp
    26b0:	000002bf 	0x2bf
    26b4:	000002f7 	0x2f7
    26b8:	029d      	0x29d
    26ba:	0000      	unimp
    26bc:	025e      	0x25e
    26be:	0000      	unimp
    26c0:	00000177 	0x177
    26c4:	000001ff 	0x1ff
    26c8:	00000227 	0x227
    26cc:	0291      	0x291
    26ce:	0000      	unimp
    26d0:	03a8      	0x3a8
    26d2:	0000      	unimp
    26d4:	000000c3 	fmadd.s	fs1,fs0,fs0,fs0,rne
    26d8:	0250      	0x250
    26da:	0000      	unimp
    26dc:	0051      	0x51
    26de:	0000      	unimp
    26e0:	0239      	0x239
    26e2:	0000      	unimp
    26e4:	0000010b 	custom0	2,0,0,0
    26e8:	03b8      	0x3b8
    26ea:	0000      	unimp
    26ec:	00e5      	0xe5
    26ee:	0000      	unimp
    26f0:	0320      	0x320
    26f2:	0000      	unimp
    26f4:	0151      	0x151
    26f6:	0000      	unimp
    26f8:	0248      	0x248
    26fa:	0000      	unimp
    26fc:	03b0      	0x3b0
    26fe:	0000      	unimp
    2700:	00000283 	lb	s3,0(zero)
    2704:	0386      	0x386
    2706:	0000      	unimp
    2708:	0170      	0x170
    270a:	0000      	unimp
    270c:	00f1      	0xf1
    270e:	0000      	unimp
    2710:	01e9      	0x1e9
    2712:	0000      	unimp
    2714:	0391      	0x391
    2716:	0000      	unimp
    2718:	0148      	0x148
    271a:	0000      	unimp
    271c:	033a      	0x33a
    271e:	0000      	unimp
    2720:	0139      	0x139
    2722:	0000      	unimp
    2724:	03a5      	0x3a5
    2726:	0000      	unimp
    2728:	0250      	0x250
    272a:	0000      	unimp
    272c:	03d9      	0x3d9
    272e:	0000      	unimp
    2730:	0184      	0x184
    2732:	0000      	unimp
    2734:	000000c3 	fmadd.s	fs1,fs0,fs0,fs0,rne
    2738:	0000021f 	0x21f
    273c:	03c0      	0x3c0
    273e:	0000      	unimp
    2740:	0289      	0x289
    2742:	0000      	unimp
    2744:	0236      	0x236
    2746:	0000      	unimp
    2748:	000003d3 	fadd.s	fs7,fs0,fs0,rne
    274c:	015e      	0x15e
    274e:	0000      	unimp
    2750:	03e5      	0x3e5
    2752:	0000      	unimp
    2754:	0289      	0x289
    2756:	0000      	unimp
    2758:	032e      	0x32e
    275a:	0000      	unimp
    275c:	0291      	0x291
    275e:	0000      	unimp
    2760:	0000004f 	fnmadd.s	fs0,fs0,fs0,fs0,rne
    2764:	00b5      	0xb5
    2766:	0000      	unimp
    2768:	00d0      	0xd0
    276a:	0000      	unimp
    276c:	0000006f 	j	276c <input_data+0x1c8>
    2770:	03e6      	0x3e6
    2772:	0000      	unimp
    2774:	0000035b 	custom2	6,0,0,0
    2778:	0275      	0x275
    277a:	0000      	unimp
    277c:	0041      	0x41
    277e:	0000      	unimp
    2780:	0000034f 	fnmadd.s	fs6,fs0,fs0,fs0,rne
    2784:	0120      	0x120
    2786:	0000      	unimp
    2788:	02c0      	0x2c0
    278a:	0000      	unimp
    278c:	015d      	0x15d
    278e:	0000      	unimp
    2790:	03e5      	0x3e5
    2792:	0000      	unimp
    2794:	008d      	0x8d
    2796:	0000      	unimp
    2798:	00fd      	0xfd
    279a:	0000      	unimp
    279c:	0389      	0x389
    279e:	0000      	unimp
    27a0:	000002cb 	fnmsub.s	fs5,fs0,fs0,fs0,rne
    27a4:	0376      	0x376
    27a6:	0000      	unimp
    27a8:	01ae      	0x1ae
    27aa:	0000      	unimp
    27ac:	0108      	0x108
    27ae:	0000      	unimp
    27b0:	0000019f 	0x19f
    27b4:	0240      	0x240
    27b6:	0000      	unimp
    27b8:	021a      	0x21a
    27ba:	0000      	unimp
    27bc:	000003d3 	fadd.s	fs7,fs0,fs0,rne
    27c0:	02bc      	0x2bc
    27c2:	0000      	unimp
    27c4:	02f9      	0x2f9
    27c6:	0000      	unimp
    27c8:	0004      	0x4
    27ca:	0000      	unimp
    27cc:	00f1      	0xf1
    27ce:	0000      	unimp
    27d0:	01ee      	0x1ee
    27d2:	0000      	unimp
    27d4:	01de      	0x1de
    27d6:	0000      	unimp
    27d8:	0064      	0x64
    27da:	0000      	unimp
    27dc:	000001f3 	0x1f3
    27e0:	0360      	0x360
    27e2:	0000      	unimp
    27e4:	00000193 	li	s1,0
    27e8:	02b5      	0x2b5
    27ea:	0000      	unimp
    27ec:	00de      	0xde
    27ee:	0000      	unimp
    27f0:	01a0      	0x1a0
    27f2:	0000      	unimp
    27f4:	01bc      	0x1bc
    27f6:	0000      	unimp
    27f8:	0128      	0x128
    27fa:	0000      	unimp
    27fc:	02d1      	0x2d1
    27fe:	0000      	unimp
    2800:	011d      	0x11d
    2802:	0000      	unimp
    2804:	02a4      	0x2a4
    2806:	0000      	unimp
    2808:	026c      	0x26c
    280a:	0000      	unimp
    280c:	013d      	0x13d
    280e:	0000      	unimp
    2810:	004e      	0x4e
    2812:	0000      	unimp
    2814:	00e0      	0xe0
    2816:	0000      	unimp
    2818:	0000015f 	0x15f
    281c:	03a9      	0x3a9
    281e:	0000      	unimp
    2820:	021c      	0x21c
    2822:	0000      	unimp
    2824:	0120      	0x120
    2826:	0000      	unimp
    2828:	0286      	0x286
    282a:	0000      	unimp
    282c:	00000077 	0x77
    2830:	00a9      	0xa9
    2832:	0000      	unimp
    2834:	00000267 	jalr	s2,zero
    2838:	0000020f 	0x20f
    283c:	025e      	0x25e
    283e:	0000      	unimp
    2840:	0121      	0x121
    2842:	0000      	unimp
    2844:	0185      	0x185
    2846:	0000      	unimp
    2848:	031c      	0x31c
    284a:	0000      	unimp
    284c:	0000015f 	0x15f
    2850:	0321      	0x321
    2852:	0000      	unimp
    2854:	000001c7 	fmsub.s	fs3,fs0,fs0,fs0,rne
    2858:	02d0      	0x2d0
    285a:	0000      	unimp
    285c:	0116      	0x116
    285e:	0000      	unimp
    2860:	02f6      	0x2f6
    2862:	0000      	unimp
    2864:	0000016f 	jal	s0,2864 <input_data+0x2c0>
    2868:	02e9      	0x2e9
    286a:	0000      	unimp
    286c:	0166      	0x166
    286e:	0000      	unimp
    2870:	005c      	0x5c
    2872:	0000      	unimp
    2874:	0248      	0x248
    2876:	0000      	unimp
    2878:	03dd      	0x3dd
    287a:	0000      	unimp
    287c:	003e      	0x3e
    287e:	0000      	unimp
    2880:	0000010f 	0x10f
    2884:	03d9      	0x3d9
    2886:	0000      	unimp
    2888:	0355      	0x355
    288a:	0000      	unimp
    288c:	00000193 	li	s1,0
    2890:	0314      	0x314
    2892:	0000      	unimp
    2894:	015a      	0x15a
    2896:	0000      	unimp
    2898:	00000213 	li	s2,0
    289c:	0205      	0x205
    289e:	0000      	unimp
    28a0:	00de      	0xde
    28a2:	0000      	unimp
    28a4:	0000022f 	0x22f
    28a8:	01cd      	0x1cd
    28aa:	0000      	unimp
    28ac:	038c      	0x38c
    28ae:	0000      	unimp
    28b0:	00f1      	0xf1
    28b2:	0000      	unimp
    28b4:	00000307 	0x307
    28b8:	0166      	0x166
    28ba:	0000      	unimp
    28bc:	000000ff 	0xff
    28c0:	014c      	0x14c
    28c2:	0000      	unimp
    28c4:	030a      	0x30a
    28c6:	0000      	unimp
    28c8:	02ac      	0x2ac
    28ca:	0000      	unimp
    28cc:	0256      	0x256
    28ce:	0000      	unimp
    28d0:	02e4      	0x2e4
    28d2:	0000      	unimp
    28d4:	0000008f 	0x8f
    28d8:	01be      	0x1be
    28da:	0000      	unimp
    28dc:	0021      	0x21
    28de:	0000      	unimp
    28e0:	00000137 	lui	s0,0x0
    28e4:	007d      	0x7d
    28e6:	0000      	unimp
    28e8:	000002e7 	jalr	s3,zero
    28ec:	03ad      	0x3ad
    28ee:	0000      	unimp
    28f0:	022d      	0x22d
    28f2:	0000      	unimp
    28f4:	03a5      	0x3a5
    28f6:	0000      	unimp
    28f8:	000001df 	0x1df
    28fc:	0000031f 	0x31f
    2900:	022d      	0x22d
    2902:	0000      	unimp
    2904:	0229      	0x229
    2906:	0000      	unimp
    2908:	039d      	0x39d
    290a:	0000      	unimp
    290c:	000001af 	0x1af
    2910:	031c      	0x31c
    2912:	0000      	unimp
    2914:	0288      	0x288
    2916:	0000      	unimp
    2918:	0165      	0x165
    291a:	0000      	unimp
    291c:	03b8      	0x3b8
    291e:	0000      	unimp
    2920:	0000037b 	custom3	6,0,0,0
    2924:	0000011f 	0x11f
    2928:	029a      	0x29a
    292a:	0000      	unimp
    292c:	00000013 	nop
    2930:	0202      	0x202
    2932:	0000      	unimp
    2934:	0031      	0x31
    2936:	0000      	unimp
    2938:	022d      	0x22d
    293a:	0000      	unimp
    293c:	0056      	0x56
    293e:	0000      	unimp
    2940:	0366      	0x366
    2942:	0000      	unimp
    2944:	0000005f 	0x5f
    2948:	0355      	0x355
    294a:	0000      	unimp
    294c:	01b9      	0x1b9
    294e:	0000      	unimp
    2950:	01b8      	0x1b8
    2952:	0000      	unimp
    2954:	0000024b 	fnmsub.s	fs4,fs0,fs0,fs0,rne
    2958:	003d      	0x3d
    295a:	0000      	unimp
    295c:	0266      	0x266
    295e:	0000      	unimp
    2960:	02a6      	0x2a6
    2962:	0000      	unimp
    2964:	017e      	0x17e
    2966:	0000      	unimp
    2968:	018c      	0x18c
    296a:	0000      	unimp
    296c:	0118      	0x118
    296e:	0000      	unimp
    2970:	0009      	0x9
    2972:	0000      	unimp
    2974:	0328      	0x328
    2976:	0000      	unimp
    2978:	0011      	0x11
    297a:	0000      	unimp
    297c:	000003cb 	fnmsub.s	fs7,fs0,fs0,fs0,rne
    2980:	00aa      	0xaa
    2982:	0000      	unimp
    2984:	00000333 	add	s4,zero,zero
    2988:	00000123 	sb	zero,2(zero)

0000298c <verify_data>:
    298c:	0001      	0x1
    298e:	0000      	unimp
    2990:	0004      	0x4
    2992:	0000      	unimp
    2994:	0006      	0x6
    2996:	0000      	unimp
    2998:	0009      	0x9
    299a:	0000      	unimp
    299c:	000c      	0xc
    299e:	0000      	unimp
    29a0:	0011      	0x11
    29a2:	0000      	unimp
    29a4:	00000013 	nop
    29a8:	0021      	0x21
    29aa:	0000      	unimp
    29ac:	0029      	0x29
    29ae:	0000      	unimp
    29b0:	0031      	0x31
    29b2:	0000      	unimp
    29b4:	003d      	0x3d
    29b6:	0000      	unimp
    29b8:	003e      	0x3e
    29ba:	0000      	unimp
    29bc:	0040      	0x40
    29be:	0000      	unimp
    29c0:	0041      	0x41
    29c2:	0000      	unimp
    29c4:	004e      	0x4e
    29c6:	0000      	unimp
    29c8:	0000004f 	fnmadd.s	fs0,fs0,fs0,fs0,rne
    29cc:	0051      	0x51
    29ce:	0000      	unimp
    29d0:	0056      	0x56
    29d2:	0000      	unimp
    29d4:	0058      	0x58
    29d6:	0000      	unimp
    29d8:	005c      	0x5c
    29da:	0000      	unimp
    29dc:	0000005f 	0x5f
    29e0:	0064      	0x64
    29e2:	0000      	unimp
    29e4:	006e      	0x6e
    29e6:	0000      	unimp
    29e8:	0000006f 	j	29e8 <verify_data+0x5c>
    29ec:	0074      	0x74
    29ee:	0000      	unimp
    29f0:	00000077 	0x77
    29f4:	007d      	0x7d
    29f6:	0000      	unimp
    29f8:	0084      	0x84
    29fa:	0000      	unimp
    29fc:	008c      	0x8c
    29fe:	0000      	unimp
    2a00:	008d      	0x8d
    2a02:	0000      	unimp
    2a04:	0000008f 	0x8f
    2a08:	0096      	0x96
    2a0a:	0000      	unimp
    2a0c:	0099      	0x99
    2a0e:	0000      	unimp
    2a10:	00a9      	0xa9
    2a12:	0000      	unimp
    2a14:	00aa      	0xaa
    2a16:	0000      	unimp
    2a18:	00b5      	0xb5
    2a1a:	0000      	unimp
    2a1c:	000000bb 	addw	ra,zero,zero
    2a20:	000000c3 	fmadd.s	fs1,fs0,fs0,fs0,rne
    2a24:	000000c3 	fmadd.s	fs1,fs0,fs0,fs0,rne
    2a28:	000000cb 	fnmsub.s	fs1,fs0,fs0,fs0,rne
    2a2c:	00d0      	0xd0
    2a2e:	0000      	unimp
    2a30:	00d2      	0xd2
    2a32:	0000      	unimp
    2a34:	00d8      	0xd8
    2a36:	0000      	unimp
    2a38:	00de      	0xde
    2a3a:	0000      	unimp
    2a3c:	00de      	0xde
    2a3e:	0000      	unimp
    2a40:	00e0      	0xe0
    2a42:	0000      	unimp
    2a44:	00e4      	0xe4
    2a46:	0000      	unimp
    2a48:	00e5      	0xe5
    2a4a:	0000      	unimp
    2a4c:	00f1      	0xf1
    2a4e:	0000      	unimp
    2a50:	00f1      	0xf1
    2a52:	0000      	unimp
    2a54:	00f1      	0xf1
    2a56:	0000      	unimp
    2a58:	00fd      	0xfd
    2a5a:	0000      	unimp
    2a5c:	000000ff 	0xff
    2a60:	0102      	0x102
    2a62:	0000      	unimp
    2a64:	0108      	0x108
    2a66:	0000      	unimp
    2a68:	0000010b 	custom0	2,0,0,0
    2a6c:	0000010f 	0x10f
    2a70:	0110      	0x110
    2a72:	0000      	unimp
    2a74:	0116      	0x116
    2a76:	0000      	unimp
    2a78:	0118      	0x118
    2a7a:	0000      	unimp
    2a7c:	0118      	0x118
    2a7e:	0000      	unimp
    2a80:	011d      	0x11d
    2a82:	0000      	unimp
    2a84:	0000011f 	0x11f
    2a88:	0120      	0x120
    2a8a:	0000      	unimp
    2a8c:	0120      	0x120
    2a8e:	0000      	unimp
    2a90:	0121      	0x121
    2a92:	0000      	unimp
    2a94:	00000123 	sb	zero,2(zero)
    2a98:	0128      	0x128
    2a9a:	0000      	unimp
    2a9c:	0128      	0x128
    2a9e:	0000      	unimp
    2aa0:	00000137 	lui	s0,0x0
    2aa4:	0139      	0x139
    2aa6:	0000      	unimp
    2aa8:	013a      	0x13a
    2aaa:	0000      	unimp
    2aac:	013d      	0x13d
    2aae:	0000      	unimp
    2ab0:	0000013f 	0x13f
    2ab4:	0148      	0x148
    2ab6:	0000      	unimp
    2ab8:	014c      	0x14c
    2aba:	0000      	unimp
    2abc:	0000014f 	fnmadd.s	fs2,fs0,fs0,fs0,rne
    2ac0:	0151      	0x151
    2ac2:	0000      	unimp
    2ac4:	00000153 	fadd.s	fs2,fs0,fs0,rne
    2ac8:	015a      	0x15a
    2aca:	0000      	unimp
    2acc:	015d      	0x15d
    2ace:	0000      	unimp
    2ad0:	015e      	0x15e
    2ad2:	0000      	unimp
    2ad4:	015e      	0x15e
    2ad6:	0000      	unimp
    2ad8:	0000015f 	0x15f
    2adc:	0000015f 	0x15f
    2ae0:	0165      	0x165
    2ae2:	0000      	unimp
    2ae4:	0166      	0x166
    2ae6:	0000      	unimp
    2ae8:	0166      	0x166
    2aea:	0000      	unimp
    2aec:	016d      	0x16d
    2aee:	0000      	unimp
    2af0:	0000016f 	jal	s0,2af0 <verify_data+0x164>
    2af4:	0170      	0x170
    2af6:	0000      	unimp
    2af8:	00000177 	0x177
    2afc:	0178      	0x178
    2afe:	0000      	unimp
    2b00:	017e      	0x17e
    2b02:	0000      	unimp
    2b04:	0184      	0x184
    2b06:	0000      	unimp
    2b08:	0185      	0x185
    2b0a:	0000      	unimp
    2b0c:	0188      	0x188
    2b0e:	0000      	unimp
    2b10:	018c      	0x18c
    2b12:	0000      	unimp
    2b14:	00000193 	li	s1,0
    2b18:	00000193 	li	s1,0
    2b1c:	0000019f 	0x19f
    2b20:	01a0      	0x1a0
    2b22:	0000      	unimp
    2b24:	01aa      	0x1aa
    2b26:	0000      	unimp
    2b28:	01ae      	0x1ae
    2b2a:	0000      	unimp
    2b2c:	000001af 	0x1af
    2b30:	01b4      	0x1b4
    2b32:	0000      	unimp
    2b34:	01b8      	0x1b8
    2b36:	0000      	unimp
    2b38:	01b9      	0x1b9
    2b3a:	0000      	unimp
    2b3c:	01bc      	0x1bc
    2b3e:	0000      	unimp
    2b40:	01be      	0x1be
    2b42:	0000      	unimp
    2b44:	01c6      	0x1c6
    2b46:	0000      	unimp
    2b48:	000001c7 	fmsub.s	fs3,fs0,fs0,fs0,rne
    2b4c:	01cd      	0x1cd
    2b4e:	0000      	unimp
    2b50:	01da      	0x1da
    2b52:	0000      	unimp
    2b54:	01de      	0x1de
    2b56:	0000      	unimp
    2b58:	000001df 	0x1df
    2b5c:	01e9      	0x1e9
    2b5e:	0000      	unimp
    2b60:	01ee      	0x1ee
    2b62:	0000      	unimp
    2b64:	000001f3 	0x1f3
    2b68:	01f4      	0x1f4
    2b6a:	0000      	unimp
    2b6c:	01fd      	0x1fd
    2b6e:	0000      	unimp
    2b70:	000001ff 	0x1ff
    2b74:	0202      	0x202
    2b76:	0000      	unimp
    2b78:	0205      	0x205
    2b7a:	0000      	unimp
    2b7c:	0000020f 	0x20f
    2b80:	00000213 	li	s2,0
    2b84:	021a      	0x21a
    2b86:	0000      	unimp
    2b88:	0000021b 	sext.w	s2,zero
    2b8c:	021c      	0x21c
    2b8e:	0000      	unimp
    2b90:	0000021f 	0x21f
    2b94:	00000227 	0x227
    2b98:	0229      	0x229
    2b9a:	0000      	unimp
    2b9c:	022d      	0x22d
    2b9e:	0000      	unimp
    2ba0:	022d      	0x22d
    2ba2:	0000      	unimp
    2ba4:	022d      	0x22d
    2ba6:	0000      	unimp
    2ba8:	0000022f 	0x22f
    2bac:	0234      	0x234
    2bae:	0000      	unimp
    2bb0:	0234      	0x234
    2bb2:	0000      	unimp
    2bb4:	0236      	0x236
    2bb6:	0000      	unimp
    2bb8:	0239      	0x239
    2bba:	0000      	unimp
    2bbc:	0239      	0x239
    2bbe:	0000      	unimp
    2bc0:	023c      	0x23c
    2bc2:	0000      	unimp
    2bc4:	023c      	0x23c
    2bc6:	0000      	unimp
    2bc8:	0240      	0x240
    2bca:	0000      	unimp
    2bcc:	0248      	0x248
    2bce:	0000      	unimp
    2bd0:	0248      	0x248
    2bd2:	0000      	unimp
    2bd4:	0248      	0x248
    2bd6:	0000      	unimp
    2bd8:	0000024b 	fnmsub.s	fs4,fs0,fs0,fs0,rne
    2bdc:	0250      	0x250
    2bde:	0000      	unimp
    2be0:	0250      	0x250
    2be2:	0000      	unimp
    2be4:	0251      	0x251
    2be6:	0000      	unimp
    2be8:	0256      	0x256
    2bea:	0000      	unimp
    2bec:	025e      	0x25e
    2bee:	0000      	unimp
    2bf0:	025e      	0x25e
    2bf2:	0000      	unimp
    2bf4:	0266      	0x266
    2bf6:	0000      	unimp
    2bf8:	00000267 	jalr	s2,zero
    2bfc:	026c      	0x26c
    2bfe:	0000      	unimp
    2c00:	026d      	0x26d
    2c02:	0000      	unimp
    2c04:	0275      	0x275
    2c06:	0000      	unimp
    2c08:	00000283 	lb	s3,0(zero)
    2c0c:	0286      	0x286
    2c0e:	0000      	unimp
    2c10:	0286      	0x286
    2c12:	0000      	unimp
    2c14:	00000287 	0x287
    2c18:	0288      	0x288
    2c1a:	0000      	unimp
    2c1c:	0289      	0x289
    2c1e:	0000      	unimp
    2c20:	0289      	0x289
    2c22:	0000      	unimp
    2c24:	0291      	0x291
    2c26:	0000      	unimp
    2c28:	0291      	0x291
    2c2a:	0000      	unimp
    2c2c:	00000293 	li	s3,0
    2c30:	029a      	0x29a
    2c32:	0000      	unimp
    2c34:	029d      	0x29d
    2c36:	0000      	unimp
    2c38:	02a4      	0x2a4
    2c3a:	0000      	unimp
    2c3c:	02a6      	0x2a6
    2c3e:	0000      	unimp
    2c40:	02a6      	0x2a6
    2c42:	0000      	unimp
    2c44:	02ac      	0x2ac
    2c46:	0000      	unimp
    2c48:	02b5      	0x2b5
    2c4a:	0000      	unimp
    2c4c:	02b6      	0x2b6
    2c4e:	0000      	unimp
    2c50:	02b8      	0x2b8
    2c52:	0000      	unimp
    2c54:	02bc      	0x2bc
    2c56:	0000      	unimp
    2c58:	02bd      	0x2bd
    2c5a:	0000      	unimp
    2c5c:	000002bf 	0x2bf
    2c60:	02c0      	0x2c0
    2c62:	0000      	unimp
    2c64:	000002cb 	fnmsub.s	fs5,fs0,fs0,fs0,rne
    2c68:	02d0      	0x2d0
    2c6a:	0000      	unimp
    2c6c:	02d1      	0x2d1
    2c6e:	0000      	unimp
    2c70:	02e4      	0x2e4
    2c72:	0000      	unimp
    2c74:	000002e7 	jalr	s3,zero
    2c78:	02e9      	0x2e9
    2c7a:	0000      	unimp
    2c7c:	02ed      	0x2ed
    2c7e:	0000      	unimp
    2c80:	02ee      	0x2ee
    2c82:	0000      	unimp
    2c84:	02f6      	0x2f6
    2c86:	0000      	unimp
    2c88:	000002f7 	0x2f7
    2c8c:	02f9      	0x2f9
    2c8e:	0000      	unimp
    2c90:	0306      	0x306
    2c92:	0000      	unimp
    2c94:	00000307 	0x307
    2c98:	030a      	0x30a
    2c9a:	0000      	unimp
    2c9c:	0314      	0x314
    2c9e:	0000      	unimp
    2ca0:	031c      	0x31c
    2ca2:	0000      	unimp
    2ca4:	031c      	0x31c
    2ca6:	0000      	unimp
    2ca8:	0000031f 	0x31f
    2cac:	0320      	0x320
    2cae:	0000      	unimp
    2cb0:	0321      	0x321
    2cb2:	0000      	unimp
    2cb4:	0325      	0x325
    2cb6:	0000      	unimp
    2cb8:	0328      	0x328
    2cba:	0000      	unimp
    2cbc:	032c      	0x32c
    2cbe:	0000      	unimp
    2cc0:	032e      	0x32e
    2cc2:	0000      	unimp
    2cc4:	00000333 	add	s4,zero,zero
    2cc8:	033a      	0x33a
    2cca:	0000      	unimp
    2ccc:	0341      	0x341
    2cce:	0000      	unimp
    2cd0:	0000034f 	fnmadd.s	fs6,fs0,fs0,fs0,rne
    2cd4:	0355      	0x355
    2cd6:	0000      	unimp
    2cd8:	0355      	0x355
    2cda:	0000      	unimp
    2cdc:	0000035b 	custom2	6,0,0,0
    2ce0:	0360      	0x360
    2ce2:	0000      	unimp
    2ce4:	0366      	0x366
    2ce6:	0000      	unimp
    2ce8:	0000036b 	0x36b
    2cec:	00000373 	0x373
    2cf0:	0376      	0x376
    2cf2:	0000      	unimp
    2cf4:	037a      	0x37a
    2cf6:	0000      	unimp
    2cf8:	0000037b 	custom3	6,0,0,0
    2cfc:	0382      	0x382
    2cfe:	0000      	unimp
    2d00:	0386      	0x386
    2d02:	0000      	unimp
    2d04:	0389      	0x389
    2d06:	0000      	unimp
    2d08:	038c      	0x38c
    2d0a:	0000      	unimp
    2d0c:	0391      	0x391
    2d0e:	0000      	unimp
    2d10:	039d      	0x39d
    2d12:	0000      	unimp
    2d14:	000003a3 	sb	zero,7(zero)
    2d18:	03a5      	0x3a5
    2d1a:	0000      	unimp
    2d1c:	03a5      	0x3a5
    2d1e:	0000      	unimp
    2d20:	03a8      	0x3a8
    2d22:	0000      	unimp
    2d24:	03a9      	0x3a9
    2d26:	0000      	unimp
    2d28:	03aa      	0x3aa
    2d2a:	0000      	unimp
    2d2c:	03ad      	0x3ad
    2d2e:	0000      	unimp
    2d30:	03b0      	0x3b0
    2d32:	0000      	unimp
    2d34:	03b5      	0x3b5
    2d36:	0000      	unimp
    2d38:	03b8      	0x3b8
    2d3a:	0000      	unimp
    2d3c:	03b8      	0x3b8
    2d3e:	0000      	unimp
    2d40:	03c0      	0x3c0
    2d42:	0000      	unimp
    2d44:	03c1      	0x3c1
    2d46:	0000      	unimp
    2d48:	000003cb 	fnmsub.s	fs7,fs0,fs0,fs0,rne
    2d4c:	000003d3 	fadd.s	fs7,fs0,fs0,rne
    2d50:	000003d3 	fadd.s	fs7,fs0,fs0,rne
    2d54:	03d5      	0x3d5
    2d56:	0000      	unimp
    2d58:	03d9      	0x3d9
    2d5a:	0000      	unimp
    2d5c:	03d9      	0x3d9
    2d5e:	0000      	unimp
    2d60:	03dd      	0x3dd
    2d62:	0000      	unimp
    2d64:	03dd      	0x3dd
    2d66:	0000      	unimp
    2d68:	03e5      	0x3e5
    2d6a:	0000      	unimp
    2d6c:	03e5      	0x3e5
    2d6e:	0000      	unimp
    2d70:	03e6      	0x3e6
    2d72:	0000      	unimp

00002d74 <_heapend>:
    2d74:	0000      	unimp
    2d76:	0000      	unimp

00002d78 <environ>:
    2d78:	0000      	unimp
    2d7a:	0000      	unimp
