
qsort.riscv:     file format elf32-littleriscv


Disassembly of section .text:

00000100 <user_trap_entry>:
     100:	2000006f          	j	300 <trap_entry>
     104:	00000013          	nop
     108:	00000013          	nop
     10c:	00000013          	nop
     110:	00000013          	nop
     114:	00000013          	nop
     118:	00000013          	nop
     11c:	00000013          	nop
     120:	00000013          	nop
     124:	00000013          	nop
     128:	00000013          	nop
     12c:	00000013          	nop
     130:	00000013          	nop
     134:	00000013          	nop
     138:	00000013          	nop
     13c:	00000013          	nop

00000140 <supervisor_trap_entry>:
     140:	0000006f          	j	140 <supervisor_trap_entry>
     144:	00000013          	nop
     148:	00000013          	nop
     14c:	00000013          	nop
     150:	00000013          	nop
     154:	00000013          	nop
     158:	00000013          	nop
     15c:	00000013          	nop
     160:	00000013          	nop
     164:	00000013          	nop
     168:	00000013          	nop
     16c:	00000013          	nop
     170:	00000013          	nop
     174:	00000013          	nop
     178:	00000013          	nop
     17c:	00000013          	nop

00000180 <hypervisor_trap_entry>:
     180:	0000006f          	j	180 <hypervisor_trap_entry>
     184:	00000013          	nop
     188:	00000013          	nop
     18c:	00000013          	nop
     190:	00000013          	nop
     194:	00000013          	nop
     198:	00000013          	nop
     19c:	00000013          	nop
     1a0:	00000013          	nop
     1a4:	00000013          	nop
     1a8:	00000013          	nop
     1ac:	00000013          	nop
     1b0:	00000013          	nop
     1b4:	00000013          	nop
     1b8:	00000013          	nop
     1bc:	00000013          	nop

000001c0 <machine_trap_entry>:
     1c0:	1400006f          	j	300 <trap_entry>
     1c4:	00000013          	nop
     1c8:	00000013          	nop
     1cc:	00000013          	nop
     1d0:	00000013          	nop
     1d4:	00000013          	nop
     1d8:	00000013          	nop
     1dc:	00000013          	nop
     1e0:	00000013          	nop
     1e4:	00000013          	nop
     1e8:	00000013          	nop
     1ec:	00000013          	nop
     1f0:	00000013          	nop
     1f4:	00000013          	nop
     1f8:	00000013          	nop
     1fc:	00000013          	nop

00000200 <_start>:
     200:	00000093          	li	ra,0
     204:	00000113          	li	sp,0
     208:	00000193          	li	gp,0
     20c:	00000213          	li	tp,0
     210:	00000293          	li	t0,0
     214:	00000313          	li	t1,0
     218:	00000393          	li	t2,0
     21c:	00000413          	li	s0,0
     220:	00000493          	li	s1,0
     224:	00000513          	li	a0,0
     228:	00000593          	li	a1,0
     22c:	00000613          	li	a2,0
     230:	00000693          	li	a3,0
     234:	00000713          	li	a4,0
     238:	00000793          	li	a5,0
     23c:	00000813          	li	a6,0
     240:	00000893          	li	a7,0
     244:	00000913          	li	s2,0
     248:	00000993          	li	s3,0
     24c:	00000a13          	li	s4,0
     250:	00000a93          	li	s5,0
     254:	00000b13          	li	s6,0
     258:	00000b93          	li	s7,0
     25c:	00000c13          	li	s8,0
     260:	00000c93          	li	s9,0
     264:	00000d13          	li	s10,0
     268:	00000d93          	li	s11,0
     26c:	00000e13          	li	t3,0
     270:	00000e93          	li	t4,0
     274:	00000f13          	li	t5,0
     278:	00000f93          	li	t6,0
     27c:	03000293          	li	t0,48
     280:	3002b073          	csrc	mstatus,t0
     284:	00800293          	li	t0,8
     288:	3002a073          	csrs	mstatus,t0
     28c:	000032b7          	lui	t0,0x3
     290:	3002a073          	csrs	mstatus,t0
     294:	0000c2b7          	lui	t0,0xc
     298:	3002a073          	csrs	mstatus,t0
     29c:	300022f3          	csrr	t0,mstatus
     2a0:	0000c337          	lui	t1,0xc
     2a4:	0062f333          	and	t1,t0,t1
     2a8:	00006397          	auipc	t2,0x6
     2ac:	2a63ac23          	sw	t1,696(t2) # 6560 <have_vec>
     2b0:	00003337          	lui	t1,0x3
     2b4:	0062f333          	and	t1,t0,t1
     2b8:	00030263          	beqz	t1,2bc <_start+0xbc>
     2bc:	00007197          	auipc	gp,0x7
     2c0:	aa418193          	addi	gp,gp,-1372 # 6d60 <_gp>
     2c4:	00006217          	auipc	tp,0x6
     2c8:	37b20213          	addi	tp,tp,891 # 663f <_end+0x3f>
     2cc:	fc027213          	andi	tp,tp,-64
     2d0:	f1002573          	csrr	a0,mhartid
     2d4:	00100593          	li	a1,1
     2d8:	00b57063          	bleu	a1,a0,2d8 <_start+0xd8>
     2dc:	01151613          	slli	a2,a0,0x11
     2e0:	00c20233          	add	tp,tp,a2
     2e4:	00150113          	addi	sp,a0,1
     2e8:	01111113          	slli	sp,sp,0x11
     2ec:	00410133          	add	sp,sp,tp
     2f0:	00001297          	auipc	t0,0x1
     2f4:	d5028293          	addi	t0,t0,-688 # 1040 <_init>
     2f8:	34129073          	csrw	mepc,t0
     2fc:	10000073          	eret

00000300 <trap_entry>:
     300:	ef010113          	addi	sp,sp,-272
     304:	00112223          	sw	ra,4(sp)
     308:	00212423          	sw	sp,8(sp)
     30c:	00312623          	sw	gp,12(sp)
     310:	00412823          	sw	tp,16(sp)
     314:	00512a23          	sw	t0,20(sp)
     318:	00612c23          	sw	t1,24(sp)
     31c:	00712e23          	sw	t2,28(sp)
     320:	02812023          	sw	s0,32(sp)
     324:	02912223          	sw	s1,36(sp)
     328:	02a12423          	sw	a0,40(sp)
     32c:	02b12623          	sw	a1,44(sp)
     330:	02c12823          	sw	a2,48(sp)
     334:	02d12a23          	sw	a3,52(sp)
     338:	02e12c23          	sw	a4,56(sp)
     33c:	02f12e23          	sw	a5,60(sp)
     340:	05012023          	sw	a6,64(sp)
     344:	05112223          	sw	a7,68(sp)
     348:	05212423          	sw	s2,72(sp)
     34c:	05312623          	sw	s3,76(sp)
     350:	05412823          	sw	s4,80(sp)
     354:	05512a23          	sw	s5,84(sp)
     358:	05612c23          	sw	s6,88(sp)
     35c:	05712e23          	sw	s7,92(sp)
     360:	07812023          	sw	s8,96(sp)
     364:	07912223          	sw	s9,100(sp)
     368:	07a12423          	sw	s10,104(sp)
     36c:	07b12623          	sw	s11,108(sp)
     370:	07c12823          	sw	t3,112(sp)
     374:	07d12a23          	sw	t4,116(sp)
     378:	07e12c23          	sw	t5,120(sp)
     37c:	07f12e23          	sw	t6,124(sp)
     380:	34202573          	csrr	a0,mcause
     384:	341025f3          	csrr	a1,mepc
     388:	00010613          	mv	a2,sp
     38c:	7c8000ef          	jal	b54 <handle_trap>
     390:	34151073          	csrw	mepc,a0
     394:	00412083          	lw	ra,4(sp)
     398:	00812103          	lw	sp,8(sp)
     39c:	00c12183          	lw	gp,12(sp)
     3a0:	01012203          	lw	tp,16(sp)
     3a4:	01412283          	lw	t0,20(sp)
     3a8:	01812303          	lw	t1,24(sp)
     3ac:	01c12383          	lw	t2,28(sp)
     3b0:	02012403          	lw	s0,32(sp)
     3b4:	02412483          	lw	s1,36(sp)
     3b8:	02812503          	lw	a0,40(sp)
     3bc:	02c12583          	lw	a1,44(sp)
     3c0:	03012603          	lw	a2,48(sp)
     3c4:	03412683          	lw	a3,52(sp)
     3c8:	03812703          	lw	a4,56(sp)
     3cc:	03c12783          	lw	a5,60(sp)
     3d0:	04012803          	lw	a6,64(sp)
     3d4:	04412883          	lw	a7,68(sp)
     3d8:	04812903          	lw	s2,72(sp)
     3dc:	04c12983          	lw	s3,76(sp)
     3e0:	05012a03          	lw	s4,80(sp)
     3e4:	05412a83          	lw	s5,84(sp)
     3e8:	05812b03          	lw	s6,88(sp)
     3ec:	05c12b83          	lw	s7,92(sp)
     3f0:	06012c03          	lw	s8,96(sp)
     3f4:	06412c83          	lw	s9,100(sp)
     3f8:	06812d03          	lw	s10,104(sp)
     3fc:	06c12d83          	lw	s11,108(sp)
     400:	07012e03          	lw	t3,112(sp)
     404:	07412e83          	lw	t4,116(sp)
     408:	07812f03          	lw	t5,120(sp)
     40c:	07c12f83          	lw	t6,124(sp)
     410:	11010113          	addi	sp,sp,272
     414:	10000073          	eret

00000418 <verify.constprop.2>:
     418:	000027b7          	lui	a5,0x2
     41c:	56078793          	addi	a5,a5,1376 # 2560 <input_data>
     420:	00000713          	li	a4,0
     424:	0007a603          	lw	a2,0(a5)
     428:	00052683          	lw	a3,0(a0)
     42c:	0047a803          	lw	a6,4(a5)
     430:	00452583          	lw	a1,4(a0)
     434:	02d61263          	bne	a2,a3,458 <verify.constprop.2+0x40>
     438:	00878793          	addi	a5,a5,8
     43c:	02b81263          	bne	a6,a1,460 <verify.constprop.2+0x48>
     440:	00270713          	addi	a4,a4,2
     444:	80070693          	addi	a3,a4,-2048
     448:	00850513          	addi	a0,a0,8
     44c:	fc069ce3          	bnez	a3,424 <verify.constprop.2+0xc>
     450:	00000513          	li	a0,0
     454:	00008067          	ret
     458:	00170513          	addi	a0,a4,1
     45c:	00008067          	ret
     460:	00270513          	addi	a0,a4,2
     464:	00008067          	ret

00000468 <sort>:
     468:	f3010113          	addi	sp,sp,-208
     46c:	00251513          	slli	a0,a0,0x2
     470:	00810e93          	addi	t4,sp,8
     474:	40000e37          	lui	t3,0x40000
     478:	00a58533          	add	a0,a1,a0
     47c:	00458893          	addi	a7,a1,4
     480:	000e8313          	mv	t1,t4
     484:	02700393          	li	t2,39
     488:	fffe0e13          	addi	t3,t3,-1 # 3fffffff <_gp+0x3fff929f>
     48c:	411507b3          	sub	a5,a0,a7
     490:	04f3cc63          	blt	t2,a5,4e8 <sort+0x80>
     494:	ffc7f513          	andi	a0,a5,-4
     498:	00a88533          	add	a0,a7,a0
     49c:	ffc88613          	addi	a2,a7,-4
     4a0:	02a8f863          	bleu	a0,a7,4d0 <sort+0x68>
     4a4:	0008a683          	lw	a3,0(a7)
     4a8:	00088793          	mv	a5,a7
     4ac:	0100006f          	j	4bc <sort+0x54>
     4b0:	00e7a023          	sw	a4,0(a5)
     4b4:	ffc78793          	addi	a5,a5,-4
     4b8:	00f60663          	beq	a2,a5,4c4 <sort+0x5c>
     4bc:	ffc7a703          	lw	a4,-4(a5)
     4c0:	fee6c8e3          	blt	a3,a4,4b0 <sort+0x48>
     4c4:	00488893          	addi	a7,a7,4
     4c8:	00d7a023          	sw	a3,0(a5)
     4cc:	fca8ece3          	bltu	a7,a0,4a4 <sort+0x3c>
     4d0:	13d30663          	beq	t1,t4,5fc <sort+0x194>
     4d4:	00032503          	lw	a0,0(t1) # 3000 <input_data+0xaa0>
     4d8:	ffc32883          	lw	a7,-4(t1)
     4dc:	ff830313          	addi	t1,t1,-8
     4e0:	411507b3          	sub	a5,a0,a7
     4e4:	faf3d8e3          	ble	a5,t2,494 <sort+0x2c>
     4e8:	40b88733          	sub	a4,a7,a1
     4ec:	40b507b3          	sub	a5,a0,a1
     4f0:	40275693          	srai	a3,a4,0x2
     4f4:	4027d793          	srai	a5,a5,0x2
     4f8:	00f68733          	add	a4,a3,a5
     4fc:	01f75793          	srli	a5,a4,0x1f
     500:	00e787b3          	add	a5,a5,a4
     504:	4017d793          	srai	a5,a5,0x1
     508:	01c787b3          	add	a5,a5,t3
     50c:	00279793          	slli	a5,a5,0x2
     510:	00f587b3          	add	a5,a1,a5
     514:	0007a703          	lw	a4,0(a5)
     518:	0008a683          	lw	a3,0(a7)
     51c:	00070613          	mv	a2,a4
     520:	00d7a023          	sw	a3,0(a5)
     524:	00e8a023          	sw	a4,0(a7)
     528:	ffc52783          	lw	a5,-4(a0)
     52c:	ffc8a703          	lw	a4,-4(a7)
     530:	00e7da63          	ble	a4,a5,544 <sort+0xdc>
     534:	fef8ae23          	sw	a5,-4(a7)
     538:	fee52e23          	sw	a4,-4(a0)
     53c:	0008a603          	lw	a2,0(a7)
     540:	00070793          	mv	a5,a4
     544:	00c7d863          	ble	a2,a5,554 <sort+0xec>
     548:	00f8a023          	sw	a5,0(a7)
     54c:	fec52e23          	sw	a2,-4(a0)
     550:	0008a603          	lw	a2,0(a7)
     554:	ffc8a783          	lw	a5,-4(a7)
     558:	00f65863          	ble	a5,a2,568 <sort+0x100>
     55c:	fec8ae23          	sw	a2,-4(a7)
     560:	00f8a023          	sw	a5,0(a7)
     564:	00078613          	mv	a2,a5
     568:	00488813          	addi	a6,a7,4
     56c:	00050713          	mv	a4,a0
     570:	00480813          	addi	a6,a6,4
     574:	ffc82283          	lw	t0,-4(a6)
     578:	fec2cce3          	blt	t0,a2,570 <sort+0x108>
     57c:	ffc70793          	addi	a5,a4,-4
     580:	ffc7a683          	lw	a3,-4(a5)
     584:	00d65a63          	ble	a3,a2,598 <sort+0x130>
     588:	00078713          	mv	a4,a5
     58c:	ffc70793          	addi	a5,a4,-4
     590:	ffc7a683          	lw	a3,-4(a5)
     594:	fed64ae3          	blt	a2,a3,588 <sort+0x120>
     598:	0107ea63          	bltu	a5,a6,5ac <sort+0x144>
     59c:	fed82e23          	sw	a3,-4(a6)
     5a0:	fe572c23          	sw	t0,-8(a4)
     5a4:	00078713          	mv	a4,a5
     5a8:	fc9ff06f          	j	570 <sort+0x108>
     5ac:	410502b3          	sub	t0,a0,a6
     5b0:	4022d293          	srai	t0,t0,0x2
     5b4:	411787b3          	sub	a5,a5,a7
     5b8:	00128293          	addi	t0,t0,1
     5bc:	4027d793          	srai	a5,a5,0x2
     5c0:	00d8a023          	sw	a3,0(a7)
     5c4:	00830693          	addi	a3,t1,8
     5c8:	fec72c23          	sw	a2,-8(a4)
     5cc:	00f2cc63          	blt	t0,a5,5e4 <sort+0x17c>
     5d0:	00a32423          	sw	a0,8(t1)
     5d4:	01032223          	sw	a6,4(t1)
     5d8:	ff870513          	addi	a0,a4,-8
     5dc:	00068313          	mv	t1,a3
     5e0:	eadff06f          	j	48c <sort+0x24>
     5e4:	ff870713          	addi	a4,a4,-8
     5e8:	01132223          	sw	a7,4(t1)
     5ec:	00e32423          	sw	a4,8(t1)
     5f0:	00080893          	mv	a7,a6
     5f4:	00068313          	mv	t1,a3
     5f8:	e95ff06f          	j	48c <sort+0x24>
     5fc:	0d010113          	addi	sp,sp,208
     600:	00008067          	ret

00000604 <putchar>:
     604:	04022803          	lw	a6,64(tp) # 40 <buflen.2779>
     608:	00020793          	mv	a5,tp
     60c:	010787b3          	add	a5,a5,a6
     610:	00180613          	addi	a2,a6,1
     614:	00a78023          	sb	a0,0(a5)
     618:	00a00793          	li	a5,10
     61c:	04c22023          	sw	a2,64(tp) # 40 <buflen.2779>
     620:	00f50a63          	beq	a0,a5,634 <putchar+0x30>
     624:	04000793          	li	a5,64
     628:	00f60663          	beq	a2,a5,634 <putchar+0x30>
     62c:	00000513          	li	a0,0
     630:	00008067          	ret
     634:	04000893          	li	a7,64
     638:	00100513          	li	a0,1
     63c:	00020593          	mv	a1,tp
     640:	00000073          	ecall
     644:	04022023          	sw	zero,64(tp) # 40 <buflen.2779>
     648:	00000513          	li	a0,0
     64c:	00008067          	ret

00000650 <sprintf_putch.2893>:
     650:	0005a783          	lw	a5,0(a1)
     654:	00a78023          	sb	a0,0(a5)
     658:	0005a783          	lw	a5,0(a1)
     65c:	00178793          	addi	a5,a5,1
     660:	00f5a023          	sw	a5,0(a1)
     664:	00008067          	ret

00000668 <vprintfmt>:
     668:	eb010113          	addi	sp,sp,-336
     66c:	14912223          	sw	s1,324(sp)
     670:	15212023          	sw	s2,320(sp)
     674:	13312e23          	sw	s3,316(sp)
     678:	13512a23          	sw	s5,308(sp)
     67c:	14112623          	sw	ra,332(sp)
     680:	14812423          	sw	s0,328(sp)
     684:	13412c23          	sw	s4,312(sp)
     688:	13612823          	sw	s6,304(sp)
     68c:	13712623          	sw	s7,300(sp)
     690:	13812423          	sw	s8,296(sp)
     694:	13912223          	sw	s9,292(sp)
     698:	13a12023          	sw	s10,288(sp)
     69c:	11b12e23          	sw	s11,284(sp)
     6a0:	00050993          	mv	s3,a0
     6a4:	00058913          	mv	s2,a1
     6a8:	00060493          	mv	s1,a2
     6ac:	00d12623          	sw	a3,12(sp)
     6b0:	02500a93          	li	s5,37
     6b4:	0140006f          	j	6c8 <vprintfmt+0x60>
     6b8:	06050463          	beqz	a0,720 <vprintfmt+0xb8>
     6bc:	00148493          	addi	s1,s1,1
     6c0:	00090593          	mv	a1,s2
     6c4:	000980e7          	jalr	s3
     6c8:	0004c503          	lbu	a0,0(s1)
     6cc:	ff5516e3          	bne	a0,s5,6b8 <vprintfmt+0x50>
     6d0:	0014c503          	lbu	a0,1(s1)
     6d4:	00148a13          	addi	s4,s1,1
     6d8:	fff00413          	li	s0,-1
     6dc:	02000793          	li	a5,32
     6e0:	000a0713          	mv	a4,s4
     6e4:	00f12423          	sw	a5,8(sp)
     6e8:	00040b13          	mv	s6,s0
     6ec:	00000613          	li	a2,0
     6f0:	00900593          	li	a1,9
     6f4:	fdd50793          	addi	a5,a0,-35
     6f8:	0ff7f793          	andi	a5,a5,255
     6fc:	05500693          	li	a3,85
     700:	00170493          	addi	s1,a4,1
     704:	38f6e663          	bltu	a3,a5,a90 <vprintfmt+0x428>
     708:	000026b7          	lui	a3,0x2
     70c:	00279793          	slli	a5,a5,0x2
     710:	18468693          	addi	a3,a3,388 # 2184 <main+0xac>
     714:	00d787b3          	add	a5,a5,a3
     718:	0007a783          	lw	a5,0(a5)
     71c:	00078067          	jr	a5
     720:	14c12083          	lw	ra,332(sp)
     724:	14812403          	lw	s0,328(sp)
     728:	14412483          	lw	s1,324(sp)
     72c:	14012903          	lw	s2,320(sp)
     730:	13c12983          	lw	s3,316(sp)
     734:	13812a03          	lw	s4,312(sp)
     738:	13412a83          	lw	s5,308(sp)
     73c:	13012b03          	lw	s6,304(sp)
     740:	12c12b83          	lw	s7,300(sp)
     744:	12812c03          	lw	s8,296(sp)
     748:	12412c83          	lw	s9,292(sp)
     74c:	12012d03          	lw	s10,288(sp)
     750:	11c12d83          	lw	s11,284(sp)
     754:	15010113          	addi	sp,sp,336
     758:	00008067          	ret
     75c:	000b5463          	bgez	s6,764 <vprintfmt+0xfc>
     760:	00000b13          	li	s6,0
     764:	00174503          	lbu	a0,1(a4)
     768:	00048713          	mv	a4,s1
     76c:	f89ff06f          	j	6f4 <vprintfmt+0x8c>
     770:	00800413          	li	s0,8
     774:	00000a13          	li	s4,0
     778:	00100793          	li	a5,1
     77c:	3ac7d663          	ble	a2,a5,b28 <vprintfmt+0x4c0>
     780:	00c12783          	lw	a5,12(sp)
     784:	00778c93          	addi	s9,a5,7
     788:	ff8cf793          	andi	a5,s9,-8
     78c:	0007ac83          	lw	s9,0(a5)
     790:	0047ab83          	lw	s7,4(a5)
     794:	00878713          	addi	a4,a5,8
     798:	00e12623          	sw	a4,12(sp)
     79c:	00040613          	mv	a2,s0
     7a0:	00000693          	li	a3,0
     7a4:	000c8513          	mv	a0,s9
     7a8:	000b8593          	mv	a1,s7
     7ac:	28c010ef          	jal	1a38 <__umoddi3>
     7b0:	00a12823          	sw	a0,16(sp)
     7b4:	357a0c63          	beq	s4,s7,b0c <vprintfmt+0x4a4>
     7b8:	01410d93          	addi	s11,sp,20
     7bc:	00100d13          	li	s10,1
     7c0:	00040613          	mv	a2,s0
     7c4:	00000693          	li	a3,0
     7c8:	000c8513          	mv	a0,s9
     7cc:	000b8593          	mv	a1,s7
     7d0:	445000ef          	jal	1414 <__udivdi3>
     7d4:	00040613          	mv	a2,s0
     7d8:	00000693          	li	a3,0
     7dc:	00050c93          	mv	s9,a0
     7e0:	00058b93          	mv	s7,a1
     7e4:	254010ef          	jal	1a38 <__umoddi3>
     7e8:	00ada023          	sw	a0,0(s11)
     7ec:	001d0c13          	addi	s8,s10,1
     7f0:	004d8d93          	addi	s11,s11,4
     7f4:	017a0663          	beq	s4,s7,800 <vprintfmt+0x198>
     7f8:	000c0d13          	mv	s10,s8
     7fc:	fc5ff06f          	j	7c0 <vprintfmt+0x158>
     800:	fe8cfce3          	bleu	s0,s9,7f8 <vprintfmt+0x190>
     804:	fffb0413          	addi	s0,s6,-1
     808:	000d0a13          	mv	s4,s10
     80c:	036c5263          	ble	s6,s8,830 <vprintfmt+0x1c8>
     810:	00812503          	lw	a0,8(sp)
     814:	00090593          	mv	a1,s2
     818:	fff40413          	addi	s0,s0,-1
     81c:	000980e7          	jalr	s3
     820:	00140793          	addi	a5,s0,1
     824:	fefc46e3          	blt	s8,a5,810 <vprintfmt+0x1a8>
     828:	000a0d13          	mv	s10,s4
     82c:	e9805ee3          	blez	s8,6c8 <vprintfmt+0x60>
     830:	002d1793          	slli	a5,s10,0x2
     834:	11010693          	addi	a3,sp,272
     838:	00f687b3          	add	a5,a3,a5
     83c:	f007a503          	lw	a0,-256(a5)
     840:	40000737          	lui	a4,0x40000
     844:	fff70713          	addi	a4,a4,-1 # 3fffffff <_gp+0x3fff929f>
     848:	00ed0a33          	add	s4,s10,a4
     84c:	002a1a13          	slli	s4,s4,0x2
     850:	01010793          	addi	a5,sp,16
     854:	000d0413          	mv	s0,s10
     858:	01478a33          	add	s4,a5,s4
     85c:	0100006f          	j	86c <vprintfmt+0x204>
     860:	000a2503          	lw	a0,0(s4)
     864:	fff40413          	addi	s0,s0,-1
     868:	ffca0a13          	addi	s4,s4,-4
     86c:	00a53793          	sltiu	a5,a0,10
     870:	40f007b3          	neg	a5,a5
     874:	fd97f793          	andi	a5,a5,-39
     878:	05778793          	addi	a5,a5,87
     87c:	00090593          	mv	a1,s2
     880:	00a78533          	add	a0,a5,a0
     884:	000980e7          	jalr	s3
     888:	fc804ce3          	bgtz	s0,860 <vprintfmt+0x1f8>
     88c:	e3dff06f          	j	6c8 <vprintfmt+0x60>
     890:	00c12783          	lw	a5,12(sp)
     894:	00174503          	lbu	a0,1(a4)
     898:	00048713          	mv	a4,s1
     89c:	0007a403          	lw	s0,0(a5)
     8a0:	00478793          	addi	a5,a5,4
     8a4:	00f12623          	sw	a5,12(sp)
     8a8:	e40b56e3          	bgez	s6,6f4 <vprintfmt+0x8c>
     8ac:	00040b13          	mv	s6,s0
     8b0:	fff00413          	li	s0,-1
     8b4:	e41ff06f          	j	6f4 <vprintfmt+0x8c>
     8b8:	00174503          	lbu	a0,1(a4)
     8bc:	03000713          	li	a4,48
     8c0:	00e12423          	sw	a4,8(sp)
     8c4:	00048713          	mv	a4,s1
     8c8:	e2dff06f          	j	6f4 <vprintfmt+0x8c>
     8cc:	00174503          	lbu	a0,1(a4)
     8d0:	02d00713          	li	a4,45
     8d4:	00e12423          	sw	a4,8(sp)
     8d8:	00048713          	mv	a4,s1
     8dc:	e19ff06f          	j	6f4 <vprintfmt+0x8c>
     8e0:	00174683          	lbu	a3,1(a4)
     8e4:	fd050413          	addi	s0,a0,-48
     8e8:	00048713          	mv	a4,s1
     8ec:	fd068793          	addi	a5,a3,-48
     8f0:	20f5e863          	bltu	a1,a5,b00 <vprintfmt+0x498>
     8f4:	00141793          	slli	a5,s0,0x1
     8f8:	00341413          	slli	s0,s0,0x3
     8fc:	00878433          	add	s0,a5,s0
     900:	00170713          	addi	a4,a4,1
     904:	00d40433          	add	s0,s0,a3
     908:	00074683          	lbu	a3,0(a4)
     90c:	fd040413          	addi	s0,s0,-48
     910:	fd068793          	addi	a5,a3,-48
     914:	fef5f0e3          	bleu	a5,a1,8f4 <vprintfmt+0x28c>
     918:	00068513          	mv	a0,a3
     91c:	f8dff06f          	j	8a8 <vprintfmt+0x240>
     920:	00c12703          	lw	a4,12(sp)
     924:	00090593          	mv	a1,s2
     928:	00072503          	lw	a0,0(a4)
     92c:	00470c93          	addi	s9,a4,4
     930:	000980e7          	jalr	s3
     934:	01912623          	sw	s9,12(sp)
     938:	d91ff06f          	j	6c8 <vprintfmt+0x60>
     93c:	00100793          	li	a5,1
     940:	18c7d663          	ble	a2,a5,acc <vprintfmt+0x464>
     944:	00c12703          	lw	a4,12(sp)
     948:	00770c93          	addi	s9,a4,7
     94c:	ff8cf793          	andi	a5,s9,-8
     950:	00878713          	addi	a4,a5,8
     954:	0007a803          	lw	a6,0(a5)
     958:	0047a783          	lw	a5,4(a5)
     95c:	00e12623          	sw	a4,12(sp)
     960:	00078b93          	mv	s7,a5
     964:	00080c93          	mv	s9,a6
     968:	1207de63          	bgez	a5,aa4 <vprintfmt+0x43c>
     96c:	00090593          	mv	a1,s2
     970:	02d00513          	li	a0,45
     974:	000980e7          	jalr	s3
     978:	41900833          	neg	a6,s9
     97c:	01003733          	snez	a4,a6
     980:	417007b3          	neg	a5,s7
     984:	00080c93          	mv	s9,a6
     988:	40e78bb3          	sub	s7,a5,a4
     98c:	00a00413          	li	s0,10
     990:	00000a13          	li	s4,0
     994:	e09ff06f          	j	79c <vprintfmt+0x134>
     998:	00174503          	lbu	a0,1(a4)
     99c:	00160613          	addi	a2,a2,1
     9a0:	00048713          	mv	a4,s1
     9a4:	d51ff06f          	j	6f4 <vprintfmt+0x8c>
     9a8:	00c12783          	lw	a5,12(sp)
     9ac:	0007ac03          	lw	s8,0(a5)
     9b0:	00478c93          	addi	s9,a5,4
     9b4:	100c0663          	beqz	s8,ac0 <vprintfmt+0x458>
     9b8:	03605c63          	blez	s6,9f0 <vprintfmt+0x388>
     9bc:	00812783          	lw	a5,8(sp)
     9c0:	02d00713          	li	a4,45
     9c4:	0ee78663          	beq	a5,a4,ab0 <vprintfmt+0x448>
     9c8:	00040593          	mv	a1,s0
     9cc:	000c0513          	mv	a0,s8
     9d0:	201000ef          	jal	13d0 <strnlen>
     9d4:	40ab0b33          	sub	s6,s6,a0
     9d8:	01605c63          	blez	s6,9f0 <vprintfmt+0x388>
     9dc:	00812503          	lw	a0,8(sp)
     9e0:	fffb0b13          	addi	s6,s6,-1
     9e4:	00090593          	mv	a1,s2
     9e8:	000980e7          	jalr	s3
     9ec:	fe0b18e3          	bnez	s6,9dc <vprintfmt+0x374>
     9f0:	000c4503          	lbu	a0,0(s8)
     9f4:	04050263          	beqz	a0,a38 <vprintfmt+0x3d0>
     9f8:	fff00a13          	li	s4,-1
     9fc:	00044663          	bltz	s0,a08 <vprintfmt+0x3a0>
     a00:	fff40413          	addi	s0,s0,-1
     a04:	01440e63          	beq	s0,s4,a20 <vprintfmt+0x3b8>
     a08:	00090593          	mv	a1,s2
     a0c:	001c0c13          	addi	s8,s8,1
     a10:	000980e7          	jalr	s3
     a14:	000c4503          	lbu	a0,0(s8)
     a18:	fffb0b13          	addi	s6,s6,-1
     a1c:	fe0510e3          	bnez	a0,9fc <vprintfmt+0x394>
     a20:	01605c63          	blez	s6,a38 <vprintfmt+0x3d0>
     a24:	fffb0b13          	addi	s6,s6,-1
     a28:	00090593          	mv	a1,s2
     a2c:	02000513          	li	a0,32
     a30:	000980e7          	jalr	s3
     a34:	fe0b18e3          	bnez	s6,a24 <vprintfmt+0x3bc>
     a38:	01912623          	sw	s9,12(sp)
     a3c:	c8dff06f          	j	6c8 <vprintfmt+0x60>
     a40:	00a00413          	li	s0,10
     a44:	00000a13          	li	s4,0
     a48:	d31ff06f          	j	778 <vprintfmt+0x110>
     a4c:	01000413          	li	s0,16
     a50:	00000a13          	li	s4,0
     a54:	d25ff06f          	j	778 <vprintfmt+0x110>
     a58:	03000513          	li	a0,48
     a5c:	00090593          	mv	a1,s2
     a60:	000980e7          	jalr	s3
     a64:	00090593          	mv	a1,s2
     a68:	07800513          	li	a0,120
     a6c:	000980e7          	jalr	s3
     a70:	01000413          	li	s0,16
     a74:	00000a13          	li	s4,0
     a78:	00c12783          	lw	a5,12(sp)
     a7c:	00000b93          	li	s7,0
     a80:	0007ac83          	lw	s9,0(a5)
     a84:	00478793          	addi	a5,a5,4
     a88:	00f12623          	sw	a5,12(sp)
     a8c:	d11ff06f          	j	79c <vprintfmt+0x134>
     a90:	00090593          	mv	a1,s2
     a94:	02500513          	li	a0,37
     a98:	000980e7          	jalr	s3
     a9c:	000a0493          	mv	s1,s4
     aa0:	c29ff06f          	j	6c8 <vprintfmt+0x60>
     aa4:	00a00413          	li	s0,10
     aa8:	00000a13          	li	s4,0
     aac:	cf1ff06f          	j	79c <vprintfmt+0x134>
     ab0:	000c4503          	lbu	a0,0(s8)
     ab4:	f60508e3          	beqz	a0,a24 <vprintfmt+0x3bc>
     ab8:	fff00a13          	li	s4,-1
     abc:	f41ff06f          	j	9fc <vprintfmt+0x394>
     ac0:	000026b7          	lui	a3,0x2
     ac4:	3dc68c13          	addi	s8,a3,988 # 23dc <__clz_tab+0x100>
     ac8:	ef1ff06f          	j	9b8 <vprintfmt+0x350>
     acc:	00060e63          	beqz	a2,ae8 <vprintfmt+0x480>
     ad0:	00c12783          	lw	a5,12(sp)
     ad4:	0007a803          	lw	a6,0(a5)
     ad8:	00478793          	addi	a5,a5,4
     adc:	00f12623          	sw	a5,12(sp)
     ae0:	41f85793          	srai	a5,a6,0x1f
     ae4:	e7dff06f          	j	960 <vprintfmt+0x2f8>
     ae8:	00c12703          	lw	a4,12(sp)
     aec:	00072803          	lw	a6,0(a4)
     af0:	00470713          	addi	a4,a4,4
     af4:	00e12623          	sw	a4,12(sp)
     af8:	41f85793          	srai	a5,a6,0x1f
     afc:	e65ff06f          	j	960 <vprintfmt+0x2f8>
     b00:	00068513          	mv	a0,a3
     b04:	00048713          	mv	a4,s1
     b08:	da1ff06f          	j	8a8 <vprintfmt+0x240>
     b0c:	ca8cf6e3          	bleu	s0,s9,7b8 <vprintfmt+0x150>
     b10:	00100c13          	li	s8,1
     b14:	fffb0413          	addi	s0,s6,-1
     b18:	00000a13          	li	s4,0
     b1c:	00000d13          	li	s10,0
     b20:	cf6c48e3          	blt	s8,s6,810 <vprintfmt+0x1a8>
     b24:	d1dff06f          	j	840 <vprintfmt+0x1d8>
     b28:	f40618e3          	bnez	a2,a78 <vprintfmt+0x410>
     b2c:	00c12703          	lw	a4,12(sp)
     b30:	00000b93          	li	s7,0
     b34:	00072c83          	lw	s9,0(a4)
     b38:	00470713          	addi	a4,a4,4
     b3c:	00e12623          	sw	a4,12(sp)
     b40:	c5dff06f          	j	79c <vprintfmt+0x134>

00000b44 <tohost_exit>:
     b44:	00151513          	slli	a0,a0,0x1
     b48:	00156513          	ori	a0,a0,1
     b4c:	78051073          	csrw	mtohost,a0
     b50:	0000006f          	j	b50 <tohost_exit+0xc>

00000b54 <handle_trap>:
     b54:	ff010113          	addi	sp,sp,-16
     b58:	00200693          	li	a3,2
     b5c:	00812423          	sw	s0,8(sp)
     b60:	00112623          	sw	ra,12(sp)
     b64:	01010413          	addi	s0,sp,16
     b68:	0080076f          	jal	a4,b70 <handle_trap+0x1c>
     b6c:	0c002573          	csrr	a0,stats
     b70:	f8010113          	addi	sp,sp,-128
     b74:	0ad50663          	beq	a0,a3,c20 <handle_trap+0xcc>
     b78:	00800713          	li	a4,8
     b7c:	00e50a63          	beq	a0,a4,b90 <handle_trap+0x3c>
     b80:	000017b7          	lui	a5,0x1
     b84:	a7378793          	addi	a5,a5,-1421 # a73 <vprintfmt+0x40b>
     b88:	78079073          	csrw	mtohost,a5
     b8c:	0000006f          	j	b8c <handle_trap+0x38>
     b90:	04462703          	lw	a4,68(a2)
     b94:	05d00693          	li	a3,93
     b98:	2ed70e63          	beq	a4,a3,e94 <handle_trap+0x340>
     b9c:	4d200693          	li	a3,1234
     ba0:	08d70c63          	beq	a4,a3,c38 <handle_trap+0xe4>
     ba4:	02862283          	lw	t0,40(a2)
     ba8:	02c62503          	lw	a0,44(a2)
     bac:	03062683          	lw	a3,48(a2)
     bb0:	03f10793          	addi	a5,sp,63
     bb4:	fc07f793          	andi	a5,a5,-64
     bb8:	41f75f93          	srai	t6,a4,0x1f
     bbc:	41f2de93          	srai	t4,t0,0x1f
     bc0:	41f55393          	srai	t2,a0,0x1f
     bc4:	41f6d893          	srai	a7,a3,0x1f
     bc8:	00e7a023          	sw	a4,0(a5)
     bcc:	01f7a223          	sw	t6,4(a5)
     bd0:	0057a423          	sw	t0,8(a5)
     bd4:	01d7a623          	sw	t4,12(a5)
     bd8:	00a7a823          	sw	a0,16(a5)
     bdc:	0077aa23          	sw	t2,20(a5)
     be0:	00d7ac23          	sw	a3,24(a5)
     be4:	0117ae23          	sw	a7,28(a5)
     be8:	0330000f          	fence	rw,rw
     bec:	78079073          	csrw	mtohost,a5
     bf0:	00000713          	li	a4,0
     bf4:	781716f3          	csrrw	a3,mfromhost,a4
     bf8:	fe068ee3          	beqz	a3,bf4 <handle_trap+0xa0>
     bfc:	0007a703          	lw	a4,0(a5)
     c00:	0047a783          	lw	a5,4(a5)
     c04:	ff040113          	addi	sp,s0,-16
     c08:	00c12083          	lw	ra,12(sp)
     c0c:	00458513          	addi	a0,a1,4
     c10:	00812403          	lw	s0,8(sp)
     c14:	02e62423          	sw	a4,40(a2)
     c18:	01010113          	addi	sp,sp,16
     c1c:	00008067          	ret
     c20:	00072703          	lw	a4,0(a4)
     c24:	0005a783          	lw	a5,0(a1)
     c28:	00f777b3          	and	a5,a4,a5
     c2c:	f4f71ae3          	bne	a4,a5,b80 <handle_trap+0x2c>
     c30:	00000713          	li	a4,0
     c34:	fd1ff06f          	j	c04 <handle_trap+0xb0>
     c38:	02862703          	lw	a4,40(a2)
     c3c:	00070463          	beqz	a4,c44 <handle_trap+0xf0>
     c40:	0c00e573          	csrrs	a0,stats,1
     c44:	c0002573          	rdcycle	a0
     c48:	80418793          	addi	a5,gp,-2044 # 6564 <counters>
     c4c:	00071c63          	bnez	a4,c64 <handle_trap+0x110>
     c50:	0007a683          	lw	a3,0(a5)
     c54:	40d50533          	sub	a0,a0,a3
     c58:	000026b7          	lui	a3,0x2
     c5c:	3e468693          	addi	a3,a3,996 # 23e4 <__clz_tab+0x108>
     c60:	04d7a423          	sw	a3,72(a5)
     c64:	00a7a023          	sw	a0,0(a5)
     c68:	c0202573          	rdinstret	a0
     c6c:	00071c63          	bnez	a4,c84 <handle_trap+0x130>
     c70:	0047a683          	lw	a3,4(a5)
     c74:	40d50533          	sub	a0,a0,a3
     c78:	000026b7          	lui	a3,0x2
     c7c:	3ec68693          	addi	a3,a3,1004 # 23ec <__clz_tab+0x110>
     c80:	04d7a623          	sw	a3,76(a5)
     c84:	00a7a223          	sw	a0,4(a5)
     c88:	cc002573          	csrr	a0,uarch0
     c8c:	00071c63          	bnez	a4,ca4 <handle_trap+0x150>
     c90:	0087a683          	lw	a3,8(a5)
     c94:	40d50533          	sub	a0,a0,a3
     c98:	000026b7          	lui	a3,0x2
     c9c:	3f468693          	addi	a3,a3,1012 # 23f4 <__clz_tab+0x118>
     ca0:	04d7a823          	sw	a3,80(a5)
     ca4:	00a7a423          	sw	a0,8(a5)
     ca8:	cc102573          	csrr	a0,uarch1
     cac:	00071c63          	bnez	a4,cc4 <handle_trap+0x170>
     cb0:	00c7a683          	lw	a3,12(a5)
     cb4:	40d50533          	sub	a0,a0,a3
     cb8:	000026b7          	lui	a3,0x2
     cbc:	3fc68693          	addi	a3,a3,1020 # 23fc <__clz_tab+0x120>
     cc0:	04d7aa23          	sw	a3,84(a5)
     cc4:	00a7a623          	sw	a0,12(a5)
     cc8:	cc202573          	csrr	a0,uarch2
     ccc:	00071c63          	bnez	a4,ce4 <handle_trap+0x190>
     cd0:	0107a683          	lw	a3,16(a5)
     cd4:	40d50533          	sub	a0,a0,a3
     cd8:	000026b7          	lui	a3,0x2
     cdc:	40468693          	addi	a3,a3,1028 # 2404 <__clz_tab+0x128>
     ce0:	04d7ac23          	sw	a3,88(a5)
     ce4:	00a7a823          	sw	a0,16(a5)
     ce8:	cc302573          	csrr	a0,uarch3
     cec:	00071c63          	bnez	a4,d04 <handle_trap+0x1b0>
     cf0:	0147a683          	lw	a3,20(a5)
     cf4:	40d50533          	sub	a0,a0,a3
     cf8:	000026b7          	lui	a3,0x2
     cfc:	40c68693          	addi	a3,a3,1036 # 240c <__clz_tab+0x130>
     d00:	04d7ae23          	sw	a3,92(a5)
     d04:	00a7aa23          	sw	a0,20(a5)
     d08:	cc402573          	csrr	a0,uarch4
     d0c:	00071c63          	bnez	a4,d24 <handle_trap+0x1d0>
     d10:	0187a683          	lw	a3,24(a5)
     d14:	40d50533          	sub	a0,a0,a3
     d18:	000026b7          	lui	a3,0x2
     d1c:	41468693          	addi	a3,a3,1044 # 2414 <__clz_tab+0x138>
     d20:	06d7a023          	sw	a3,96(a5)
     d24:	00a7ac23          	sw	a0,24(a5)
     d28:	cc502573          	csrr	a0,uarch5
     d2c:	00071c63          	bnez	a4,d44 <handle_trap+0x1f0>
     d30:	01c7a683          	lw	a3,28(a5)
     d34:	40d50533          	sub	a0,a0,a3
     d38:	000026b7          	lui	a3,0x2
     d3c:	41c68693          	addi	a3,a3,1052 # 241c <__clz_tab+0x140>
     d40:	06d7a223          	sw	a3,100(a5)
     d44:	00a7ae23          	sw	a0,28(a5)
     d48:	cc602573          	csrr	a0,uarch6
     d4c:	00071c63          	bnez	a4,d64 <handle_trap+0x210>
     d50:	0207a683          	lw	a3,32(a5)
     d54:	40d50533          	sub	a0,a0,a3
     d58:	000026b7          	lui	a3,0x2
     d5c:	42468693          	addi	a3,a3,1060 # 2424 <__clz_tab+0x148>
     d60:	06d7a423          	sw	a3,104(a5)
     d64:	02a7a023          	sw	a0,32(a5)
     d68:	cc702573          	csrr	a0,uarch7
     d6c:	00071c63          	bnez	a4,d84 <handle_trap+0x230>
     d70:	0247a683          	lw	a3,36(a5)
     d74:	40d50533          	sub	a0,a0,a3
     d78:	000026b7          	lui	a3,0x2
     d7c:	42c68693          	addi	a3,a3,1068 # 242c <__clz_tab+0x150>
     d80:	06d7a623          	sw	a3,108(a5)
     d84:	02a7a223          	sw	a0,36(a5)
     d88:	cc802573          	csrr	a0,uarch8
     d8c:	00071c63          	bnez	a4,da4 <handle_trap+0x250>
     d90:	0287a683          	lw	a3,40(a5)
     d94:	40d50533          	sub	a0,a0,a3
     d98:	000026b7          	lui	a3,0x2
     d9c:	43468693          	addi	a3,a3,1076 # 2434 <__clz_tab+0x158>
     da0:	06d7a823          	sw	a3,112(a5)
     da4:	02a7a423          	sw	a0,40(a5)
     da8:	cc902573          	csrr	a0,uarch9
     dac:	00071c63          	bnez	a4,dc4 <handle_trap+0x270>
     db0:	02c7a683          	lw	a3,44(a5)
     db4:	40d50533          	sub	a0,a0,a3
     db8:	000026b7          	lui	a3,0x2
     dbc:	43c68693          	addi	a3,a3,1084 # 243c <__clz_tab+0x160>
     dc0:	06d7aa23          	sw	a3,116(a5)
     dc4:	02a7a623          	sw	a0,44(a5)
     dc8:	cca02573          	csrr	a0,uarch10
     dcc:	00071c63          	bnez	a4,de4 <handle_trap+0x290>
     dd0:	0307a683          	lw	a3,48(a5)
     dd4:	40d50533          	sub	a0,a0,a3
     dd8:	000026b7          	lui	a3,0x2
     ddc:	44468693          	addi	a3,a3,1092 # 2444 <__clz_tab+0x168>
     de0:	06d7ac23          	sw	a3,120(a5)
     de4:	02a7a823          	sw	a0,48(a5)
     de8:	ccb02573          	csrr	a0,uarch11
     dec:	00071c63          	bnez	a4,e04 <handle_trap+0x2b0>
     df0:	0347a683          	lw	a3,52(a5)
     df4:	40d50533          	sub	a0,a0,a3
     df8:	000026b7          	lui	a3,0x2
     dfc:	44c68693          	addi	a3,a3,1100 # 244c <__clz_tab+0x170>
     e00:	06d7ae23          	sw	a3,124(a5)
     e04:	02a7aa23          	sw	a0,52(a5)
     e08:	ccc02573          	csrr	a0,uarch12
     e0c:	00071c63          	bnez	a4,e24 <handle_trap+0x2d0>
     e10:	0387a683          	lw	a3,56(a5)
     e14:	40d50533          	sub	a0,a0,a3
     e18:	000026b7          	lui	a3,0x2
     e1c:	45468693          	addi	a3,a3,1108 # 2454 <__clz_tab+0x178>
     e20:	08d7a023          	sw	a3,128(a5)
     e24:	02a7ac23          	sw	a0,56(a5)
     e28:	ccd02573          	csrr	a0,uarch13
     e2c:	00071c63          	bnez	a4,e44 <handle_trap+0x2f0>
     e30:	03c7a683          	lw	a3,60(a5)
     e34:	40d50533          	sub	a0,a0,a3
     e38:	000026b7          	lui	a3,0x2
     e3c:	45c68693          	addi	a3,a3,1116 # 245c <__clz_tab+0x180>
     e40:	08d7a223          	sw	a3,132(a5)
     e44:	02a7ae23          	sw	a0,60(a5)
     e48:	cce02573          	csrr	a0,uarch14
     e4c:	00071c63          	bnez	a4,e64 <handle_trap+0x310>
     e50:	0407a683          	lw	a3,64(a5)
     e54:	40d50533          	sub	a0,a0,a3
     e58:	000026b7          	lui	a3,0x2
     e5c:	46468693          	addi	a3,a3,1124 # 2464 <__clz_tab+0x188>
     e60:	08d7a423          	sw	a3,136(a5)
     e64:	04a7a023          	sw	a0,64(a5)
     e68:	ccf02573          	csrr	a0,uarch15
     e6c:	02071863          	bnez	a4,e9c <handle_trap+0x348>
     e70:	0447a703          	lw	a4,68(a5)
     e74:	40e50533          	sub	a0,a0,a4
     e78:	00002737          	lui	a4,0x2
     e7c:	46c70713          	addi	a4,a4,1132 # 246c <__clz_tab+0x190>
     e80:	08e7a623          	sw	a4,140(a5)
     e84:	04a7a223          	sw	a0,68(a5)
     e88:	0c00f573          	csrrc	a0,stats,1
     e8c:	00000713          	li	a4,0
     e90:	d75ff06f          	j	c04 <handle_trap+0xb0>
     e94:	02862503          	lw	a0,40(a2)
     e98:	cadff0ef          	jal	b44 <tohost_exit>
     e9c:	04a7a223          	sw	a0,68(a5)
     ea0:	00000713          	li	a4,0
     ea4:	d61ff06f          	j	c04 <handle_trap+0xb0>

00000ea8 <exit>:
     ea8:	05d00893          	li	a7,93
     eac:	00000593          	li	a1,0
     eb0:	00000613          	li	a2,0
     eb4:	00000073          	ecall
     eb8:	0000006f          	j	eb8 <exit+0x10>

00000ebc <setStats>:
     ebc:	4d200893          	li	a7,1234
     ec0:	00000593          	li	a1,0
     ec4:	00000613          	li	a2,0
     ec8:	00000073          	ecall
     ecc:	00008067          	ret

00000ed0 <printstr>:
     ed0:	ff010113          	addi	sp,sp,-16
     ed4:	00812423          	sw	s0,8(sp)
     ed8:	00112623          	sw	ra,12(sp)
     edc:	00050413          	mv	s0,a0
     ee0:	460000ef          	jal	1340 <strlen>
     ee4:	00050613          	mv	a2,a0
     ee8:	04000893          	li	a7,64
     eec:	00100513          	li	a0,1
     ef0:	00040593          	mv	a1,s0
     ef4:	00000073          	ecall
     ef8:	00c12083          	lw	ra,12(sp)
     efc:	00812403          	lw	s0,8(sp)
     f00:	01010113          	addi	sp,sp,16
     f04:	00008067          	ret

00000f08 <thread_entry>:
     f08:	00050463          	beqz	a0,f10 <thread_entry+0x8>
     f0c:	0000006f          	j	f0c <thread_entry+0x4>
     f10:	00008067          	ret

00000f14 <printhex>:
     f14:	fd010113          	addi	sp,sp,-48
     f18:	02112623          	sw	ra,44(sp)
     f1c:	01b10693          	addi	a3,sp,27
     f20:	00b10893          	addi	a7,sp,11
     f24:	00900813          	li	a6,9
     f28:	00f57613          	andi	a2,a0,15
     f2c:	00c83733          	sltu	a4,a6,a2
     f30:	40e00733          	neg	a4,a4
     f34:	02777793          	andi	a5,a4,39
     f38:	03078793          	addi	a5,a5,48
     f3c:	00c787b3          	add	a5,a5,a2
     f40:	01c59713          	slli	a4,a1,0x1c
     f44:	00f68023          	sb	a5,0(a3)
     f48:	00455513          	srli	a0,a0,0x4
     f4c:	fff68693          	addi	a3,a3,-1
     f50:	00a76533          	or	a0,a4,a0
     f54:	0045d593          	srli	a1,a1,0x4
     f58:	fd1698e3          	bne	a3,a7,f28 <printhex+0x14>
     f5c:	00c10513          	addi	a0,sp,12
     f60:	00010e23          	sb	zero,28(sp)
     f64:	3dc000ef          	jal	1340 <strlen>
     f68:	00050613          	mv	a2,a0
     f6c:	04000893          	li	a7,64
     f70:	00100513          	li	a0,1
     f74:	00c10593          	addi	a1,sp,12
     f78:	00000073          	ecall
     f7c:	02c12083          	lw	ra,44(sp)
     f80:	03010113          	addi	sp,sp,48
     f84:	00008067          	ret

00000f88 <printf>:
     f88:	fc010113          	addi	sp,sp,-64
     f8c:	02410293          	addi	t0,sp,36
     f90:	02c12423          	sw	a2,40(sp)
     f94:	00050613          	mv	a2,a0
     f98:	02b12223          	sw	a1,36(sp)
     f9c:	02d12623          	sw	a3,44(sp)
     fa0:	60400513          	li	a0,1540
     fa4:	00028693          	mv	a3,t0
     fa8:	00000593          	li	a1,0
     fac:	00112e23          	sw	ra,28(sp)
     fb0:	02e12823          	sw	a4,48(sp)
     fb4:	02f12a23          	sw	a5,52(sp)
     fb8:	03012c23          	sw	a6,56(sp)
     fbc:	03112e23          	sw	a7,60(sp)
     fc0:	00512623          	sw	t0,12(sp)
     fc4:	ea4ff0ef          	jal	668 <vprintfmt>
     fc8:	01c12083          	lw	ra,28(sp)
     fcc:	00000513          	li	a0,0
     fd0:	04010113          	addi	sp,sp,64
     fd4:	00008067          	ret

00000fd8 <sprintf>:
     fd8:	fb010113          	addi	sp,sp,-80
     fdc:	03810293          	addi	t0,sp,56
     fe0:	02812423          	sw	s0,40(sp)
     fe4:	00a12623          	sw	a0,12(sp)
     fe8:	00050413          	mv	s0,a0
     fec:	02c12c23          	sw	a2,56(sp)
     ff0:	02d12e23          	sw	a3,60(sp)
     ff4:	00058613          	mv	a2,a1
     ff8:	65000513          	li	a0,1616
     ffc:	00c10593          	addi	a1,sp,12
    1000:	00028693          	mv	a3,t0
    1004:	02112623          	sw	ra,44(sp)
    1008:	04f12223          	sw	a5,68(sp)
    100c:	04e12023          	sw	a4,64(sp)
    1010:	05012423          	sw	a6,72(sp)
    1014:	05112623          	sw	a7,76(sp)
    1018:	00512e23          	sw	t0,28(sp)
    101c:	e4cff0ef          	jal	668 <vprintfmt>
    1020:	00c12783          	lw	a5,12(sp)
    1024:	00078023          	sb	zero,0(a5)
    1028:	00c12503          	lw	a0,12(sp)
    102c:	02c12083          	lw	ra,44(sp)
    1030:	40850533          	sub	a0,a0,s0
    1034:	02812403          	lw	s0,40(sp)
    1038:	05010113          	addi	sp,sp,80
    103c:	00008067          	ret

00001040 <_init>:
    1040:	fd010113          	addi	sp,sp,-48
    1044:	02912223          	sw	s1,36(sp)
    1048:	03212023          	sw	s2,32(sp)
    104c:	00020913          	mv	s2,tp
    1050:	00020493          	mv	s1,tp
    1054:	409904b3          	sub	s1,s2,s1
    1058:	01412c23          	sw	s4,24(sp)
    105c:	00058a13          	mv	s4,a1
    1060:	02112623          	sw	ra,44(sp)
    1064:	02812423          	sw	s0,40(sp)
    1068:	01312e23          	sw	s3,28(sp)
    106c:	03010413          	addi	s0,sp,48
    1070:	01512a23          	sw	s5,20(sp)
    1074:	01612823          	sw	s6,16(sp)
    1078:	01712623          	sw	s7,12(sp)
    107c:	00050993          	mv	s3,a0
    1080:	d8010113          	addi	sp,sp,-640
    1084:	00020513          	mv	a0,tp
    1088:	00048613          	mv	a2,s1
    108c:	8a018593          	addi	a1,gp,-1888 # 6600 <_end>
    1090:	00020b13          	mv	s6,tp
    1094:	0b0000ef          	jal	1144 <memcpy>
    1098:	04420613          	addi	a2,tp,68 # 44 <_tbss_end>
    109c:	41260633          	sub	a2,a2,s2
    10a0:	009b0533          	add	a0,s6,s1
    10a4:	00000593          	li	a1,0
    10a8:	1bc000ef          	jal	1264 <memset>
    10ac:	000a0593          	mv	a1,s4
    10b0:	00098513          	mv	a0,s3
    10b4:	e55ff0ef          	jal	f08 <thread_entry>
    10b8:	03f10a93          	addi	s5,sp,63
    10bc:	00000593          	li	a1,0
    10c0:	00000513          	li	a0,0
    10c4:	80418493          	addi	s1,gp,-2044 # 6564 <counters>
    10c8:	fc0afa93          	andi	s5,s5,-64
    10cc:	00c010ef          	jal	20d8 <main>
    10d0:	04848913          	addi	s2,s1,72
    10d4:	00050b93          	mv	s7,a0
    10d8:	00090993          	mv	s3,s2
    10dc:	000a8a13          	mv	s4,s5
    10e0:	00002b37          	lui	s6,0x2
    10e4:	0100006f          	j	10f4 <_init+0xb4>
    10e8:	00448493          	addi	s1,s1,4
    10ec:	00490913          	addi	s2,s2,4
    10f0:	03348663          	beq	s1,s3,111c <_init+0xdc>
    10f4:	0004a683          	lw	a3,0(s1)
    10f8:	fe0688e3          	beqz	a3,10e8 <_init+0xa8>
    10fc:	00092603          	lw	a2,0(s2)
    1100:	000a0513          	mv	a0,s4
    1104:	48cb0593          	addi	a1,s6,1164 # 248c <__clz_tab+0x1b0>
    1108:	ed1ff0ef          	jal	fd8 <sprintf>
    110c:	00448493          	addi	s1,s1,4
    1110:	00aa0a33          	add	s4,s4,a0
    1114:	00490913          	addi	s2,s2,4
    1118:	fd349ee3          	bne	s1,s3,10f4 <_init+0xb4>
    111c:	034a8063          	beq	s5,s4,113c <_init+0xfc>
    1120:	000a8513          	mv	a0,s5
    1124:	21c000ef          	jal	1340 <strlen>
    1128:	00050613          	mv	a2,a0
    112c:	04000893          	li	a7,64
    1130:	00100513          	li	a0,1
    1134:	000a8593          	mv	a1,s5
    1138:	00000073          	ecall
    113c:	000b8513          	mv	a0,s7
    1140:	d69ff0ef          	jal	ea8 <exit>

00001144 <memcpy>:
    1144:	00a5c7b3          	xor	a5,a1,a0
    1148:	0037f793          	andi	a5,a5,3
    114c:	00c508b3          	add	a7,a0,a2
    1150:	0e079263          	bnez	a5,1234 <memcpy+0xf0>
    1154:	00300793          	li	a5,3
    1158:	0ec7fe63          	bleu	a2,a5,1254 <memcpy+0x110>
    115c:	00357793          	andi	a5,a0,3
    1160:	04079a63          	bnez	a5,11b4 <memcpy+0x70>
    1164:	ffc8f813          	andi	a6,a7,-4
    1168:	fe080793          	addi	a5,a6,-32
    116c:	00050713          	mv	a4,a0
    1170:	06f56663          	bltu	a0,a5,11dc <memcpy+0x98>
    1174:	00058693          	mv	a3,a1
    1178:	00070793          	mv	a5,a4
    117c:	03077863          	bleu	a6,a4,11ac <memcpy+0x68>
    1180:	0006a603          	lw	a2,0(a3)
    1184:	00478793          	addi	a5,a5,4
    1188:	00468693          	addi	a3,a3,4
    118c:	fec7ae23          	sw	a2,-4(a5)
    1190:	ff07e8e3          	bltu	a5,a6,1180 <memcpy+0x3c>
    1194:	fff74793          	not	a5,a4
    1198:	01078833          	add	a6,a5,a6
    119c:	ffc87813          	andi	a6,a6,-4
    11a0:	00480813          	addi	a6,a6,4
    11a4:	01070733          	add	a4,a4,a6
    11a8:	010585b3          	add	a1,a1,a6
    11ac:	09176863          	bltu	a4,a7,123c <memcpy+0xf8>
    11b0:	00008067          	ret
    11b4:	00050713          	mv	a4,a0
    11b8:	0005c683          	lbu	a3,0(a1)
    11bc:	00170713          	addi	a4,a4,1
    11c0:	00377793          	andi	a5,a4,3
    11c4:	00158593          	addi	a1,a1,1
    11c8:	fed70fa3          	sb	a3,-1(a4)
    11cc:	fe0796e3          	bnez	a5,11b8 <memcpy+0x74>
    11d0:	ffc8f813          	andi	a6,a7,-4
    11d4:	fe080793          	addi	a5,a6,-32
    11d8:	f8f77ee3          	bleu	a5,a4,1174 <memcpy+0x30>
    11dc:	0005af83          	lw	t6,0(a1)
    11e0:	0045af03          	lw	t5,4(a1)
    11e4:	0085ae83          	lw	t4,8(a1)
    11e8:	00c5ae03          	lw	t3,12(a1)
    11ec:	0105a383          	lw	t2,16(a1)
    11f0:	0145a303          	lw	t1,20(a1)
    11f4:	0185a283          	lw	t0,24(a1)
    11f8:	01c5a603          	lw	a2,28(a1)
    11fc:	02458593          	addi	a1,a1,36
    1200:	02470713          	addi	a4,a4,36
    1204:	ffc5a683          	lw	a3,-4(a1)
    1208:	fdf72e23          	sw	t6,-36(a4)
    120c:	ffe72023          	sw	t5,-32(a4)
    1210:	ffd72223          	sw	t4,-28(a4)
    1214:	ffc72423          	sw	t3,-24(a4)
    1218:	fe772623          	sw	t2,-20(a4)
    121c:	fe672823          	sw	t1,-16(a4)
    1220:	fe572a23          	sw	t0,-12(a4)
    1224:	fec72c23          	sw	a2,-8(a4)
    1228:	fed72e23          	sw	a3,-4(a4)
    122c:	faf768e3          	bltu	a4,a5,11dc <memcpy+0x98>
    1230:	f45ff06f          	j	1174 <memcpy+0x30>
    1234:	00050713          	mv	a4,a0
    1238:	03157463          	bleu	a7,a0,1260 <memcpy+0x11c>
    123c:	0005c783          	lbu	a5,0(a1)
    1240:	00170713          	addi	a4,a4,1
    1244:	00158593          	addi	a1,a1,1
    1248:	fef70fa3          	sb	a5,-1(a4)
    124c:	ff1768e3          	bltu	a4,a7,123c <memcpy+0xf8>
    1250:	00008067          	ret
    1254:	00050713          	mv	a4,a0
    1258:	ff1562e3          	bltu	a0,a7,123c <memcpy+0xf8>
    125c:	f55ff06f          	j	11b0 <memcpy+0x6c>
    1260:	00008067          	ret

00001264 <memset>:
    1264:	00f00813          	li	a6,15
    1268:	00050713          	mv	a4,a0
    126c:	02c87e63          	bleu	a2,a6,12a8 <memset+0x44>
    1270:	00f77793          	andi	a5,a4,15
    1274:	0a079063          	bnez	a5,1314 <memset+0xb0>
    1278:	08059263          	bnez	a1,12fc <memset+0x98>
    127c:	ff067693          	andi	a3,a2,-16
    1280:	00f67613          	andi	a2,a2,15
    1284:	00e686b3          	add	a3,a3,a4
    1288:	00b72023          	sw	a1,0(a4)
    128c:	00b72223          	sw	a1,4(a4)
    1290:	00b72423          	sw	a1,8(a4)
    1294:	00b72623          	sw	a1,12(a4)
    1298:	01070713          	addi	a4,a4,16
    129c:	fed766e3          	bltu	a4,a3,1288 <memset+0x24>
    12a0:	00061463          	bnez	a2,12a8 <memset+0x44>
    12a4:	00008067          	ret
    12a8:	40c806b3          	sub	a3,a6,a2
    12ac:	00269693          	slli	a3,a3,0x2
    12b0:	00000297          	auipc	t0,0x0
    12b4:	005686b3          	add	a3,a3,t0
    12b8:	00c68067          	jr	a3,12
    12bc:	00b70723          	sb	a1,14(a4)
    12c0:	00b706a3          	sb	a1,13(a4)
    12c4:	00b70623          	sb	a1,12(a4)
    12c8:	00b705a3          	sb	a1,11(a4)
    12cc:	00b70523          	sb	a1,10(a4)
    12d0:	00b704a3          	sb	a1,9(a4)
    12d4:	00b70423          	sb	a1,8(a4)
    12d8:	00b703a3          	sb	a1,7(a4)
    12dc:	00b70323          	sb	a1,6(a4)
    12e0:	00b702a3          	sb	a1,5(a4)
    12e4:	00b70223          	sb	a1,4(a4)
    12e8:	00b701a3          	sb	a1,3(a4)
    12ec:	00b70123          	sb	a1,2(a4)
    12f0:	00b700a3          	sb	a1,1(a4)
    12f4:	00b70023          	sb	a1,0(a4)
    12f8:	00008067          	ret
    12fc:	0ff5f593          	andi	a1,a1,255
    1300:	00859693          	slli	a3,a1,0x8
    1304:	00d5e5b3          	or	a1,a1,a3
    1308:	01059693          	slli	a3,a1,0x10
    130c:	00d5e5b3          	or	a1,a1,a3
    1310:	f6dff06f          	j	127c <memset+0x18>
    1314:	00279693          	slli	a3,a5,0x2
    1318:	00000297          	auipc	t0,0x0
    131c:	005686b3          	add	a3,a3,t0
    1320:	00008293          	mv	t0,ra
    1324:	fa0680e7          	jalr	a3,-96
    1328:	00028093          	mv	ra,t0
    132c:	ff078793          	addi	a5,a5,-16
    1330:	40f70733          	sub	a4,a4,a5
    1334:	00f60633          	add	a2,a2,a5
    1338:	f6c878e3          	bleu	a2,a6,12a8 <memset+0x44>
    133c:	f3dff06f          	j	1278 <memset+0x14>

00001340 <strlen>:
    1340:	00357793          	andi	a5,a0,3
    1344:	00050593          	mv	a1,a0
    1348:	04079a63          	bnez	a5,139c <strlen+0x5c>
    134c:	7f7f86b7          	lui	a3,0x7f7f8
    1350:	f7f68693          	addi	a3,a3,-129 # 7f7f7f7f <_gp+0x7f7f121f>
    1354:	fff00613          	li	a2,-1
    1358:	00450513          	addi	a0,a0,4
    135c:	ffc52783          	lw	a5,-4(a0)
    1360:	00d7f733          	and	a4,a5,a3
    1364:	00d70733          	add	a4,a4,a3
    1368:	00d7e7b3          	or	a5,a5,a3
    136c:	00f767b3          	or	a5,a4,a5
    1370:	fec784e3          	beq	a5,a2,1358 <strlen+0x18>
    1374:	ffc54703          	lbu	a4,-4(a0)
    1378:	40b507b3          	sub	a5,a0,a1
    137c:	ffd54683          	lbu	a3,-3(a0)
    1380:	ffe54603          	lbu	a2,-2(a0)
    1384:	02070e63          	beqz	a4,13c0 <strlen+0x80>
    1388:	02068863          	beqz	a3,13b8 <strlen+0x78>
    138c:	fff78513          	addi	a0,a5,-1
    1390:	02060c63          	beqz	a2,13c8 <strlen+0x88>
    1394:	00008067          	ret
    1398:	fa070ae3          	beqz	a4,134c <strlen+0xc>
    139c:	00054783          	lbu	a5,0(a0)
    13a0:	00150513          	addi	a0,a0,1
    13a4:	00357713          	andi	a4,a0,3
    13a8:	fe0798e3          	bnez	a5,1398 <strlen+0x58>
    13ac:	40b50533          	sub	a0,a0,a1
    13b0:	fff50513          	addi	a0,a0,-1
    13b4:	00008067          	ret
    13b8:	ffd78513          	addi	a0,a5,-3
    13bc:	00008067          	ret
    13c0:	ffc78513          	addi	a0,a5,-4
    13c4:	00008067          	ret
    13c8:	ffe78513          	addi	a0,a5,-2
    13cc:	00008067          	ret

000013d0 <strnlen>:
    13d0:	02058e63          	beqz	a1,140c <strnlen+0x3c>
    13d4:	00054783          	lbu	a5,0(a0)
    13d8:	02078a63          	beqz	a5,140c <strnlen+0x3c>
    13dc:	00150793          	addi	a5,a0,1
    13e0:	00b505b3          	add	a1,a0,a1
    13e4:	0100006f          	j	13f4 <strnlen+0x24>
    13e8:	fff74683          	lbu	a3,-1(a4)
    13ec:	00068c63          	beqz	a3,1404 <strnlen+0x34>
    13f0:	00070793          	mv	a5,a4
    13f4:	00178713          	addi	a4,a5,1
    13f8:	fef598e3          	bne	a1,a5,13e8 <strnlen+0x18>
    13fc:	40a58533          	sub	a0,a1,a0
    1400:	00008067          	ret
    1404:	40a78533          	sub	a0,a5,a0
    1408:	00008067          	ret
    140c:	00000513          	li	a0,0
    1410:	00008067          	ret

00001414 <__udivdi3>:
    1414:	fd010113          	addi	sp,sp,-48
    1418:	02912223          	sw	s1,36(sp)
    141c:	01312e23          	sw	s3,28(sp)
    1420:	01412c23          	sw	s4,24(sp)
    1424:	02112623          	sw	ra,44(sp)
    1428:	02812423          	sw	s0,40(sp)
    142c:	03212023          	sw	s2,32(sp)
    1430:	01512a23          	sw	s5,20(sp)
    1434:	01612823          	sw	s6,16(sp)
    1438:	01712623          	sw	s7,12(sp)
    143c:	01812423          	sw	s8,8(sp)
    1440:	01912223          	sw	s9,4(sp)
    1444:	01a12023          	sw	s10,0(sp)
    1448:	00050a13          	mv	s4,a0
    144c:	00058493          	mv	s1,a1
    1450:	00058993          	mv	s3,a1
    1454:	12069063          	bnez	a3,1574 <__udivdi3+0x160>
    1458:	00060413          	mv	s0,a2
    145c:	00050913          	mv	s2,a0
    1460:	16c5fa63          	bleu	a2,a1,15d4 <__udivdi3+0x1c0>
    1464:	000107b7          	lui	a5,0x10
    1468:	2ef67463          	bleu	a5,a2,1750 <__udivdi3+0x33c>
    146c:	0ff00793          	li	a5,255
    1470:	00c7b7b3          	sltu	a5,a5,a2
    1474:	00379793          	slli	a5,a5,0x3
    1478:	00002737          	lui	a4,0x2
    147c:	00f656b3          	srl	a3,a2,a5
    1480:	2dc70713          	addi	a4,a4,732 # 22dc <__clz_tab>
    1484:	00e68733          	add	a4,a3,a4
    1488:	00074703          	lbu	a4,0(a4)
    148c:	00f707b3          	add	a5,a4,a5
    1490:	02000713          	li	a4,32
    1494:	40f70733          	sub	a4,a4,a5
    1498:	00070c63          	beqz	a4,14b0 <__udivdi3+0x9c>
    149c:	00e494b3          	sll	s1,s1,a4
    14a0:	00fa57b3          	srl	a5,s4,a5
    14a4:	00e61433          	sll	s0,a2,a4
    14a8:	0097e9b3          	or	s3,a5,s1
    14ac:	00ea1933          	sll	s2,s4,a4
    14b0:	01045b13          	srli	s6,s0,0x10
    14b4:	000b0593          	mv	a1,s6
    14b8:	00098513          	mv	a0,s3
    14bc:	3b9000ef          	jal	2074 <__umodsi3>
    14c0:	00050a13          	mv	s4,a0
    14c4:	000b0593          	mv	a1,s6
    14c8:	00098513          	mv	a0,s3
    14cc:	01041b93          	slli	s7,s0,0x10
    14d0:	35d000ef          	jal	202c <__udivsi3>
    14d4:	010bdb93          	srli	s7,s7,0x10
    14d8:	00050593          	mv	a1,a0
    14dc:	00050a93          	mv	s5,a0
    14e0:	000b8513          	mv	a0,s7
    14e4:	31d000ef          	jal	2000 <__mulsi3>
    14e8:	010a1a13          	slli	s4,s4,0x10
    14ec:	01095793          	srli	a5,s2,0x10
    14f0:	0147e7b3          	or	a5,a5,s4
    14f4:	00a7fc63          	bleu	a0,a5,150c <__udivdi3+0xf8>
    14f8:	008787b3          	add	a5,a5,s0
    14fc:	fffa8713          	addi	a4,s5,-1
    1500:	0087e463          	bltu	a5,s0,1508 <__udivdi3+0xf4>
    1504:	52a7e463          	bltu	a5,a0,1a2c <__udivdi3+0x618>
    1508:	00070a93          	mv	s5,a4
    150c:	40a784b3          	sub	s1,a5,a0
    1510:	000b0593          	mv	a1,s6
    1514:	00048513          	mv	a0,s1
    1518:	35d000ef          	jal	2074 <__umodsi3>
    151c:	00050993          	mv	s3,a0
    1520:	000b0593          	mv	a1,s6
    1524:	00048513          	mv	a0,s1
    1528:	305000ef          	jal	202c <__udivsi3>
    152c:	01091913          	slli	s2,s2,0x10
    1530:	00050593          	mv	a1,a0
    1534:	00050493          	mv	s1,a0
    1538:	01099993          	slli	s3,s3,0x10
    153c:	000b8513          	mv	a0,s7
    1540:	01095913          	srli	s2,s2,0x10
    1544:	2bd000ef          	jal	2000 <__mulsi3>
    1548:	01396933          	or	s2,s2,s3
    154c:	00a97c63          	bleu	a0,s2,1564 <__udivdi3+0x150>
    1550:	01240933          	add	s2,s0,s2
    1554:	fff48793          	addi	a5,s1,-1
    1558:	46896263          	bltu	s2,s0,19bc <__udivdi3+0x5a8>
    155c:	ffe48493          	addi	s1,s1,-2
    1560:	44a97e63          	bleu	a0,s2,19bc <__udivdi3+0x5a8>
    1564:	010a9513          	slli	a0,s5,0x10
    1568:	00956533          	or	a0,a0,s1
    156c:	00000a93          	li	s5,0
    1570:	1840006f          	j	16f4 <__udivdi3+0x2e0>
    1574:	00068793          	mv	a5,a3
    1578:	16d5ea63          	bltu	a1,a3,16ec <__udivdi3+0x2d8>
    157c:	00010737          	lui	a4,0x10
    1580:	1ae6e863          	bltu	a3,a4,1730 <__udivdi3+0x31c>
    1584:	01000737          	lui	a4,0x1000
    1588:	00e6b733          	sltu	a4,a3,a4
    158c:	00174713          	xori	a4,a4,1
    1590:	40e00733          	neg	a4,a4
    1594:	00877713          	andi	a4,a4,8
    1598:	01070713          	addi	a4,a4,16 # 1000010 <_gp+0xff92b0>
    159c:	000025b7          	lui	a1,0x2
    15a0:	00e6d533          	srl	a0,a3,a4
    15a4:	2dc58593          	addi	a1,a1,732 # 22dc <__clz_tab>
    15a8:	00b505b3          	add	a1,a0,a1
    15ac:	0005c583          	lbu	a1,0(a1)
    15b0:	02000a93          	li	s5,32
    15b4:	00e58733          	add	a4,a1,a4
    15b8:	40ea8ab3          	sub	s5,s5,a4
    15bc:	1a0a9863          	bnez	s5,176c <__udivdi3+0x358>
    15c0:	00100513          	li	a0,1
    15c4:	1337e863          	bltu	a5,s3,16f4 <__udivdi3+0x2e0>
    15c8:	00ca3533          	sltu	a0,s4,a2
    15cc:	00154513          	xori	a0,a0,1
    15d0:	1240006f          	j	16f4 <__udivdi3+0x2e0>
    15d4:	00061a63          	bnez	a2,15e8 <__udivdi3+0x1d4>
    15d8:	00000593          	li	a1,0
    15dc:	00100513          	li	a0,1
    15e0:	24d000ef          	jal	202c <__udivsi3>
    15e4:	00050413          	mv	s0,a0
    15e8:	000107b7          	lui	a5,0x10
    15ec:	14f46a63          	bltu	s0,a5,1740 <__udivdi3+0x32c>
    15f0:	010007b7          	lui	a5,0x1000
    15f4:	00f437b3          	sltu	a5,s0,a5
    15f8:	0017c793          	xori	a5,a5,1
    15fc:	40f007b3          	neg	a5,a5
    1600:	0087f793          	andi	a5,a5,8
    1604:	01078793          	addi	a5,a5,16 # 1000010 <_gp+0xff92b0>
    1608:	00002737          	lui	a4,0x2
    160c:	00f456b3          	srl	a3,s0,a5
    1610:	2dc70713          	addi	a4,a4,732 # 22dc <__clz_tab>
    1614:	00e68733          	add	a4,a3,a4
    1618:	00074703          	lbu	a4,0(a4)
    161c:	00f707b3          	add	a5,a4,a5
    1620:	02000713          	li	a4,32
    1624:	40f70733          	sub	a4,a4,a5
    1628:	2a071263          	bnez	a4,18cc <__udivdi3+0x4b8>
    162c:	01041b13          	slli	s6,s0,0x10
    1630:	408484b3          	sub	s1,s1,s0
    1634:	01045b93          	srli	s7,s0,0x10
    1638:	010b5b13          	srli	s6,s6,0x10
    163c:	00100a93          	li	s5,1
    1640:	000b8593          	mv	a1,s7
    1644:	00048513          	mv	a0,s1
    1648:	22d000ef          	jal	2074 <__umodsi3>
    164c:	00050993          	mv	s3,a0
    1650:	000b8593          	mv	a1,s7
    1654:	00048513          	mv	a0,s1
    1658:	1d5000ef          	jal	202c <__udivsi3>
    165c:	000b0593          	mv	a1,s6
    1660:	00050a13          	mv	s4,a0
    1664:	01099993          	slli	s3,s3,0x10
    1668:	199000ef          	jal	2000 <__mulsi3>
    166c:	01095793          	srli	a5,s2,0x10
    1670:	0137e7b3          	or	a5,a5,s3
    1674:	00a7fc63          	bleu	a0,a5,168c <__udivdi3+0x278>
    1678:	008787b3          	add	a5,a5,s0
    167c:	fffa0713          	addi	a4,s4,-1
    1680:	0087e463          	bltu	a5,s0,1688 <__udivdi3+0x274>
    1684:	38a7ee63          	bltu	a5,a0,1a20 <__udivdi3+0x60c>
    1688:	00070a13          	mv	s4,a4
    168c:	40a784b3          	sub	s1,a5,a0
    1690:	000b8593          	mv	a1,s7
    1694:	00048513          	mv	a0,s1
    1698:	1dd000ef          	jal	2074 <__umodsi3>
    169c:	00050993          	mv	s3,a0
    16a0:	000b8593          	mv	a1,s7
    16a4:	00048513          	mv	a0,s1
    16a8:	01091913          	slli	s2,s2,0x10
    16ac:	181000ef          	jal	202c <__udivsi3>
    16b0:	01099993          	slli	s3,s3,0x10
    16b4:	000b0593          	mv	a1,s6
    16b8:	01095913          	srli	s2,s2,0x10
    16bc:	00050493          	mv	s1,a0
    16c0:	01396933          	or	s2,s2,s3
    16c4:	13d000ef          	jal	2000 <__mulsi3>
    16c8:	00a97c63          	bleu	a0,s2,16e0 <__udivdi3+0x2cc>
    16cc:	01240933          	add	s2,s0,s2
    16d0:	fff48793          	addi	a5,s1,-1
    16d4:	2e896063          	bltu	s2,s0,19b4 <__udivdi3+0x5a0>
    16d8:	ffe48493          	addi	s1,s1,-2
    16dc:	2ca97c63          	bleu	a0,s2,19b4 <__udivdi3+0x5a0>
    16e0:	010a1513          	slli	a0,s4,0x10
    16e4:	00956533          	or	a0,a0,s1
    16e8:	00c0006f          	j	16f4 <__udivdi3+0x2e0>
    16ec:	00000a93          	li	s5,0
    16f0:	00000513          	li	a0,0
    16f4:	000a8593          	mv	a1,s5
    16f8:	02c12083          	lw	ra,44(sp)
    16fc:	02812403          	lw	s0,40(sp)
    1700:	02412483          	lw	s1,36(sp)
    1704:	02012903          	lw	s2,32(sp)
    1708:	01c12983          	lw	s3,28(sp)
    170c:	01812a03          	lw	s4,24(sp)
    1710:	01412a83          	lw	s5,20(sp)
    1714:	01012b03          	lw	s6,16(sp)
    1718:	00c12b83          	lw	s7,12(sp)
    171c:	00812c03          	lw	s8,8(sp)
    1720:	00412c83          	lw	s9,4(sp)
    1724:	00012d03          	lw	s10,0(sp)
    1728:	03010113          	addi	sp,sp,48
    172c:	00008067          	ret
    1730:	0ff00713          	li	a4,255
    1734:	00d73733          	sltu	a4,a4,a3
    1738:	00371713          	slli	a4,a4,0x3
    173c:	e61ff06f          	j	159c <__udivdi3+0x188>
    1740:	0ff00793          	li	a5,255
    1744:	0087b7b3          	sltu	a5,a5,s0
    1748:	00379793          	slli	a5,a5,0x3
    174c:	ebdff06f          	j	1608 <__udivdi3+0x1f4>
    1750:	010007b7          	lui	a5,0x1000
    1754:	00f637b3          	sltu	a5,a2,a5
    1758:	0017c793          	xori	a5,a5,1
    175c:	40f007b3          	neg	a5,a5
    1760:	0087f793          	andi	a5,a5,8
    1764:	01078793          	addi	a5,a5,16 # 1000010 <_gp+0xff92b0>
    1768:	d11ff06f          	j	1478 <__udivdi3+0x64>
    176c:	00e65cb3          	srl	s9,a2,a4
    1770:	015696b3          	sll	a3,a3,s5
    1774:	0196ecb3          	or	s9,a3,s9
    1778:	00e4d433          	srl	s0,s1,a4
    177c:	010cd993          	srli	s3,s9,0x10
    1780:	00ea5733          	srl	a4,s4,a4
    1784:	00098593          	mv	a1,s3
    1788:	015494b3          	sll	s1,s1,s5
    178c:	00040513          	mv	a0,s0
    1790:	009764b3          	or	s1,a4,s1
    1794:	01561b33          	sll	s6,a2,s5
    1798:	0dd000ef          	jal	2074 <__umodsi3>
    179c:	00050913          	mv	s2,a0
    17a0:	00098593          	mv	a1,s3
    17a4:	010c9c13          	slli	s8,s9,0x10
    17a8:	00040513          	mv	a0,s0
    17ac:	081000ef          	jal	202c <__udivsi3>
    17b0:	010c5c13          	srli	s8,s8,0x10
    17b4:	00050593          	mv	a1,a0
    17b8:	00050b93          	mv	s7,a0
    17bc:	000c0513          	mv	a0,s8
    17c0:	041000ef          	jal	2000 <__mulsi3>
    17c4:	01091913          	slli	s2,s2,0x10
    17c8:	0104d793          	srli	a5,s1,0x10
    17cc:	0127e7b3          	or	a5,a5,s2
    17d0:	00a7fa63          	bleu	a0,a5,17e4 <__udivdi3+0x3d0>
    17d4:	019787b3          	add	a5,a5,s9
    17d8:	fffb8713          	addi	a4,s7,-1
    17dc:	2397f263          	bleu	s9,a5,1a00 <__udivdi3+0x5ec>
    17e0:	00070b93          	mv	s7,a4
    17e4:	40a78433          	sub	s0,a5,a0
    17e8:	00098593          	mv	a1,s3
    17ec:	00040513          	mv	a0,s0
    17f0:	085000ef          	jal	2074 <__umodsi3>
    17f4:	00050913          	mv	s2,a0
    17f8:	00098593          	mv	a1,s3
    17fc:	00040513          	mv	a0,s0
    1800:	02d000ef          	jal	202c <__udivsi3>
    1804:	01049493          	slli	s1,s1,0x10
    1808:	00050593          	mv	a1,a0
    180c:	00050413          	mv	s0,a0
    1810:	01091913          	slli	s2,s2,0x10
    1814:	000c0513          	mv	a0,s8
    1818:	0104d493          	srli	s1,s1,0x10
    181c:	7e4000ef          	jal	2000 <__mulsi3>
    1820:	0124e4b3          	or	s1,s1,s2
    1824:	00050793          	mv	a5,a0
    1828:	00a4fa63          	bleu	a0,s1,183c <__udivdi3+0x428>
    182c:	019484b3          	add	s1,s1,s9
    1830:	fff40713          	addi	a4,s0,-1
    1834:	1b94fe63          	bleu	s9,s1,19f0 <__udivdi3+0x5dc>
    1838:	00070413          	mv	s0,a4
    183c:	010b9b93          	slli	s7,s7,0x10
    1840:	00010cb7          	lui	s9,0x10
    1844:	008bebb3          	or	s7,s7,s0
    1848:	fffc8413          	addi	s0,s9,-1 # ffff <_gp+0x929f>
    184c:	008bf9b3          	and	s3,s7,s0
    1850:	008b7433          	and	s0,s6,s0
    1854:	00040593          	mv	a1,s0
    1858:	00098513          	mv	a0,s3
    185c:	40f484b3          	sub	s1,s1,a5
    1860:	010bdc13          	srli	s8,s7,0x10
    1864:	79c000ef          	jal	2000 <__mulsi3>
    1868:	00050d13          	mv	s10,a0
    186c:	00040593          	mv	a1,s0
    1870:	000c0513          	mv	a0,s8
    1874:	78c000ef          	jal	2000 <__mulsi3>
    1878:	010b5b13          	srli	s6,s6,0x10
    187c:	00050913          	mv	s2,a0
    1880:	000b0593          	mv	a1,s6
    1884:	000c0513          	mv	a0,s8
    1888:	778000ef          	jal	2000 <__mulsi3>
    188c:	00050413          	mv	s0,a0
    1890:	000b0593          	mv	a1,s6
    1894:	00098513          	mv	a0,s3
    1898:	768000ef          	jal	2000 <__mulsi3>
    189c:	01250533          	add	a0,a0,s2
    18a0:	010d5793          	srli	a5,s10,0x10
    18a4:	00a787b3          	add	a5,a5,a0
    18a8:	0127f463          	bleu	s2,a5,18b0 <__udivdi3+0x49c>
    18ac:	01940433          	add	s0,s0,s9
    18b0:	0107d513          	srli	a0,a5,0x10
    18b4:	00850533          	add	a0,a0,s0
    18b8:	12a4e663          	bltu	s1,a0,19e4 <__udivdi3+0x5d0>
    18bc:	10a48463          	beq	s1,a0,19c4 <__udivdi3+0x5b0>
    18c0:	000b8513          	mv	a0,s7
    18c4:	00000a93          	li	s5,0
    18c8:	e2dff06f          	j	16f4 <__udivdi3+0x2e0>
    18cc:	00e41433          	sll	s0,s0,a4
    18d0:	00f4dab3          	srl	s5,s1,a5
    18d4:	01045993          	srli	s3,s0,0x10
    18d8:	00e494b3          	sll	s1,s1,a4
    18dc:	00fa57b3          	srl	a5,s4,a5
    18e0:	00098593          	mv	a1,s3
    18e4:	000a8513          	mv	a0,s5
    18e8:	00ea1933          	sll	s2,s4,a4
    18ec:	0097ec33          	or	s8,a5,s1
    18f0:	784000ef          	jal	2074 <__umodsi3>
    18f4:	00050a13          	mv	s4,a0
    18f8:	00098593          	mv	a1,s3
    18fc:	01041b13          	slli	s6,s0,0x10
    1900:	000a8513          	mv	a0,s5
    1904:	728000ef          	jal	202c <__udivsi3>
    1908:	010b5b13          	srli	s6,s6,0x10
    190c:	00050593          	mv	a1,a0
    1910:	00050c93          	mv	s9,a0
    1914:	000b0513          	mv	a0,s6
    1918:	6e8000ef          	jal	2000 <__mulsi3>
    191c:	010a1a13          	slli	s4,s4,0x10
    1920:	010c5713          	srli	a4,s8,0x10
    1924:	01476733          	or	a4,a4,s4
    1928:	00a77e63          	bleu	a0,a4,1944 <__udivdi3+0x530>
    192c:	00870733          	add	a4,a4,s0
    1930:	fffc8793          	addi	a5,s9,-1
    1934:	0e876263          	bltu	a4,s0,1a18 <__udivdi3+0x604>
    1938:	0ea77063          	bleu	a0,a4,1a18 <__udivdi3+0x604>
    193c:	ffec8c93          	addi	s9,s9,-2
    1940:	00870733          	add	a4,a4,s0
    1944:	40a70bb3          	sub	s7,a4,a0
    1948:	00098593          	mv	a1,s3
    194c:	000b8513          	mv	a0,s7
    1950:	724000ef          	jal	2074 <__umodsi3>
    1954:	00050a13          	mv	s4,a0
    1958:	00098593          	mv	a1,s3
    195c:	000b8513          	mv	a0,s7
    1960:	6cc000ef          	jal	202c <__udivsi3>
    1964:	00050593          	mv	a1,a0
    1968:	00050a93          	mv	s5,a0
    196c:	000b0513          	mv	a0,s6
    1970:	690000ef          	jal	2000 <__mulsi3>
    1974:	010c1793          	slli	a5,s8,0x10
    1978:	010a1a13          	slli	s4,s4,0x10
    197c:	0107d793          	srli	a5,a5,0x10
    1980:	0147e7b3          	or	a5,a5,s4
    1984:	00a7fe63          	bleu	a0,a5,19a0 <__udivdi3+0x58c>
    1988:	008787b3          	add	a5,a5,s0
    198c:	fffa8713          	addi	a4,s5,-1
    1990:	0887e063          	bltu	a5,s0,1a10 <__udivdi3+0x5fc>
    1994:	06a7fe63          	bleu	a0,a5,1a10 <__udivdi3+0x5fc>
    1998:	ffea8a93          	addi	s5,s5,-2
    199c:	008787b3          	add	a5,a5,s0
    19a0:	010c9c93          	slli	s9,s9,0x10
    19a4:	40a784b3          	sub	s1,a5,a0
    19a8:	015ceab3          	or	s5,s9,s5
    19ac:	00098b93          	mv	s7,s3
    19b0:	c91ff06f          	j	1640 <__udivdi3+0x22c>
    19b4:	00078493          	mv	s1,a5
    19b8:	d29ff06f          	j	16e0 <__udivdi3+0x2cc>
    19bc:	00078493          	mv	s1,a5
    19c0:	ba5ff06f          	j	1564 <__udivdi3+0x150>
    19c4:	000106b7          	lui	a3,0x10
    19c8:	fff68693          	addi	a3,a3,-1 # ffff <_gp+0x929f>
    19cc:	00d7f7b3          	and	a5,a5,a3
    19d0:	01079713          	slli	a4,a5,0x10
    19d4:	00dd77b3          	and	a5,s10,a3
    19d8:	015a1a33          	sll	s4,s4,s5
    19dc:	00f707b3          	add	a5,a4,a5
    19e0:	eefa70e3          	bleu	a5,s4,18c0 <__udivdi3+0x4ac>
    19e4:	fffb8513          	addi	a0,s7,-1
    19e8:	00000a93          	li	s5,0
    19ec:	d09ff06f          	j	16f4 <__udivdi3+0x2e0>
    19f0:	e4a4f4e3          	bleu	a0,s1,1838 <__udivdi3+0x424>
    19f4:	ffe40413          	addi	s0,s0,-2
    19f8:	019484b3          	add	s1,s1,s9
    19fc:	e41ff06f          	j	183c <__udivdi3+0x428>
    1a00:	dea7f0e3          	bleu	a0,a5,17e0 <__udivdi3+0x3cc>
    1a04:	ffeb8b93          	addi	s7,s7,-2
    1a08:	019787b3          	add	a5,a5,s9
    1a0c:	dd9ff06f          	j	17e4 <__udivdi3+0x3d0>
    1a10:	00070a93          	mv	s5,a4
    1a14:	f8dff06f          	j	19a0 <__udivdi3+0x58c>
    1a18:	00078c93          	mv	s9,a5
    1a1c:	f29ff06f          	j	1944 <__udivdi3+0x530>
    1a20:	ffea0a13          	addi	s4,s4,-2
    1a24:	008787b3          	add	a5,a5,s0
    1a28:	c65ff06f          	j	168c <__udivdi3+0x278>
    1a2c:	ffea8a93          	addi	s5,s5,-2
    1a30:	008787b3          	add	a5,a5,s0
    1a34:	ad9ff06f          	j	150c <__udivdi3+0xf8>

00001a38 <__umoddi3>:
    1a38:	fb010113          	addi	sp,sp,-80
    1a3c:	04812423          	sw	s0,72(sp)
    1a40:	04912223          	sw	s1,68(sp)
    1a44:	05212023          	sw	s2,64(sp)
    1a48:	03312e23          	sw	s3,60(sp)
    1a4c:	03512a23          	sw	s5,52(sp)
    1a50:	04112623          	sw	ra,76(sp)
    1a54:	03412c23          	sw	s4,56(sp)
    1a58:	03612823          	sw	s6,48(sp)
    1a5c:	03712623          	sw	s7,44(sp)
    1a60:	03812423          	sw	s8,40(sp)
    1a64:	03912223          	sw	s9,36(sp)
    1a68:	03a12023          	sw	s10,32(sp)
    1a6c:	01b12e23          	sw	s11,28(sp)
    1a70:	00058493          	mv	s1,a1
    1a74:	00050413          	mv	s0,a0
    1a78:	00060913          	mv	s2,a2
    1a7c:	00050993          	mv	s3,a0
    1a80:	00058a93          	mv	s5,a1
    1a84:	0c069a63          	bnez	a3,1b58 <__umoddi3+0x120>
    1a88:	14c5f063          	bleu	a2,a1,1bc8 <__umoddi3+0x190>
    1a8c:	000107b7          	lui	a5,0x10
    1a90:	28f67e63          	bleu	a5,a2,1d2c <__umoddi3+0x2f4>
    1a94:	0ff00793          	li	a5,255
    1a98:	00c7b7b3          	sltu	a5,a5,a2
    1a9c:	00379793          	slli	a5,a5,0x3
    1aa0:	00002737          	lui	a4,0x2
    1aa4:	00f656b3          	srl	a3,a2,a5
    1aa8:	2dc70713          	addi	a4,a4,732 # 22dc <__clz_tab>
    1aac:	00e68733          	add	a4,a3,a4
    1ab0:	00074583          	lbu	a1,0(a4)
    1ab4:	02000513          	li	a0,32
    1ab8:	00f587b3          	add	a5,a1,a5
    1abc:	40f50a33          	sub	s4,a0,a5
    1ac0:	000a0c63          	beqz	s4,1ad8 <__umoddi3+0xa0>
    1ac4:	014495b3          	sll	a1,s1,s4
    1ac8:	00f457b3          	srl	a5,s0,a5
    1acc:	01461933          	sll	s2,a2,s4
    1ad0:	00b7eab3          	or	s5,a5,a1
    1ad4:	014419b3          	sll	s3,s0,s4
    1ad8:	01095b13          	srli	s6,s2,0x10
    1adc:	000b0593          	mv	a1,s6
    1ae0:	000a8513          	mv	a0,s5
    1ae4:	590000ef          	jal	2074 <__umodsi3>
    1ae8:	00050493          	mv	s1,a0
    1aec:	000b0593          	mv	a1,s6
    1af0:	000a8513          	mv	a0,s5
    1af4:	01091a93          	slli	s5,s2,0x10
    1af8:	534000ef          	jal	202c <__udivsi3>
    1afc:	010ada93          	srli	s5,s5,0x10
    1b00:	00050593          	mv	a1,a0
    1b04:	000a8513          	mv	a0,s5
    1b08:	4f8000ef          	jal	2000 <__mulsi3>
    1b0c:	01049493          	slli	s1,s1,0x10
    1b10:	0109d793          	srli	a5,s3,0x10
    1b14:	0097e7b3          	or	a5,a5,s1
    1b18:	00a7fa63          	bleu	a0,a5,1b2c <__umoddi3+0xf4>
    1b1c:	012787b3          	add	a5,a5,s2
    1b20:	0127e663          	bltu	a5,s2,1b2c <__umoddi3+0xf4>
    1b24:	00a7f463          	bleu	a0,a5,1b2c <__umoddi3+0xf4>
    1b28:	012787b3          	add	a5,a5,s2
    1b2c:	40a78433          	sub	s0,a5,a0
    1b30:	000b0593          	mv	a1,s6
    1b34:	00040513          	mv	a0,s0
    1b38:	53c000ef          	jal	2074 <__umodsi3>
    1b3c:	00050493          	mv	s1,a0
    1b40:	000b0593          	mv	a1,s6
    1b44:	00040513          	mv	a0,s0
    1b48:	4e4000ef          	jal	202c <__udivsi3>
    1b4c:	00050593          	mv	a1,a0
    1b50:	000a8513          	mv	a0,s5
    1b54:	1400006f          	j	1c94 <__umoddi3+0x25c>
    1b58:	16d5ea63          	bltu	a1,a3,1ccc <__umoddi3+0x294>
    1b5c:	000107b7          	lui	a5,0x10
    1b60:	00068813          	mv	a6,a3
    1b64:	1af6e463          	bltu	a3,a5,1d0c <__umoddi3+0x2d4>
    1b68:	01000737          	lui	a4,0x1000
    1b6c:	00e6b733          	sltu	a4,a3,a4
    1b70:	00174713          	xori	a4,a4,1
    1b74:	40e00733          	neg	a4,a4
    1b78:	00877713          	andi	a4,a4,8
    1b7c:	01070713          	addi	a4,a4,16 # 1000010 <_gp+0xff92b0>
    1b80:	000027b7          	lui	a5,0x2
    1b84:	00e6d5b3          	srl	a1,a3,a4
    1b88:	2dc78793          	addi	a5,a5,732 # 22dc <__clz_tab>
    1b8c:	00f587b3          	add	a5,a1,a5
    1b90:	0007cb03          	lbu	s6,0(a5)
    1b94:	02000593          	li	a1,32
    1b98:	00eb0b33          	add	s6,s6,a4
    1b9c:	41658a33          	sub	s4,a1,s6
    1ba0:	1a0a1463          	bnez	s4,1d48 <__umoddi3+0x310>
    1ba4:	01586663          	bltu	a6,s5,1bb0 <__umoddi3+0x178>
    1ba8:	00040513          	mv	a0,s0
    1bac:	0129ea63          	bltu	s3,s2,1bc0 <__umoddi3+0x188>
    1bb0:	40c40533          	sub	a0,s0,a2
    1bb4:	40d486b3          	sub	a3,s1,a3
    1bb8:	00a43433          	sltu	s0,s0,a0
    1bbc:	40868ab3          	sub	s5,a3,s0
    1bc0:	000a8593          	mv	a1,s5
    1bc4:	10c0006f          	j	1cd0 <__umoddi3+0x298>
    1bc8:	00061a63          	bnez	a2,1bdc <__umoddi3+0x1a4>
    1bcc:	00000593          	li	a1,0
    1bd0:	00100513          	li	a0,1
    1bd4:	458000ef          	jal	202c <__udivsi3>
    1bd8:	00050913          	mv	s2,a0
    1bdc:	000107b7          	lui	a5,0x10
    1be0:	12f96e63          	bltu	s2,a5,1d1c <__umoddi3+0x2e4>
    1be4:	010007b7          	lui	a5,0x1000
    1be8:	00f937b3          	sltu	a5,s2,a5
    1bec:	0017c793          	xori	a5,a5,1
    1bf0:	40f007b3          	neg	a5,a5
    1bf4:	0087f793          	andi	a5,a5,8
    1bf8:	01078793          	addi	a5,a5,16 # 1000010 <_gp+0xff92b0>
    1bfc:	00002737          	lui	a4,0x2
    1c00:	00f956b3          	srl	a3,s2,a5
    1c04:	2dc70713          	addi	a4,a4,732 # 22dc <__clz_tab>
    1c08:	00e68733          	add	a4,a3,a4
    1c0c:	00074703          	lbu	a4,0(a4)
    1c10:	02000513          	li	a0,32
    1c14:	00f707b3          	add	a5,a4,a5
    1c18:	40f50a33          	sub	s4,a0,a5
    1c1c:	2c0a1663          	bnez	s4,1ee8 <__umoddi3+0x4b0>
    1c20:	01091b93          	slli	s7,s2,0x10
    1c24:	412484b3          	sub	s1,s1,s2
    1c28:	01095b13          	srli	s6,s2,0x10
    1c2c:	010bdb93          	srli	s7,s7,0x10
    1c30:	000b0593          	mv	a1,s6
    1c34:	00048513          	mv	a0,s1
    1c38:	43c000ef          	jal	2074 <__umodsi3>
    1c3c:	00050a93          	mv	s5,a0
    1c40:	000b0593          	mv	a1,s6
    1c44:	00048513          	mv	a0,s1
    1c48:	3e4000ef          	jal	202c <__udivsi3>
    1c4c:	000b8593          	mv	a1,s7
    1c50:	3b0000ef          	jal	2000 <__mulsi3>
    1c54:	010a9a93          	slli	s5,s5,0x10
    1c58:	0109d793          	srli	a5,s3,0x10
    1c5c:	0157e7b3          	or	a5,a5,s5
    1c60:	00a7f863          	bleu	a0,a5,1c70 <__umoddi3+0x238>
    1c64:	012787b3          	add	a5,a5,s2
    1c68:	0127e463          	bltu	a5,s2,1c70 <__umoddi3+0x238>
    1c6c:	36a7ee63          	bltu	a5,a0,1fe8 <__umoddi3+0x5b0>
    1c70:	40a78433          	sub	s0,a5,a0
    1c74:	000b0593          	mv	a1,s6
    1c78:	00040513          	mv	a0,s0
    1c7c:	3f8000ef          	jal	2074 <__umodsi3>
    1c80:	00050493          	mv	s1,a0
    1c84:	000b0593          	mv	a1,s6
    1c88:	00040513          	mv	a0,s0
    1c8c:	3a0000ef          	jal	202c <__udivsi3>
    1c90:	000b8593          	mv	a1,s7
    1c94:	36c000ef          	jal	2000 <__mulsi3>
    1c98:	01099793          	slli	a5,s3,0x10
    1c9c:	01049493          	slli	s1,s1,0x10
    1ca0:	0107d793          	srli	a5,a5,0x10
    1ca4:	0097e7b3          	or	a5,a5,s1
    1ca8:	00a7fa63          	bleu	a0,a5,1cbc <__umoddi3+0x284>
    1cac:	012787b3          	add	a5,a5,s2
    1cb0:	0127e663          	bltu	a5,s2,1cbc <__umoddi3+0x284>
    1cb4:	00a7f463          	bleu	a0,a5,1cbc <__umoddi3+0x284>
    1cb8:	012787b3          	add	a5,a5,s2
    1cbc:	40a78533          	sub	a0,a5,a0
    1cc0:	01455533          	srl	a0,a0,s4
    1cc4:	00000593          	li	a1,0
    1cc8:	0080006f          	j	1cd0 <__umoddi3+0x298>
    1ccc:	00040513          	mv	a0,s0
    1cd0:	04c12083          	lw	ra,76(sp)
    1cd4:	04812403          	lw	s0,72(sp)
    1cd8:	04412483          	lw	s1,68(sp)
    1cdc:	04012903          	lw	s2,64(sp)
    1ce0:	03c12983          	lw	s3,60(sp)
    1ce4:	03812a03          	lw	s4,56(sp)
    1ce8:	03412a83          	lw	s5,52(sp)
    1cec:	03012b03          	lw	s6,48(sp)
    1cf0:	02c12b83          	lw	s7,44(sp)
    1cf4:	02812c03          	lw	s8,40(sp)
    1cf8:	02412c83          	lw	s9,36(sp)
    1cfc:	02012d03          	lw	s10,32(sp)
    1d00:	01c12d83          	lw	s11,28(sp)
    1d04:	05010113          	addi	sp,sp,80
    1d08:	00008067          	ret
    1d0c:	0ff00713          	li	a4,255
    1d10:	00d73733          	sltu	a4,a4,a3
    1d14:	00371713          	slli	a4,a4,0x3
    1d18:	e69ff06f          	j	1b80 <__umoddi3+0x148>
    1d1c:	0ff00793          	li	a5,255
    1d20:	0127b7b3          	sltu	a5,a5,s2
    1d24:	00379793          	slli	a5,a5,0x3
    1d28:	ed5ff06f          	j	1bfc <__umoddi3+0x1c4>
    1d2c:	010007b7          	lui	a5,0x1000
    1d30:	00f637b3          	sltu	a5,a2,a5
    1d34:	0017c793          	xori	a5,a5,1
    1d38:	40f007b3          	neg	a5,a5
    1d3c:	0087f793          	andi	a5,a5,8
    1d40:	01078793          	addi	a5,a5,16 # 1000010 <_gp+0xff92b0>
    1d44:	d5dff06f          	j	1aa0 <__umoddi3+0x68>
    1d48:	016659b3          	srl	s3,a2,s6
    1d4c:	014696b3          	sll	a3,a3,s4
    1d50:	0136e9b3          	or	s3,a3,s3
    1d54:	0164dab3          	srl	s5,s1,s6
    1d58:	0109db93          	srli	s7,s3,0x10
    1d5c:	014496b3          	sll	a3,s1,s4
    1d60:	000b8593          	mv	a1,s7
    1d64:	016454b3          	srl	s1,s0,s6
    1d68:	000a8513          	mv	a0,s5
    1d6c:	00d4e4b3          	or	s1,s1,a3
    1d70:	01461933          	sll	s2,a2,s4
    1d74:	300000ef          	jal	2074 <__umodsi3>
    1d78:	00050c13          	mv	s8,a0
    1d7c:	000b8593          	mv	a1,s7
    1d80:	01099c93          	slli	s9,s3,0x10
    1d84:	000a8513          	mv	a0,s5
    1d88:	2a4000ef          	jal	202c <__udivsi3>
    1d8c:	010cdc93          	srli	s9,s9,0x10
    1d90:	00050593          	mv	a1,a0
    1d94:	00050d13          	mv	s10,a0
    1d98:	000c8513          	mv	a0,s9
    1d9c:	264000ef          	jal	2000 <__mulsi3>
    1da0:	010c1c13          	slli	s8,s8,0x10
    1da4:	0104d793          	srli	a5,s1,0x10
    1da8:	0187e7b3          	or	a5,a5,s8
    1dac:	01441433          	sll	s0,s0,s4
    1db0:	00a7fa63          	bleu	a0,a5,1dc4 <__umoddi3+0x38c>
    1db4:	013787b3          	add	a5,a5,s3
    1db8:	fffd0713          	addi	a4,s10,-1
    1dbc:	2137fe63          	bleu	s3,a5,1fd8 <__umoddi3+0x5a0>
    1dc0:	00070d13          	mv	s10,a4
    1dc4:	40a78ab3          	sub	s5,a5,a0
    1dc8:	000b8593          	mv	a1,s7
    1dcc:	000a8513          	mv	a0,s5
    1dd0:	2a4000ef          	jal	2074 <__umodsi3>
    1dd4:	00050c13          	mv	s8,a0
    1dd8:	000b8593          	mv	a1,s7
    1ddc:	000a8513          	mv	a0,s5
    1de0:	24c000ef          	jal	202c <__udivsi3>
    1de4:	00050593          	mv	a1,a0
    1de8:	00050a93          	mv	s5,a0
    1dec:	000c8513          	mv	a0,s9
    1df0:	210000ef          	jal	2000 <__mulsi3>
    1df4:	01049693          	slli	a3,s1,0x10
    1df8:	010c1c13          	slli	s8,s8,0x10
    1dfc:	0106d693          	srli	a3,a3,0x10
    1e00:	0186e4b3          	or	s1,a3,s8
    1e04:	00050793          	mv	a5,a0
    1e08:	00a4fa63          	bleu	a0,s1,1e1c <__umoddi3+0x3e4>
    1e0c:	013484b3          	add	s1,s1,s3
    1e10:	fffa8713          	addi	a4,s5,-1
    1e14:	1b34fa63          	bleu	s3,s1,1fc8 <__umoddi3+0x590>
    1e18:	00070a93          	mv	s5,a4
    1e1c:	00010737          	lui	a4,0x10
    1e20:	010d1d13          	slli	s10,s10,0x10
    1e24:	fff70b93          	addi	s7,a4,-1 # ffff <_gp+0x929f>
    1e28:	015d6ab3          	or	s5,s10,s5
    1e2c:	017afdb3          	and	s11,s5,s7
    1e30:	01797bb3          	and	s7,s2,s7
    1e34:	000b8593          	mv	a1,s7
    1e38:	000d8513          	mv	a0,s11
    1e3c:	00e12623          	sw	a4,12(sp)
    1e40:	40f484b3          	sub	s1,s1,a5
    1e44:	010ada93          	srli	s5,s5,0x10
    1e48:	1b8000ef          	jal	2000 <__mulsi3>
    1e4c:	00050c93          	mv	s9,a0
    1e50:	000b8593          	mv	a1,s7
    1e54:	000a8513          	mv	a0,s5
    1e58:	1a8000ef          	jal	2000 <__mulsi3>
    1e5c:	01095c13          	srli	s8,s2,0x10
    1e60:	00050d13          	mv	s10,a0
    1e64:	000c0593          	mv	a1,s8
    1e68:	000a8513          	mv	a0,s5
    1e6c:	194000ef          	jal	2000 <__mulsi3>
    1e70:	00050a93          	mv	s5,a0
    1e74:	000c0593          	mv	a1,s8
    1e78:	000d8513          	mv	a0,s11
    1e7c:	184000ef          	jal	2000 <__mulsi3>
    1e80:	01a50533          	add	a0,a0,s10
    1e84:	010cd613          	srli	a2,s9,0x10
    1e88:	00a60533          	add	a0,a2,a0
    1e8c:	00c12703          	lw	a4,12(sp)
    1e90:	01a57463          	bleu	s10,a0,1e98 <__umoddi3+0x460>
    1e94:	00ea8ab3          	add	s5,s5,a4
    1e98:	00010637          	lui	a2,0x10
    1e9c:	fff60813          	addi	a6,a2,-1 # ffff <_gp+0x929f>
    1ea0:	01055593          	srli	a1,a0,0x10
    1ea4:	01057533          	and	a0,a0,a6
    1ea8:	01051613          	slli	a2,a0,0x10
    1eac:	010cf733          	and	a4,s9,a6
    1eb0:	015585b3          	add	a1,a1,s5
    1eb4:	00e60733          	add	a4,a2,a4
    1eb8:	0eb4ec63          	bltu	s1,a1,1fb0 <__umoddi3+0x578>
    1ebc:	12b48a63          	beq	s1,a1,1ff0 <__umoddi3+0x5b8>
    1ec0:	40b487b3          	sub	a5,s1,a1
    1ec4:	00070613          	mv	a2,a4
    1ec8:	40c40633          	sub	a2,s0,a2
    1ecc:	00c435b3          	sltu	a1,s0,a2
    1ed0:	40b785b3          	sub	a1,a5,a1
    1ed4:	01659533          	sll	a0,a1,s6
    1ed8:	01465633          	srl	a2,a2,s4
    1edc:	00c56533          	or	a0,a0,a2
    1ee0:	0145d5b3          	srl	a1,a1,s4
    1ee4:	dedff06f          	j	1cd0 <__umoddi3+0x298>
    1ee8:	01491933          	sll	s2,s2,s4
    1eec:	00f4db33          	srl	s6,s1,a5
    1ef0:	01095a93          	srli	s5,s2,0x10
    1ef4:	00f457b3          	srl	a5,s0,a5
    1ef8:	000a8593          	mv	a1,s5
    1efc:	014494b3          	sll	s1,s1,s4
    1f00:	000b0513          	mv	a0,s6
    1f04:	0097ec33          	or	s8,a5,s1
    1f08:	16c000ef          	jal	2074 <__umodsi3>
    1f0c:	00050993          	mv	s3,a0
    1f10:	000a8593          	mv	a1,s5
    1f14:	01091b93          	slli	s7,s2,0x10
    1f18:	000b0513          	mv	a0,s6
    1f1c:	110000ef          	jal	202c <__udivsi3>
    1f20:	010bdb93          	srli	s7,s7,0x10
    1f24:	00050593          	mv	a1,a0
    1f28:	000b8513          	mv	a0,s7
    1f2c:	01099993          	slli	s3,s3,0x10
    1f30:	0d0000ef          	jal	2000 <__mulsi3>
    1f34:	010c5713          	srli	a4,s8,0x10
    1f38:	01376733          	or	a4,a4,s3
    1f3c:	014419b3          	sll	s3,s0,s4
    1f40:	00a77a63          	bleu	a0,a4,1f54 <__umoddi3+0x51c>
    1f44:	01270733          	add	a4,a4,s2
    1f48:	01276663          	bltu	a4,s2,1f54 <__umoddi3+0x51c>
    1f4c:	00a77463          	bleu	a0,a4,1f54 <__umoddi3+0x51c>
    1f50:	01270733          	add	a4,a4,s2
    1f54:	40a70b33          	sub	s6,a4,a0
    1f58:	000a8593          	mv	a1,s5
    1f5c:	000b0513          	mv	a0,s6
    1f60:	114000ef          	jal	2074 <__umodsi3>
    1f64:	00050413          	mv	s0,a0
    1f68:	000a8593          	mv	a1,s5
    1f6c:	000b0513          	mv	a0,s6
    1f70:	0bc000ef          	jal	202c <__udivsi3>
    1f74:	00050593          	mv	a1,a0
    1f78:	000b8513          	mv	a0,s7
    1f7c:	084000ef          	jal	2000 <__mulsi3>
    1f80:	010c1793          	slli	a5,s8,0x10
    1f84:	01041413          	slli	s0,s0,0x10
    1f88:	0107d793          	srli	a5,a5,0x10
    1f8c:	0087e7b3          	or	a5,a5,s0
    1f90:	00a7fa63          	bleu	a0,a5,1fa4 <__umoddi3+0x56c>
    1f94:	012787b3          	add	a5,a5,s2
    1f98:	0127e663          	bltu	a5,s2,1fa4 <__umoddi3+0x56c>
    1f9c:	00a7f463          	bleu	a0,a5,1fa4 <__umoddi3+0x56c>
    1fa0:	012787b3          	add	a5,a5,s2
    1fa4:	40a784b3          	sub	s1,a5,a0
    1fa8:	000a8b13          	mv	s6,s5
    1fac:	c85ff06f          	j	1c30 <__umoddi3+0x1f8>
    1fb0:	41270633          	sub	a2,a4,s2
    1fb4:	413587b3          	sub	a5,a1,s3
    1fb8:	00c73733          	sltu	a4,a4,a2
    1fbc:	40e78733          	sub	a4,a5,a4
    1fc0:	40e487b3          	sub	a5,s1,a4
    1fc4:	f05ff06f          	j	1ec8 <__umoddi3+0x490>
    1fc8:	e4a4f8e3          	bleu	a0,s1,1e18 <__umoddi3+0x3e0>
    1fcc:	ffea8a93          	addi	s5,s5,-2
    1fd0:	013484b3          	add	s1,s1,s3
    1fd4:	e49ff06f          	j	1e1c <__umoddi3+0x3e4>
    1fd8:	dea7f4e3          	bleu	a0,a5,1dc0 <__umoddi3+0x388>
    1fdc:	ffed0d13          	addi	s10,s10,-2
    1fe0:	013787b3          	add	a5,a5,s3
    1fe4:	de1ff06f          	j	1dc4 <__umoddi3+0x38c>
    1fe8:	012787b3          	add	a5,a5,s2
    1fec:	c85ff06f          	j	1c70 <__umoddi3+0x238>
    1ff0:	fce460e3          	bltu	s0,a4,1fb0 <__umoddi3+0x578>
    1ff4:	00070613          	mv	a2,a4
    1ff8:	00000793          	li	a5,0
    1ffc:	ecdff06f          	j	1ec8 <__umoddi3+0x490>

00002000 <__mulsi3>:
    2000:	00050613          	mv	a2,a0
    2004:	00000513          	li	a0,0
    2008:	01f59693          	slli	a3,a1,0x1f
    200c:	0006d463          	bgez	a3,2014 <__mulsi3+0x14>
    2010:	00c50533          	add	a0,a0,a2
    2014:	0015d593          	srli	a1,a1,0x1
    2018:	00161613          	slli	a2,a2,0x1
    201c:	fe0596e3          	bnez	a1,2008 <__mulsi3+0x8>
    2020:	00008067          	ret

00002024 <__divsi3>:
    2024:	06054063          	bltz	a0,2084 <__umodsi3+0x10>
    2028:	0605c663          	bltz	a1,2094 <__umodsi3+0x20>

0000202c <__udivsi3>:
    202c:	00058613          	mv	a2,a1
    2030:	00050593          	mv	a1,a0
    2034:	fff00513          	li	a0,-1
    2038:	02060c63          	beqz	a2,2070 <__udivsi3+0x44>
    203c:	00100693          	li	a3,1
    2040:	00b67a63          	bleu	a1,a2,2054 <__udivsi3+0x28>
    2044:	00c05863          	blez	a2,2054 <__udivsi3+0x28>
    2048:	00161613          	slli	a2,a2,0x1
    204c:	00169693          	slli	a3,a3,0x1
    2050:	feb66ae3          	bltu	a2,a1,2044 <__udivsi3+0x18>
    2054:	00000513          	li	a0,0
    2058:	00c5e663          	bltu	a1,a2,2064 <__udivsi3+0x38>
    205c:	40c585b3          	sub	a1,a1,a2
    2060:	00d56533          	or	a0,a0,a3
    2064:	0016d693          	srli	a3,a3,0x1
    2068:	00165613          	srli	a2,a2,0x1
    206c:	fe0696e3          	bnez	a3,2058 <__udivsi3+0x2c>
    2070:	00008067          	ret

00002074 <__umodsi3>:
    2074:	00008293          	mv	t0,ra
    2078:	fb5ff0ef          	jal	202c <__udivsi3>
    207c:	00058513          	mv	a0,a1
    2080:	00028067          	jr	t0
    2084:	40a00533          	neg	a0,a0
    2088:	0005d863          	bgez	a1,2098 <__umodsi3+0x24>
    208c:	40b005b3          	neg	a1,a1
    2090:	f95ff06f          	j	2024 <__divsi3>
    2094:	40b005b3          	neg	a1,a1
    2098:	00008293          	mv	t0,ra
    209c:	f89ff0ef          	jal	2024 <__divsi3>
    20a0:	40a00533          	neg	a0,a0
    20a4:	00028067          	jr	t0

000020a8 <__modsi3>:
    20a8:	00008293          	mv	t0,ra
    20ac:	0005ca63          	bltz	a1,20c0 <__modsi3+0x18>
    20b0:	00054c63          	bltz	a0,20c8 <__modsi3+0x20>
    20b4:	f79ff0ef          	jal	202c <__udivsi3>
    20b8:	00058513          	mv	a0,a1
    20bc:	00028067          	jr	t0
    20c0:	40b005b3          	neg	a1,a1
    20c4:	fe0558e3          	bgez	a0,20b4 <__modsi3+0xc>
    20c8:	40a00533          	neg	a0,a0
    20cc:	f61ff0ef          	jal	202c <__udivsi3>
    20d0:	40b00533          	neg	a0,a1
    20d4:	00028067          	jr	t0

Disassembly of section .text.startup:

000020d8 <main>:
    20d8:	ff010113          	addi	sp,sp,-16
    20dc:	00812423          	sw	s0,8(sp)
    20e0:	00912223          	sw	s1,4(sp)
    20e4:	00004437          	lui	s0,0x4
    20e8:	000014b7          	lui	s1,0x1
    20ec:	01212023          	sw	s2,0(sp)
    20f0:	80048513          	addi	a0,s1,-2048 # 800 <vprintfmt+0x198>
    20f4:	56040593          	addi	a1,s0,1376 # 4560 <verify_data>
    20f8:	00002937          	lui	s2,0x2
    20fc:	00112623          	sw	ra,12(sp)
    2100:	b68fe0ef          	jal	468 <sort>
    2104:	56090513          	addi	a0,s2,1376 # 2560 <input_data>
    2108:	b10fe0ef          	jal	418 <verify.constprop.2>
    210c:	02050063          	beqz	a0,212c <main+0x54>
    2110:	00c12083          	lw	ra,12(sp)
    2114:	00100513          	li	a0,1
    2118:	00812403          	lw	s0,8(sp)
    211c:	00412483          	lw	s1,4(sp)
    2120:	00012903          	lw	s2,0(sp)
    2124:	01010113          	addi	sp,sp,16
    2128:	00008067          	ret
    212c:	00100513          	li	a0,1
    2130:	d8dfe0ef          	jal	ebc <setStats>
    2134:	56090593          	addi	a1,s2,1376
    2138:	80048513          	addi	a0,s1,-2048
    213c:	b2cfe0ef          	jal	468 <sort>
    2140:	00000513          	li	a0,0
    2144:	d79fe0ef          	jal	ebc <setStats>
    2148:	56040513          	addi	a0,s0,1376
    214c:	00c12083          	lw	ra,12(sp)
    2150:	00812403          	lw	s0,8(sp)
    2154:	00412483          	lw	s1,4(sp)
    2158:	00012903          	lw	s2,0(sp)
    215c:	01010113          	addi	sp,sp,16
    2160:	ab8fe06f          	j	418 <verify.constprop.2>
    2164:	000025b7          	lui	a1,0x2
    2168:	04000893          	li	a7,64
    216c:	00100513          	li	a0,1
    2170:	47458593          	addi	a1,a1,1140 # 2474 <__clz_tab+0x198>
    2174:	01700613          	li	a2,23
    2178:	00000073          	ecall
    217c:	fff00513          	li	a0,-1
    2180:	00008067          	ret

Disassembly of section .data:

00002560 <input_data>:
    2560:	24a4                	srai	s1,s1,0x9
    2562:	0554                	mv	a0,s5
    2564:	cef4                	lw	a3,92(a3)
    2566:	3a2c                	srai	s4,s4,0x2b
    2568:	4a64                	sw	s1,84(a2)
    256a:	97196adb          	0x97196adb
    256e:	2b01                	srli	s6,s6,0x0
    2570:	f4ee                	andi	s1,s1,-5
    2572:	4861                	sw	s8,16(sp)
    2574:	0039e5ef          	jal	a1,a0d76 <_gp+0x9a016>
    2578:	eeec                	0xeeec
    257a:	1802                	j	217a <main+0xa2>
    257c:	8b3e                	li	s6,15
    257e:	7ec6                	bnez	a3,256e <input_data+0xe>
    2580:	4a40                	sw	s0,20(a2)
    2582:	6010                	xor	s0,s0,a2
    2584:	0df8                	mv	s11,t5
    2586:	2ee2                	jal	2cde <input_data+0x77e>
    2588:	6b72                	bnez	a4,2624 <input_data+0xc4>
    258a:	2cf4                	srai	s9,s9,0x1d
    258c:	49635f53          	0x49635f53
    2590:	8979                	andi	a4,a0,2
    2592:	9b6810f7          	0x9b6810f7
    2596:	0836                	j	29c2 <input_data+0x462>
    2598:	79b5933b          	0x79b5933b
    259c:	db86                	addi	s7,s7,-31
    259e:	ca5913a7          	fsh	ft5,-857(s2)
    25a2:	4ad5                	sw	s5,84(sp)
    25a4:	28d5                	srli	a7,a7,0x15
    25a6:	1bb9                	slli	s7,s7,0x2e
    25a8:	72c2                	bnez	a3,24b8 <__clz_tab+0x1dc>
    25aa:	04bd673b          	0x4bd673b
    25ae:	9f1011fb          	0x9f1011fb
    25b2:	4f9f 88d5 1afe      	0x1afe88d54f9f
    25b8:	8b4c                	sub	s6,s6,s3
    25ba:	d92d00d7          	0xd92d00d7
    25be:	4961                	sw	s8,144(sp)
    25c0:	8a60                	sub	s4,s4,s8
    25c2:	7761                	bltz	a4,251a <__clz_tab+0x23e>
    25c4:	d1e1                	lw	gp,56(sp)
    25c6:	ee242b8f          	0xee242b8f
    25ca:	720e                	bnez	a2,24ec <__clz_tab+0x210>
    25cc:	040c                	mv	s0,gp
    25ce:	4c04                	sw	s1,24(s0)
    25d0:	6e71                	bltz	a2,26ac <input_data+0x14c>
    25d2:	324a                	jal	1ee4 <__umoddi3+0x4ac>
    25d4:	0655                	slli	a2,a2,0x15
    25d6:	731d                	bltz	a4,24fc <__clz_tab+0x220>
    25d8:	917d                	andi	a5,a0,-4
    25da:	58f5                	sw	t4,112(sp)
    25dc:	da5f 1d42 de31      	0xde311d42da5f
    25e2:	7b31                	bltz	a4,256e <input_data+0xe>
    25e4:	fa95                	bgez	a3,2588 <input_data+0x28>
    25e6:	018a                	j	26a8 <input_data+0x148>
    25e8:	d8e0                	lw	s0,116(s1)
    25ea:	12ec0e33          	0x12ec0e33
    25ee:	712a                	bnez	a0,24f8 <__clz_tab+0x21c>
    25f0:	db66                	addi	s6,s6,-7
    25f2:	0ef1                	slli	t4,t4,0x1c
    25f4:	3b49                	srli	s6,s6,0x32
    25f6:	601e                	bnez	s0,261c <input_data+0xbc>
    25f8:	2601eb4f          	0x2601eb4f
    25fc:	cb54                	lw	a3,20(a4)
    25fe:	52c6                	beqz	a3,252e <__clz_tab+0x252>
    2600:	2b51                	srli	s6,s6,0x14
    2602:	369a                	jal	2148 <main+0x70>
    2604:	d5c8                	lw	a0,44(a1)
    2606:	401e                	beqz	s0,262c <input_data+0xcc>
    2608:	10f8                	add	ra,ra,t5
    260a:	2844                	srai	a6,a6,0x11
    260c:	8c39                	xori	a4,s0,3
    260e:	37e8                	srai	a5,a5,0x3a
    2610:	0c00                	li	s8,0
    2612:	547c                	sw	a5,108(s0)
    2614:	0492                	j	2858 <input_data+0x2f8>
    2616:	59ed                	sw	s11,240(sp)
    2618:	632cf297          	auipc	t0,0x632cf
    261c:	1e9a                	j	2562 <input_data+0x2>
    261e:	6819                	bltz	s0,26a4 <input_data+0x144>
    2620:	b431                	addi	a2,sp,552
    2622:	e1f728ef          	jal	a7,fff75440 <_gp+0xfff6e6e0>
    2626:	7dbc                	0x7dbc
    2628:	3468                	srai	s0,s0,0x3a
    262a:	56fe                	beqz	a3,25a8 <input_data+0x48>
    262c:	2441                	srli	s0,s0,0x10
    262e:	a7de1353          	0xa7de1353
    2632:	7021                	bltz	s0,253a <__clz_tab+0x25e>
    2634:	62d6                	bnez	a3,2668 <input_data+0x108>
    2636:	86c8592f          	0x86c8592f
    263a:	304d                	0x304d
    263c:	8551                	ori	a2,a0,1
    263e:	484c                	sw	a1,20(s0)
    2640:	8b6a                	li	s6,26
    2642:	3ccc                	srai	s9,s9,0x33
    2644:	fb81                	bgez	a5,25c4 <input_data+0x64>
    2646:	22e0                	srai	t0,t0,0x18
    2648:	783be667          	0x783be667
    264c:	2128e503          	0x2128e503
    2650:	bf66                	lui	t5,0xffff9
    2652:	4524                	sw	s1,72(a0)
    2654:	52ea70bb          	0x52ea70bb
    2658:	662c                	srl	a2,a2,a1
    265a:	48ee                	beqz	s1,2714 <input_data+0x1b4>
    265c:	6f6a                	bnez	a4,2736 <input_data+0x1d6>
    265e:	4139                	sw	a4,128(sp)
    2660:	af00                	add	a1,a4,s0
    2662:	1a05                	slli	s4,s4,0x21
    2664:	0b5676e3          	bleu	s5,a2,2f10 <input_data+0x9b0>
    2668:	7ca6                	bnez	s1,2650 <input_data+0xf0>
    266a:	727123f3          	csrrs	t2,0x727,sp
    266e:	5a32                	beqz	a2,25fa <input_data+0x9a>
    2670:	5b08                	sw	a0,48(a4)
    2672:	6145                	bltz	a0,26a2 <input_data+0x142>
    2674:	e12a                	andi	sp,sp,10
    2676:	55d6                	beqz	a1,25ea <input_data+0x8a>
    2678:	6f29                	bltz	a4,2742 <input_data+0x1e2>
    267a:	4db5                	sw	a3,216(sp)
    267c:	301453e7          	0x301453e7
    2680:	4ba0                	sw	s0,80(a5)
    2682:	4191                	sw	tp,192(sp)
    2684:	42ff                	0x42ff
    2686:	46ae                	beqz	a3,26f0 <input_data+0x190>
    2688:	148d                	slli	s1,s1,0x23
    268a:	544a                	beqz	s0,25dc <input_data+0x7c>
    268c:	96b1                	xori	a2,a3,-3
    268e:	780c                	0x780c
    2690:	b280                	add	a2,a3,s0
    2692:	1900                	add	s2,s2,zero
    2694:	058c                	mv	a1,gp
    2696:	c97f4bef          	jal	s7,ffff732c <_gp+0xffff05cc>
    269a:	0a79                	slli	s4,s4,0x1e
    269c:	c11e                	addi	sp,sp,7
    269e:	48ec                	sw	a1,84(s1)
    26a0:	27e4                	srai	a5,a5,0x19
    26a2:	223a                	jal	27b0 <input_data+0x250>
    26a4:	135a                	j	203a <__udivsi3+0xe>
    26a6:	79ff                	0x79ff
    26a8:	1082                	j	1ee8 <__umoddi3+0x4b0>
    26aa:	16571d5b          	0x16571d5b
    26ae:	66a0                	srl	a3,a3,s0
    26b0:	0c12                	j	2cb4 <input_data+0x754>
    26b2:	2b48                	srai	s6,s6,0x12
    26b4:	5c10                	sw	a2,56(s0)
    26b6:	4adf f786 78fd      	0x78fdf7864adf
    26bc:	34f5                	srli	s1,s1,0x3d
    26be:	5266                	beqz	a2,25f6 <input_data+0x96>
    26c0:	739d378b          	0x739d378b
    26c4:	9259                	ori	a4,a2,-4
    26c6:	2f28                	srai	t5,t5,0xa
    26c8:	1ef9fd23          	0x1ef9fd23
    26cc:	ccad                	lw	s9,200(sp)
    26ce:	43cd3ea7          	fsd	ft8,1085(s10)
    26d2:	74fc                	0x74fc
    26d4:	2a22a5e3          	0x2a22a5e3
    26d8:	cf72                	addi	t5,t5,28
    26da:	69e2                	bnez	a1,2772 <input_data+0x212>
    26dc:	281bbd27          	fsd	ft1,666(s7)
    26e0:	778e56c3          	0x778e56c3
    26e4:	4bf29b83          	lh	s7,1215(t0) # 632d1ad7 <_gp+0x632cad77>
    26e8:	de88                	lw	a0,56(a3)
    26ea:	0fec7e53          	0xfec7e53
    26ee:	31c6                	jal	1fde <__umoddi3+0x5a6>
    26f0:	191afacb          	fnmsub.s	fs5,fs5,fa7,ft3
    26f4:	8575                	andi	a3,a0,1
    26f6:	45b2                	beqz	a1,2742 <input_data+0x1e2>
    26f8:	5c90                	sw	a2,56(s1)
    26fa:	7b08                	0x7b08
    26fc:	5f7c                	sw	a5,124(a4)
    26fe:	2d61533f 7dc148a1 	0x7dc148a12d61533f
    2706:	7d81                	bltz	a1,26c6 <input_data+0x166>
    2708:	e584                	0xe584
    270a:	2cf4                	srai	s9,s9,0x1d
    270c:	5d7f                	0x5d7f
    270e:	7fca                	bnez	a5,26e0 <input_data+0x180>
    2710:	6e6c                	sltu	a1,a2,a1
    2712:	532a                	beqz	a4,261c <input_data+0xbc>
    2714:	a4ba                	lui	s1,0xe
    2716:	6855                	bltz	s0,27ca <input_data+0x26a>
    2718:	a888                	add	a0,s1,a0
    271a:	5431                	sw	a2,40(sp)
    271c:	4a15                	sw	t0,20(sp)
    271e:	0a26                	j	2c46 <input_data+0x6e6>
    2720:	3a26                	jal	2448 <__clz_tab+0x16c>
    2722:	45a11733          	0x45a11733
    2726:	1ab8                	add	s5,s5,a4
    2728:	0e578ce3          	beq	a5,t0,3020 <input_data+0xac0>
    272c:	4e46                	beqz	a2,281c <input_data+0x2bc>
    272e:	7fe8                	0x7fe8
    2730:	f7a0                	0xf7a0
    2732:	6e10                	sll	a2,a2,a2
    2734:	6366                	bnez	a4,276c <input_data+0x20c>
    2736:	50b4                	sw	a3,96(s1)
    2738:	08606c9b          	0x8606c9b
    273c:	cb9d                	lw	s7,196(sp)
    273e:	6c92                	bnez	s1,2802 <input_data+0x2a2>
    2740:	05f9                	slli	a1,a1,0x1e
    2742:	24f4                	srai	s1,s1,0x1d
    2744:	0f8e                	j	2f26 <input_data+0x9c6>
    2746:	5a42                	beqz	a2,26d6 <input_data+0x176>
    2748:	2cc21eab          	0x2cc21eab
    274c:	d2d0                	lw	a2,36(a3)
    274e:	7fc0                	0x7fc0
    2750:	321c                	srai	tp,tp,0x27
    2752:	1225                	slli	tp,tp,0x29
    2754:	0d30                	mv	s10,a2
    2756:	207d                	0x207d
    2758:	aae2                	lui	s5,0x18
    275a:	73fd                	bltz	a5,2698 <input_data+0x138>
    275c:	1398                	add	t2,t2,t1
    275e:	5bad                	sw	a1,244(sp)
    2760:	7f30                	0x7f30
    2762:	7188                	0x7188
    2764:	6219                	bltz	a2,276a <input_data+0x20a>
    2766:	a15d371b          	0xa15d371b
    276a:	b79f21d7          	0xb79f21d7
    276e:	353e                	jal	221c <main+0x144>
    2770:	cba1                	lw	s7,8(sp)
    2772:	980f49e3          	bltz	t5,2104 <main+0x2c>
    2776:	4500                	sw	s0,8(a0)
    2778:	2f96                	jal	2f5c <input_data+0x9fc>
    277a:	7d84                	0x7d84
    277c:	59bbba97          	auipc	s5,0x59bbb
    2780:	7cc8                	0x7cc8
    2782:	6186                	bnez	a1,27a2 <input_data+0x242>
    2784:	00949033          	sll	zero,s1,s1
    2788:	2d32                	jal	2e14 <input_data+0x8b4>
    278a:	1ee1                	slli	t4,t4,0x38
    278c:	7168                	0x7168
    278e:	fb3a3f67          	0xfb3a3f67
    2792:	ea803d57          	0xea803d57
    2796:	0cd0                	mv	s9,s4
    2798:	fa46                	andi	s4,s4,-15
    279a:	4001                	sw	zero,0(sp)
    279c:	1281                	slli	t0,t0,0x20
    279e:	6ecd                	bltz	a3,2890 <input_data+0x330>
    27a0:	69aa                	bnez	a1,282a <input_data+0x2ca>
    27a2:	33a5                	srli	t2,t2,0x29
    27a4:	58e6236f          	jal	t1,64d32 <_gp+0x5dfd2>
    27a8:	a960                	and	a0,a0,s0
    27aa:	1c74                	add	s8,s8,t4
    27ac:	3150                	srai	sp,sp,0x34
    27ae:	3561                	srli	a0,a0,0x38
    27b0:	a07c                	and	s0,s0,a5
    27b2:	a9bd38e3          	0xa9bd38e3
    27b6:	2609                	srli	a2,a2,0x2
    27b8:	8f18                	sub	t5,t5,t1
    27ba:	5c65                	sw	s9,56(sp)
    27bc:	3ecd                	srli	t4,t4,0x33
    27be:	24a2                	jal	2a06 <input_data+0x4a6>
    27c0:	17e6                	j	23b8 <__clz_tab+0xdc>
    27c2:	56a1                	sw	s0,108(sp)
    27c4:	4e44                	sw	s1,28(a2)
    27c6:	4f90                	sw	a2,24(a5)
    27c8:	28bdf153          	0x28bdf153
    27cc:	4130                	sw	a2,64(a0)
    27ce:	0ac50a0f          	0xac50a0f
    27d2:	1cb4                	add	s9,s9,a3
    27d4:	9006                	0x9006
    27d6:	2d0c                	srai	s10,s10,0x3
    27d8:	3012                	jal	1fdc <__umoddi3+0x5a4>
    27da:	782c                	0x782c
    27dc:	14c2                	j	222c <main+0x154>
    27de:	454d                	sw	s3,136(sp)
    27e0:	bbfa                	lui	s7,0xffffe
    27e2:	664924eb          	0x664924eb
    27e6:	52de                	beqz	a3,271c <input_data+0x1bc>
    27e8:	61f6                	bnez	a1,2824 <input_data+0x2c4>
    27ea:	a7d10f4f          	0xa7d10f4f
    27ee:	15c5                	slli	a1,a1,0x31
    27f0:	687e                	bnez	s0,28ae <input_data+0x34e>
    27f2:	4ed0                	sw	a2,28(a3)
    27f4:	4adc                	sw	a5,20(a3)
    27f6:	439a                	beqz	a5,27fc <input_data+0x29c>
    27f8:	fe51                	bgez	a2,27cc <input_data+0x26c>
    27fa:	4da5                	sw	s1,216(sp)
    27fc:	c3bd                	lw	t2,204(sp)
    27fe:	2511                	srli	a0,a0,0x4
    2800:	100a                	j	2002 <__mulsi3+0x2>
    2802:	31ec                	srai	gp,gp,0x3b
    2804:	66076677          	0x66076677
    2808:	ceea                	addi	t4,t4,26
    280a:	2cfe                	jal	2e88 <input_data+0x928>
    280c:	152e                	j	22b6 <main+0x1de>
    280e:	66b5                	bltz	a3,287a <input_data+0x31a>
    2810:	de5c                	lw	a5,60(a2)
    2812:	3a4e                	jal	2544 <__clz_tab+0x268>
    2814:	e140                	0xe140
    2816:	5c50                	sw	a2,60(s0)
    2818:	034d                	slli	t1,t1,0x13
    281a:	23a5                	srli	t2,t2,0x9
    281c:	4569                	sw	s10,136(sp)
    281e:	613d                	bltz	a0,284c <input_data+0x2ec>
    2820:	9f26                	li	t5,-23
    2822:	2f24                	srai	t5,t5,0x9
    2824:	796a                	bnez	a0,27be <input_data+0x25e>
    2826:	5f84                	sw	s1,56(a5)
    2828:	2df3dfcb          	fnmsub.h	ft11,ft7,ft11,ft5,unknown
    282c:	16b9                	slli	a3,a3,0x2e
    282e:	0bd0                	mv	s7,s4
    2830:	4699                	sw	t1,76(sp)
    2832:	4add                	sw	s7,84(sp)
    2834:	a1f8                	and	s0,a1,a4
    2836:	7eb8                	0x7eb8
    2838:	2215                	srli	tp,tp,0x5
    283a:	080c                	mv	a6,gp
    283c:	9608                	0x9608
    283e:	22c1                	srli	t0,t0,0x10
    2840:	3888                	srai	a7,a7,0x22
    2842:	7e41                	bltz	a2,2812 <input_data+0x2b2>
    2844:	8b9f 6d56 d570      	0xd5706d568b9f
    284a:	33ac                	srai	t2,t2,0x2b
    284c:	938e                	li	t2,-29
    284e:	650a                	bnez	a0,2890 <input_data+0x330>
    2850:	983d                	xori	a5,s0,-2
    2852:	2c6a                	jal	2e6c <input_data+0x90c>
    2854:	99ca                	li	s3,-14
    2856:	4428                	sw	a0,72(s0)
    2858:	f095                	bgez	s1,277c <input_data+0x21c>
    285a:	4252                	beqz	a2,286e <input_data+0x30e>
    285c:	b4a9                	addi	a0,sp,616
    285e:	1c88                	add	s9,s9,sp
    2860:	8ad5                	ori	a3,a3,2
    2862:	e5b747a7          	0xe5b747a7
    2866:	b7293b13          	sltiu	s6,s2,-1166
    286a:	745e                	bnez	s0,27e0 <input_data+0x280>
    286c:	1ef490c3          	0x1ef490c3
    2870:	f658                	0xf658
    2872:	635d                	bltz	a4,28a8 <input_data+0x348>
    2874:	2deb91bf 20b378d4 	0x20b378d42deb91bf
    287c:	2a8f6b6f          	jal	s6,f8b24 <_gp+0xf1dc4>
    2880:	e759                	bgez	a4,28d6 <input_data+0x376>
    2882:	ceb263c7          	0xceb263c7
    2886:	57b6                	beqz	a5,27f2 <input_data+0x292>
    2888:	e800                	0xe800
    288a:	4cb5                	sw	a3,88(sp)
    288c:	3d98                	srai	s11,s11,0x26
    288e:	5ed1                	sw	s4,124(sp)
    2890:	6746                	bnez	a4,2900 <input_data+0x3a0>
    2892:	1268                	add	tp,tp,s10
    2894:	9561                	andi	s0,a0,-3
    2896:	392e                	jal	2540 <__clz_tab+0x264>
    2898:	e231                	bgez	a2,28a4 <input_data+0x344>
    289a:	0456                	j	2ace <input_data+0x56e>
    289c:	dfd0                	lw	a2,60(a5)
    289e:	27f8                	srai	a5,a5,0x1e
    28a0:	2d4e                	jal	2f52 <input_data+0x9f2>
    28a2:	3635100b          	0x3635100b
    28a6:	5f46                	beqz	a4,2896 <input_data+0x336>
    28a8:	23fa                	jal	2a86 <input_data+0x526>
    28aa:	789c                	0x789c
    28ac:	47c5                	sw	a7,204(sp)
    28ae:	33eb476b          	0x33eb476b
    28b2:	779e                	bnez	a5,2818 <input_data+0x2b8>
    28b4:	00fc                	mv	ra,t6
    28b6:	3d62                	jal	274e <input_data+0x1ee>
    28b8:	02a2                	j	2a00 <input_data+0x4a0>
    28ba:	6676                	bnez	a2,2936 <input_data+0x3d6>
    28bc:	476bead3          	0x476bead3
    28c0:	46dadd13          	0x46dadd13
    28c4:	66c4                	slt	a3,a3,s1
    28c6:	7691                	bltz	a3,280a <input_data+0x2aa>
    28c8:	e555                	bgez	a0,293c <input_data+0x3dc>
    28ca:	3748                	srai	a4,a4,0x32
    28cc:	77b2                	bnez	a5,2818 <input_data+0x2b8>
    28ce:	eef76607          	0xeef76607
    28d2:	5324                	sw	s1,96(a4)
    28d4:	17e0                	add	a5,a5,s8
    28d6:	2dd6                	jal	2fca <input_data+0xa6a>
    28d8:	d7ff                	0xd7ff
    28da:	7a02                	bnez	a2,285a <input_data+0x2fa>
    28dc:	3950                	srai	s2,s2,0x34
    28de:	5376722b          	0x5376722b
    28e2:	24e0                	srai	s1,s1,0x18
    28e4:	5557c007          	0x5557c007
    28e8:	31ca                	jal	21ba <main+0xe2>
    28ea:	0281                	slli	t0,t0,0x0
    28ec:	94ba                	li	s1,-18
    28ee:	41f6                	beqz	a1,292a <input_data+0x3ca>
    28f0:	2422                	jal	2af8 <input_data+0x598>
    28f2:	229c0663          	beq	s8,s1,2b1e <input_data+0x5be>
    28f6:	477c                	sw	a5,76(a4)
    28f8:	0b0fe933          	0xb0fe933
    28fc:	6f793433          	0x6f793433
    2900:	2cec                	srai	s9,s9,0x1b
    2902:	0c38                	mv	s8,a4
    2904:	7909                	bltz	a0,2886 <input_data+0x326>
    2906:	6d55                	bltz	a0,29fa <input_data+0x49a>
    2908:	cfc9                	lw	t6,144(sp)
    290a:	9167388b          	0x9167388b
    290e:	af6d3867          	0xaf6d3867
    2912:	4b3e                	beqz	a4,29c0 <input_data+0x460>
    2914:	1545                	slli	a0,a0,0x31
    2916:	07d5                	slli	a5,a5,0x15
    2918:	8f85                	addi	s1,a5,3
    291a:	4eca                	beqz	a3,29ec <input_data+0x48c>
    291c:	b0b9                	addi	a4,sp,104
    291e:	56f8                	sw	a4,108(a3)
    2920:	d0d4                	lw	a3,36(s1)
    2922:	30f6                	jal	219e <main+0xc6>
    2924:	6a74                	0x6a74
    2926:	32ce                	jal	2298 <main+0x1c0>
    2928:	e3c1                	bgez	a5,2938 <input_data+0x3d8>
    292a:	23fe                	jal	2b28 <input_data+0x5c8>
    292c:	ffb9                	bgez	a5,28fa <input_data+0x39a>
    292e:	013a                	j	29bc <input_data+0x45c>
    2930:	6796bc67          	0x6796bc67
    2934:	bdad                	addi	a1,sp,760
    2936:	0236                	j	2a62 <input_data+0x502>
    2938:	27d6                	jal	2d2c <input_data+0x7cc>
    293a:	7c7d                	bltz	s0,2938 <input_data+0x3d8>
    293c:	68b2                	bnez	s1,29c8 <input_data+0x468>
    293e:	24b915db          	0x24b915db
    2942:	e0d668fb          	0xe0d668fb
    2946:	f557254f          	fnmadd.h	fa0,fa4,fs5,ft10,rdn
    294a:	cd5f2c2b          	0xcd5f2c2b
    294e:	30b8                	srai	ra,ra,0x2e
    2950:	6d68                	sltu	a0,a0,a0
    2952:	39c6                	jal	2642 <input_data+0xe2>
    2954:	44b079ab          	0x44b079ab
    2958:	2be4                	srai	s7,s7,0x19
    295a:	41ae                	beqz	a1,2984 <input_data+0x424>
    295c:	3abd                	srli	s5,s5,0x2f
    295e:	678e17cf          	0x678e17cf
    2962:	7bac                	0x7bac
    2964:	76de                	bnez	a3,28da <input_data+0x37a>
    2966:	7582                	bnez	a1,28a6 <input_data+0x346>
    2968:	2c8f5cab          	0x2c8f5cab
    296c:	452947fb          	0x452947fb
    2970:	2ace                	jal	2ee2 <input_data+0x982>
    2972:	679d                	bltz	a5,29d8 <input_data+0x478>
    2974:	7558                	0x7558
    2976:	7df8                	0x7df8
    2978:	3381                	srli	t2,t2,0x20
    297a:	7111                	bltz	a0,287e <input_data+0x31e>
    297c:	328d                	srli	t0,t0,0x23
    297e:	34f371bb          	0x34f371bb
    2982:	44e0                	sw	s0,76(s1)
    2984:	f79f 0704 1798      	0x17980704f79f
    298a:	7948                	0x7948
    298c:	6961                	bltz	a0,2a24 <input_data+0x4c4>
    298e:	4e72                	beqz	a2,2a6a <input_data+0x50a>
    2990:	9a45                	ori	s1,a2,-2
    2992:	59d9                	sw	s6,240(sp)
    2994:	79ea714f          	fnmadd.s	ft2,fs4,ft10,fa5
    2998:	ddde                	addi	s11,s11,-9
    299a:	2d9e                	jal	3080 <input_data+0xb20>
    299c:	592a                	beqz	a0,2926 <input_data+0x3c6>
    299e:	3d7d                	srli	s10,s10,0x3f
    29a0:	b06d                	addi	a1,sp,44
    29a2:	48c5                	sw	a7,80(sp)
    29a4:	136948cb          	fnmsub.d	fa7,fs2,fs6,ft2,rmm
    29a8:	06f2                	j	2d04 <input_data+0x7a4>
    29aa:	723d                	bltz	a2,28d8 <input_data+0x378>
    29ac:	6bd8                	0x6bd8
    29ae:	00fa                	j	2a0c <input_data+0x4ac>
    29b0:	3e02                	jal	28b0 <input_data+0x350>
    29b2:	02d4                	mv	t0,s5
    29b4:	10ed                	slli	ra,ra,0x3b
    29b6:	5241                	sw	a6,36(sp)
    29b8:	a2c4                	or	s0,a3,s1
    29ba:	48c8                	sw	a0,20(s1)
    29bc:	4d28                	sw	a0,88(a0)
    29be:	2afa                	jal	2f1c <input_data+0x9bc>
    29c0:	5552d8af          	0x5552d8af
    29c4:	5cf8                	sw	a4,124(s1)
    29c6:	5d8c                	sw	a1,56(a1)
    29c8:	93c9                	ori	a0,a5,-4
    29ca:	3634                	srai	a2,a2,0x2d
    29cc:	0c30a657          	0xc30a657
    29d0:	37a6bc03          	0x37a6bc03
    29d4:	5d52b08f          	0x5d52b08f
    29d8:	145d8bd7          	0x145d8bd7
    29dc:	a2f2                	lui	t0,0x1c
    29de:	02d623ef          	jal	t2,6520a <_gp+0x5e4aa>
    29e2:	0051                	0x51
    29e4:	2dde                	jal	30da <input_data+0xb7a>
    29e6:	32a2                	jal	232e <__clz_tab+0x52>
    29e8:	0ac3bca3          	0xac3bca3
    29ec:	b0c8                	or	a2,s1,a0
    29ee:	583d                	sw	a5,48(sp)
    29f0:	1fbccd53          	0x1fbccd53
    29f4:	74bac3d7          	0x74bac3d7
    29f8:	d5d4                	lw	a3,44(a1)
    29fa:	0654                	mv	a2,s5
    29fc:	0d01                	slli	s10,s10,0x0
    29fe:	3d1a                	jal	2884 <input_data+0x324>
    2a00:	7da5                	bltz	a1,29e8 <input_data+0x488>
    2a02:	37c5                	srli	a5,a5,0x31
    2a04:	686ebe97          	auipc	t4,0x686eb
    2a08:	8ac2                	li	s5,16
    2a0a:	6599                	bltz	a1,2a50 <input_data+0x4f0>
    2a0c:	d049                	0xd049
    2a0e:	d5415d7b          	0xd5415d7b
    2a12:	bbe76f5b          	0xbbe76f5b
    2a16:	21f8                	srai	gp,gp,0x1e
    2a18:	79d1                	bltz	a1,29ac <input_data+0x44c>
    2a1a:	4c253e53          	0x4c253e53
    2a1e:	1060                	0x1060
    2a20:	5cce                	beqz	s1,2a12 <input_data+0x4b2>
    2a22:	25de3513          	sltiu	a0,t3,605
    2a26:	1e45                	slli	t3,t3,0x31
    2a28:	ef64                	0xef64
    2a2a:	ab662f4b          	fnmsub.d	ft10,fa2,fs6,fs5,rdn
    2a2e:	1b78                	add	s6,s6,t5
    2a30:	20ae                	jal	2a9a <input_data+0x53a>
    2a32:	464e                	beqz	a2,2aa4 <input_data+0x544>
    2a34:	172d75a3          	0x172d75a3
    2a38:	9e80                	0x9e80
    2a3a:	4261                	sw	s8,4(sp)
    2a3c:	00d3e7bb          	0xd3e7bb
    2a40:	6c2a                	bnez	s0,2b0a <input_data+0x5aa>
    2a42:	a05071d3          	0xa05071d3
    2a46:	4085                	sw	ra,64(sp)
    2a48:	08ff                	0x8ff
    2a4a:	465f576b          	0x465f576b
    2a4e:	4c61                	sw	s8,24(sp)
    2a50:	cd3e                	addi	s10,s10,15
    2a52:	247e                	jal	2c90 <input_data+0x730>
    2a54:	2ff2                	jal	3230 <input_data+0xcd0>
    2a56:	1640                	add	a2,a2,a6
    2a58:	f16e                	andi	sp,sp,-5
    2a5a:	21e4                	srai	gp,gp,0x19
    2a5c:	5278adf3          	csrrs	s11,0x527,a7
    2a60:	4afd                	sw	t6,84(sp)
    2a62:	3fff                	0x3fff
    2a64:	aaad                	addi	a1,sp,344
    2a66:	d0832c73          	csrrs	s8,0xd08,t1
    2a6a:	4768253f 58a24cd9 	0x58a24cd94768253f
    2a72:	09fd72f3          	csrrc	t0,0x9f,26
    2a76:	08d4                	mv	a7,s5
    2a78:	e83e                	andi	a6,a6,15
    2a7a:	1b94                	add	s7,s7,t0
    2a7c:	6ce3fc13          	andi	s8,t2,1742
    2a80:	af35                	addi	a3,sp,920
    2a82:	5dac                	sw	a1,120(a1)
    2a84:	2416                	jal	2ca8 <input_data+0x748>
    2a86:	545d                	sw	s7,40(sp)
    2a88:	2e9a                	jal	31ce <input_data+0xc6e>
    2a8a:	82e3583b          	0x82e3583b
    2a8e:	4f5e                	beqz	a4,2b84 <input_data+0x624>
    2a90:	202fd7d7          	0x202fd7d7
    2a94:	096e                	j	2f4e <input_data+0x9ee>
    2a96:	e9f00f97          	auipc	t6,0xe9f00
    2a9a:	64bd                	bltz	s1,2b08 <input_data+0x5a8>
    2a9c:	10e4ceaf          	0x10e4ceaf
    2aa0:	d0aa                	addi	ra,ra,-22
    2aa2:	4735                	sw	a3,140(sp)
    2aa4:	7850                	0x7850
    2aa6:	78e96a2b          	0x78e96a2b
    2aaa:	26ba                	jal	2df8 <input_data+0x898>
    2aac:	5579cfa7          	0x5579cfa7
    2ab0:	d65f 43b2 a8b1      	0xa8b143b2d65f
    2ab6:	601e3793          	sltiu	a5,t3,1537
    2aba:	45c8                	sw	a0,12(a1)
    2abc:	99ec                	0x99ec
    2abe:	3e85                	srli	t4,t4,0x21
    2ac0:	fc5d                	bgez	s0,2ab6 <input_data+0x556>
    2ac2:	d200294b          	fnmsub.d	fs2,ft0,ft0,fs10,rdn
    2ac6:	574d6097          	auipc	ra,0x574d6
    2aca:	7966                	bnez	a0,2a82 <input_data+0x522>
    2acc:	233d                	srli	t1,t1,0xf
    2ace:	101e                	j	22f4 <__clz_tab+0x18>
    2ad0:	24d5dd8b          	0x24d5dd8b
    2ad4:	ed35                	bgez	a0,2bc0 <input_data+0x660>
    2ad6:	504d                	sw	s3,32(sp)
    2ad8:	b03a                	0xb03a
    2ada:	6998                	0x6998
    2adc:	01d8e9c7          	fmsub.s	fs3,fa7,ft9,ft0,unknown
    2ae0:	4fba                	beqz	a5,2bae <input_data+0x64e>
    2ae2:	2711                	srli	a4,a4,0x4
    2ae4:	54ee                	beqz	s1,2a5e <input_data+0x4fe>
    2ae6:	1121015b          	0x1121015b
    2aea:	6511                	bltz	a0,2b2e <input_data+0x5ce>
    2aec:	f61d                	bgez	a2,2a52 <input_data+0x4f2>
    2aee:	33b6                	jal	24da <__clz_tab+0x1fe>
    2af0:	a3b2                	lui	t2,0xc
    2af2:	5dff                	0x5dff
    2af4:	05ac                	mv	a1,a1
    2af6:	0d95                	slli	s11,s11,0x5
    2af8:	7afd1cd3          	0x7afd1cd3
    2afc:	ca46                	addi	s4,s4,17
    2afe:	5a21                	sw	s0,52(sp)
    2b00:	9bd8                	0x9bd8
    2b02:	2ef6                	jal	327e <input_data+0xd1e>
    2b04:	6041                	bltz	s0,2b14 <input_data+0x5b4>
    2b06:	68d4                	0x68d4
    2b08:	4274                	sw	a3,68(a2)
    2b0a:	5c99                	sw	t1,120(sp)
    2b0c:	7b86eff3          	csrrs	t6,0x7b8,13
    2b10:	e378                	0xe378
    2b12:	25b4                	srai	a1,a1,0xd
    2b14:	34127047          	fmsub.h	ft0,ft4,ft1,ft6
    2b18:	8ed0                	sub	t4,t4,s4
    2b1a:	7cfe                	bnez	s1,2b18 <input_data+0x5b8>
    2b1c:	7008f7cb          	fnmsub.s	fa5,fa7,ft0,fa4
    2b20:	70b5                	bltz	s1,2a4c <input_data+0x4ec>
    2b22:	53ba                	beqz	a5,2a30 <input_data+0x4d0>
    2b24:	6db9d8c7          	fmsub.h	fa7,fs3,fs11,fa3,unknown
    2b28:	f955                	bgez	a0,2adc <input_data+0x57c>
    2b2a:	5ff5                	sw	t4,252(sp)
    2b2c:	dbe0                	lw	s0,116(a5)
    2b2e:	db0a0b17          	auipc	s6,0xdb0a0
    2b32:	0bb4                	mv	s7,a3
    2b34:	a8fc                	and	a0,s1,a5
    2b36:	46b207bf d7423089 	0xd742308946b207bf
    2b3e:	507c54af          	0x507c54af
    2b42:	0d86                	j	3222 <input_data+0xcc2>
    2b44:	7b2e                	bnez	a4,2aee <input_data+0x58e>
    2b46:	5595                	sw	t0,232(sp)
    2b48:	3b0a                	jal	28ca <input_data+0x36a>
    2b4a:	0d31                	slli	s10,s10,0xc
    2b4c:	e4b2                	andi	s1,s1,12
    2b4e:	139c                	add	t2,t2,t2
    2b50:	735e                	bnez	a4,2a86 <input_data+0x526>
    2b52:	30ee                	jal	23cc <__clz_tab+0xf0>
    2b54:	0f8b5fbf 538275d3 	0x538275d30f8b5fbf
    2b5c:	366e                	jal	2696 <input_data+0x136>
    2b5e:	0c92                	j	31a2 <input_data+0xc42>
    2b60:	0ac0                	mv	s5,a6
    2b62:	364469c7          	0x364469c7
    2b66:	34de                	jal	25dc <input_data+0x7c>
    2b68:	f150                	0xf150
    2b6a:	6bb5                	bltz	a5,2c16 <input_data+0x6b6>
    2b6c:	1e48192b          	0x1e48192b
    2b70:	0f76                	j	332c <input_data+0xdcc>
    2b72:	36cb2dbb          	0x36cb2dbb
    2b76:	bfaa0197          	auipc	gp,0xbfaa0
    2b7a:	12ff                	0x12ff
    2b7c:	d420                	lw	s0,104(s0)
    2b7e:	3fc03647          	0x3fc03647
    2b82:	06fd                	slli	a3,a3,0x1f
    2b84:	8d3a                	li	s10,14
    2b86:	3fa67bab          	0x3fa67bab
    2b8a:	11f6                	j	2486 <__clz_tab+0x1aa>
    2b8c:	1bb4383f 7a6c039a 	0x7a6c039a1bb4383f
    2b94:	08d9                	slli	a7,a7,0x16
    2b96:	a3054f97          	auipc	t6,0xa3054
    2b9a:	2bf5                	srli	s7,s7,0x1d
    2b9c:	b07f                	0xb07f
    2b9e:	2e56                	jal	32d2 <input_data+0xd72>
    2ba0:	44630ba3          	sb	t1,1111(t1)
    2ba4:	01e6                	j	2c9c <input_data+0x73c>
    2ba6:	407d761b          	0x407d761b
    2baa:	c554610f          	0xc554610f
    2bae:	b4a35ba3          	0xb4a35ba3
    2bb2:	b76642d7          	0xb76642d7
    2bb6:	52fa                	beqz	a3,2ad4 <input_data+0x574>
    2bb8:	6b51cb4f          	fnmadd.d	fs6,ft3,fs5,fa3,rmm
    2bbc:	2540                	srai	a0,a0,0x10
    2bbe:	d9bb2667          	0xd9bb2667
    2bc2:	86fc4be3          	blt	s8,a5,2438 <__clz_tab+0x15c>
    2bc6:	71a0                	0x71a0
    2bc8:	2a85                	srli	s5,s5,0x1
    2bca:	648301af          	0x648301af
    2bce:	5776                	beqz	a4,2b4a <input_data+0x5ea>
    2bd0:	5f2d                	sw	a1,188(sp)
    2bd2:	80f21633          	0x80f21633
    2bd6:	49ca04ab          	0x49ca04ab
    2bda:	0816                	j	2ffe <input_data+0xa9e>
    2bdc:	c5ee                	addi	a1,a1,27
    2bde:	3f4a                	jal	2b70 <input_data+0x610>
    2be0:	5fc4                	sw	s1,60(a5)
    2be2:	fa540f83          	lb	t6,-91(s0)
    2be6:	469a                	beqz	a3,2c2c <input_data+0x6cc>
    2be8:	dde6                	addi	s11,s11,-7
    2bea:	1122                	j	2472 <__clz_tab+0x196>
    2bec:	7ed5                	bltz	a3,2be0 <input_data+0x680>
    2bee:	44d5                	sw	s5,72(sp)
    2bf0:	86e0                	sub	a3,a3,s8
    2bf2:	6126                	bnez	a0,2c1a <input_data+0x6ba>
    2bf4:	7c45df3b          	0x7c45df3b
    2bf8:	b6d4                	or	a3,a3,a3
    2bfa:	2faa                	jal	33c4 <input_data+0xe64>
    2bfc:	52670823          	sb	t1,1328(a4)
    2c00:	c122                	addi	sp,sp,8
    2c02:	79f0                	0x79f0
    2c04:	37a5a727          	fsw	fs10,878(a1)
    2c08:	d981                	lw	s3,32(sp)
    2c0a:	2e88050f          	0x2e88050f
    2c0e:	3539                	srli	a0,a0,0x2e
    2c10:	0db2                	j	32dc <input_data+0xd7c>
    2c12:	10a5                	slli	ra,ra,0x29
    2c14:	ed86                	andi	s11,s11,1
    2c16:	26d8                	srai	a3,a3,0x16
    2c18:	3b24                	srai	s6,s6,0x29
    2c1a:	0e38                	mv	t3,a4
    2c1c:	b3cd                	addi	a1,sp,484
    2c1e:	3834                	srai	a6,a6,0x2d
    2c20:	da28                	lw	a0,112(a2)
    2c22:	6ca2                	bnez	s1,2cea <input_data+0x78a>
    2c24:	d051                	0xd051
    2c26:	98346e3f 734737ff 	0x734737ff98346e3f
    2c2e:	1a06                	j	294e <input_data+0x3ee>
    2c30:	f31d                	bgez	a4,2b56 <input_data+0x5f6>
    2c32:	20bc                	srai	ra,ra,0xf
    2c34:	56d6                	beqz	a3,2ba8 <input_data+0x648>
    2c36:	3d54                	srai	s10,s10,0x35
    2c38:	810a                	li	sp,2
    2c3a:	2285                	srli	t0,t0,0x1
    2c3c:	1b69                	slli	s6,s6,0x3a
    2c3e:	7ea5                	bltz	a3,2c26 <input_data+0x6c6>
    2c40:	b34e                	lui	t1,0xffff3
    2c42:	347a                	jal	2660 <input_data+0x100>
    2c44:	4290                	sw	a2,0(a3)
    2c46:	56155683          	lhu	a3,1377(a0)
    2c4a:	5081                	sw	zero,96(sp)
    2c4c:	ae74                	and	a1,a2,a3
    2c4e:	bb695c27          	0xbb695c27
    2c52:	3324                	srai	t1,t1,0x29
    2c54:	cc31                	lw	s8,12(sp)
    2c56:	7eed                	bltz	a3,2c50 <input_data+0x6f0>
    2c58:	8db4                	sub	s11,s11,a3
    2c5a:	1c4b4667          	0x1c4b4667
    2c5e:	2b5e                	jal	3214 <input_data+0xcb4>
    2c60:	1c78                	add	s8,s8,t5
    2c62:	6089                	bltz	s1,2c64 <input_data+0x704>
    2c64:	39c2eec3          	fmadd.s	ft9,ft5,ft8,ft7,unknown
    2c68:	48473db3          	0x48473db3
    2c6c:	6762                	bnez	a4,2cc4 <input_data+0x764>
    2c6e:	5120                	sw	s0,96(a0)
    2c70:	15f77ee7          	0x15f77ee7
    2c74:	13e702e3          	beq	a4,t5,3598 <input_data+0x1038>
    2c78:	8266                	li	tp,25
    2c7a:	027c                	mv	tp,t6
    2c7c:	e6d4                	0xe6d4
    2c7e:	52dd                	sw	s7,100(sp)
    2c80:	5d347033          	0x5d347033
    2c84:	3a0a8c2b          	0x3a0a8c2b
    2c88:	4043fd5b          	0x4043fd5b
    2c8c:	36bd5793          	0x36bd5793
    2c90:	a131                	addi	a2,sp,136
    2c92:	3ab263ab          	0x3ab263ab
    2c96:	413d                	sw	a5,128(sp)
    2c98:	058545bf 7eb78eb9 	0x7eb78eb9058545bf
    2ca0:	7ef8                	0x7ef8
    2ca2:	42ad609b          	0x42ad609b
    2ca6:	3698                	srai	a3,a3,0x26
    2ca8:	0a6dc44f          	fnmadd.d	fs0,fs11,ft6,ft1,rmm
    2cac:	befe                	lui	t4,0xfffff
    2cae:	01a1                	slli	gp,gp,0x8
    2cb0:	306d                	0x306d
    2cb2:	19f1                	slli	s3,s3,0x3c
    2cb4:	4c2e                	beqz	s0,2d9e <input_data+0x83e>
    2cb6:	14f73deb          	0x14f73deb
    2cba:	63436d53          	0x63436d53
    2cbe:	1239                	slli	tp,tp,0x2e
    2cc0:	a26a                	lui	tp,0x1a
    2cc2:	13b2                	j	268e <input_data+0x12e>
    2cc4:	5d0d                	sw	gp,184(sp)
    2cc6:	2b89                	srli	s7,s7,0x2
    2cc8:	a80d                	addi	a1,sp,16
    2cca:	004b616b          	0x4b616b
    2cce:	ec893213          	sltiu	tp,s2,-312
    2cd2:	2dc4                	srai	s11,s11,0x11
    2cd4:	3ee4                	srai	t4,t4,0x39
    2cd6:	fd240687          	0xfd240687
    2cda:	78dd                	bltz	s1,2c90 <input_data+0x730>
    2cdc:	0f89                	slli	t6,t6,0x2
    2cde:	15ee                	j	27d8 <input_data+0x278>
    2ce0:	f891                	bgez	s1,2c64 <input_data+0x704>
    2ce2:	03337637          	lui	a2,0x3337
    2ce6:	718f4d13          	xori	s10,t5,1816
    2cea:	2a12                	jal	31ee <input_data+0xc8e>
    2cec:	8514                	sub	a0,a0,t0
    2cee:	f67d0d83          	lb	s11,-153(s10)
    2cf2:	3fa4                	srai	t6,t6,0x29
    2cf4:	67a4                	srl	a5,a5,s1
    2cf6:	7c24                	0x7c24
    2cf8:	38b93c73          	csrrc	s8,0x38b,s2
    2cfc:	0f8982b7          	lui	t0,0xf898
    2d00:	c726                	addi	a4,a4,9
    2d02:	fc69423b          	0xfc69423b
    2d06:	d28770bf ea255235 	0xea255235d28770bf
    2d0e:	0a7d                	slli	s4,s4,0x1f
    2d10:	278e                	jal	30f2 <input_data+0xb92>
    2d12:	2374                	srai	t1,t1,0x1d
    2d14:	0ec2                	j	3464 <input_data+0xf04>
    2d16:	8b6a6f83          	0x8b6a6f83
    2d1a:	64ba                	bnez	s1,2d68 <input_data+0x808>
    2d1c:	a049                	addi	a0,sp,4
    2d1e:	4cf2                	beqz	s1,2dfa <input_data+0x89a>
    2d20:	06c9                	slli	a3,a3,0x12
    2d22:	0e9a                	j	3468 <input_data+0xf08>
    2d24:	4d4c799b          	0x4d4c799b
    2d28:	02a0                	mv	t0,s0
    2d2a:	73bb6bf3          	csrrs	s7,0x73b,22
    2d2e:	6fb1                	bltz	a5,2dfa <input_data+0x89a>
    2d30:	1086                	j	2590 <input_data+0x30>
    2d32:	7439                	bltz	s0,2c80 <input_data+0x720>
    2d34:	9e52                	li	t3,-12
    2d36:	71b6                	bnez	a1,2c62 <input_data+0x702>
    2d38:	23494e2b          	0x23494e2b
    2d3c:	b850                	or	a4,s0,a2
    2d3e:	4e3a                	beqz	a2,2e0c <input_data+0x8ac>
    2d40:	1641                	slli	a2,a2,0x30
    2d42:	1e62                	j	2c5a <input_data+0x6fa>
    2d44:	e796                	andi	a5,a5,5
    2d46:	33d8                	srai	t2,t2,0x36
    2d48:	c4c2                	addi	s1,s1,16
    2d4a:	0439                	slli	s0,s0,0xe
    2d4c:	c9c9                	lw	s3,144(sp)
    2d4e:	1e00                	add	t3,t3,zero
    2d50:	a0ff                	0xa0ff
    2d52:	6485                	bltz	s1,2db2 <input_data+0x852>
    2d54:	5f8b586b          	0x5f8b586b
    2d58:	adb0                	sub	a1,a1,a2
    2d5a:	486a                	beqz	s0,2df4 <input_data+0x894>
    2d5c:	4373c7ab          	0x4373c7ab
    2d60:	95c4                	0x95c4
    2d62:	2dc9                	srli	s11,s11,0x12
    2d64:	c94a                	addi	s2,s2,18
    2d66:	234c                	srai	t1,t1,0x13
    2d68:	d44c                	lw	a1,44(s0)
    2d6a:	66f8                	sltu	a3,a3,a4
    2d6c:	3893fc2f          	0x3893fc2f
    2d70:	68f47697          	auipc	a3,0x68f47
    2d74:	9565                	andi	s1,a0,-3
    2d76:	1d14                	add	s10,s10,t0
    2d78:	9910                	0x9910
    2d7a:	804f603f 6a306076 	0x6a306076804f603f
    2d82:	9a0723e7          	0x9a0723e7
    2d86:	78e2                	bnez	s1,2d1e <input_data+0x7be>
    2d88:	ba5a                	lui	s4,0xffff6
    2d8a:	0af2                	j	32e6 <input_data+0xd86>
    2d8c:	cf00                	lw	s0,24(a4)
    2d8e:	5d0e                	beqz	a0,2d70 <input_data+0x810>
    2d90:	3ac8d43b          	0x3ac8d43b
    2d94:	8a1a                	li	s4,6
    2d96:	5aec                	sw	a1,116(a3)
    2d98:	3a49aebb          	0x3a49aebb
    2d9c:	1980                	add	s3,s3,zero
    2d9e:	19c9                	slli	s3,s3,0x32
    2da0:	5b13e84b          	fnmsub.d	fa6,ft7,fa7,fa1,unknown
    2da4:	06f5b7c3          	0x6f5b7c3
    2da8:	0afe                	j	3326 <input_data+0xdc6>
    2daa:	3ae0                	srai	s5,s5,0x38
    2dac:	4ec4                	sw	s1,28(a3)
    2dae:	612c                	sra	a0,a0,a1
    2db0:	415f 055e 9628      	0x9628055e415f
    2db6:	06ce                	j	3128 <input_data+0xbc8>
    2db8:	0db8                	mv	s11,a4
    2dba:	206c                	0x206c
    2dbc:	e815                	bgez	s0,2e60 <input_data+0x900>
    2dbe:	280932f7          	0x280932f7
    2dc2:	5552306b          	0x5552306b
    2dc6:	0a87054b          	fnmsub.d	fa0,fa4,fs0,ft1,rne
    2dca:	4124                	sw	s1,64(a0)
    2dcc:	acb4                	sub	a1,s1,a3
    2dce:	1220                	add	tp,tp,s0
    2dd0:	d140                	lw	s0,36(a0)
    2dd2:	59b4                	sw	a3,112(a1)
    2dd4:	1a2c                	add	s4,s4,a1
    2dd6:	3555                	srli	a0,a0,0x35
    2dd8:	6e3d0eeb          	0x6e3d0eeb
    2ddc:	beb6                	lui	t4,0xfffed
    2dde:	5fd0                	sw	a2,60(a5)
    2de0:	7fc4                	0x7fc4
    2de2:	3d8e                	jal	2cc4 <input_data+0x764>
    2de4:	1c2f74ab          	0x1c2f74ab
    2de8:	babe                	lui	s5,0xfffef
    2dea:	5ef8                	sw	a4,124(a3)
    2dec:	3d4262f7          	0x3d4262f7
    2df0:	1229                	slli	tp,tp,0x2a
    2df2:	d6074007          	0xd6074007
    2df6:	e65262c3          	0xe65262c3
    2dfa:	5add                	sw	s7,116(sp)
    2dfc:	1621                	slli	a2,a2,0x28
    2dfe:	1712                	j	2982 <input_data+0x422>
    2e00:	06622783          	lw	a5,102(tp) # 66 <_tbss_end+0x22>
    2e04:	e928                	0xe928
    2e06:	3dde                	jal	2cfc <input_data+0x79c>
    2e08:	5026                	beqz	s0,2d30 <input_data+0x7d0>
    2e0a:	a0ea2f97          	auipc	t6,0xa0ea2
    2e0e:	a4ac589b          	0xa4ac589b
    2e12:	6ff6                	bnez	a5,2f0e <input_data+0x9ae>
    2e14:	cf1d                	lw	t5,196(sp)
    2e16:	2c445ce7          	0x2c445ce7
    2e1a:	792d                	bltz	a0,2dc4 <input_data+0x864>
    2e1c:	fd61                	bgez	a0,2df4 <input_data+0x894>
    2e1e:	163e                	j	294c <input_data+0x3ec>
    2e20:	0434                	mv	s0,a3
    2e22:	7f24                	0x7f24
    2e24:	61c6                	bnez	a1,2e54 <input_data+0x8f4>
    2e26:	0f3a17d7          	0xf3a17d7
    2e2a:	4382                	beqz	a5,2e2a <input_data+0x8ca>
    2e2c:	ff5d                	bgez	a4,2e22 <input_data+0x8c2>
    2e2e:	7524                	0x7524
    2e30:	5c7c7ae7          	0x5c7c7ae7
    2e34:	be92                	lui	t4,0xfffe4
    2e36:	0035                	0x35
    2e38:	37c94eb3          	0x37c94eb3
    2e3c:	d215                	lw	tp,100(sp)
    2e3e:	7b68                	0x7b68
    2e40:	9af5                	andi	a3,a3,-2
    2e42:	1dd8                	add	s11,s11,s6
    2e44:	7b61                	bltz	a4,2ddc <input_data+0x87c>
    2e46:	1fc6                	j	2e36 <input_data+0x8d6>
    2e48:	91b1                	xori	a2,a1,-4
    2e4a:	3fb4                	srai	t6,t6,0x2d
    2e4c:	7cce                	bnez	s1,2e3e <input_data+0x8de>
    2e4e:	3b8a                	jal	2c10 <input_data+0x6b0>
    2e50:	5969bfbf 2e70078a 	0x2e70078a5969bfbf
    2e58:	ea69                	bgez	a2,2ef2 <input_data+0x992>
    2e5a:	c0af03f7          	0xc0af03f7
    2e5e:	42df 2c45 2cab      	0x2cab2c4542df
    2e64:	daf9                	lw	s5,188(sp)
    2e66:	1df0                	add	s11,s11,t3
    2e68:	201f73bb          	0x201f73bb
    2e6c:	c1b1                	lw	gp,12(sp)
    2e6e:	66270f7b          	0x66270f7b
    2e72:	2ce6                	jal	34ea <input_data+0xf8a>
    2e74:	3571                	srli	a0,a0,0x3c
    2e76:	053d                	slli	a0,a0,0xf
    2e78:	0c4c                	mv	s8,s3
    2e7a:	0cb12027          	fsw	fa1,192(sp)
    2e7e:	f75463db          	0xf75463db
    2e82:	497d                	sw	t6,144(sp)
    2e84:	4ff0                	sw	a2,92(a5)
    2e86:	190a                	j	2b08 <input_data+0x5a8>
    2e88:	6941                	bltz	a0,2f18 <input_data+0x9b8>
    2e8a:	6474                	sltu	s0,s0,a3
    2e8c:	14a8aca7          	fsw	fa0,345(a7)
    2e90:	5ffa6057          	0x5ffa6057
    2e94:	0230                	mv	tp,a2
    2e96:	5f38                	sw	a4,120(a4)
    2e98:	405d5a9b          	0x405d5a9b
    2e9c:	20f1                	srli	ra,ra,0x1c
    2e9e:	384a                	jal	2ab0 <input_data+0x550>
    2ea0:	a53a                	lui	a0,0xe
    2ea2:	fe496987          	0xfe496987
    2ea6:	bb2a2d97          	auipc	s11,0xbb2a2
    2eaa:	26c969e7          	0x26c969e7
    2eae:	7f1633ab          	0x7f1633ab
    2eb2:	15ce                	j	29a4 <input_data+0x444>
    2eb4:	e474                	0xe474
    2eb6:	1221                	slli	tp,tp,0x28
    2eb8:	2630                	srai	a2,a2,0xc
    2eba:	148e                	j	291c <input_data+0x3bc>
    2ebc:	67d5                	bltz	a5,2f30 <input_data+0x9d0>
    2ebe:	511f dc38 567a      	0x567adc38511f
    2ec4:	90ea                	li	ra,-6
    2ec6:	2515                	srli	a0,a0,0x5
    2ec8:	042c2c93          	slti	s9,s8,66
    2ecc:	3fdd                	srli	t6,t6,0x37
    2ece:	f8f2643f 25ea19f1 	0x25ea19f1f8f2643f
    2ed6:	2901                	srli	s2,s2,0x0
    2ed8:	63be                	bnez	a5,2f06 <input_data+0x9a6>
    2eda:	1266                	j	2812 <input_data+0x2b2>
    2edc:	eb98                	0xeb98
    2ede:	5185                	sw	ra,224(sp)
    2ee0:	6d54fafb          	0x6d54fafb
    2ee4:	73da                	bnez	a5,2dfa <input_data+0x89a>
    2ee6:	0f36                	j	3692 <input_data+0x1132>
    2ee8:	4814                	sw	a3,16(s0)
    2eea:	0b8e                	j	34cc <input_data+0xf6c>
    2eec:	929f 6d4a 9983      	0x99836d4a929f
    2ef2:	3291                	srli	t0,t0,0x24
    2ef4:	8185                	addi	s1,a1,0
    2ef6:	8d110913          	addi	s2,sp,-1839
    2efa:	be830dc7          	0xbe830dc7
    2efe:	6892                	bnez	s1,2f82 <input_data+0xa22>
    2f00:	6d90fbd7          	0x6d90fbd7
    2f04:	31bc1683          	lh	a3,795(s8)
    2f08:	1500                	add	a0,a0,zero
    2f0a:	0db4                	mv	s11,a3
    2f0c:	f0f9                	bgez	s1,2e2a <input_data+0x8ca>
    2f0e:	98ae7a53          	0x98ae7a53
    2f12:	142d                	slli	s0,s0,0x2b
    2f14:	49b6                	beqz	a1,2fc0 <input_data+0xa60>
    2f16:	049e                	j	317c <input_data+0xc1c>
    2f18:	00c56a53          	fadd.s	fs4,fa0,fa2,unknown
    2f1c:	2b34                	srai	s6,s6,0xd
    2f1e:	800e0223          	sb	zero,-2044(t3)
    2f22:	35f0621b          	0x35f0621b
    2f26:	597a                	beqz	a0,2ec4 <input_data+0x964>
    2f28:	34a2                	jal	2970 <input_data+0x410>
    2f2a:	1a26                	j	2c52 <input_data+0x6f2>
    2f2c:	592c584b          	fnmsub.s	fa6,fs8,fs2,fa1,unknown
    2f30:	19de                	j	2c26 <input_data+0x6c6>
    2f32:	16b218fb          	0x16b218fb
    2f36:	56c5                	sw	a7,108(sp)
    2f38:	c342                	addi	t1,t1,16
    2f3a:	acda499b          	0xacda499b
    2f3e:	4cb8                	sw	a4,88(s1)
    2f40:	0309                	slli	t1,t1,0x2
    2f42:	1c05                	slli	s8,s8,0x21
    2f44:	71422f0f          	0x71422f0f
    2f48:	6781                	bltz	a5,2f88 <input_data+0xa28>
    2f4a:	2da44367          	0x2da44367
    2f4e:	69aa                	bnez	a1,2fd8 <input_data+0xa78>
    2f50:	16be534b          	0x16be534b
    2f54:	5faffcaf          	0x5faffcaf
    2f58:	f87d                	bgez	s0,2f16 <input_data+0x9b6>
    2f5a:	1eb0                	add	t4,t4,a2
    2f5c:	af76                	lui	t5,0x1d
    2f5e:	359a3b43          	fmadd.h	fs6,fs4,fs9,ft6,rup
    2f62:	58f0598f          	0x58f0598f
    2f66:	418e                	beqz	a1,2f88 <input_data+0xa28>
    2f68:	7a9e                	bnez	a3,2f0e <input_data+0x9ae>
    2f6a:	60ff                	0x60ff
    2f6c:	4477c207          	0x4477c207
    2f70:	5d34                	sw	a3,120(a0)
    2f72:	5a8a                	beqz	a3,2ef4 <input_data+0x994>
    2f74:	386a4a27          	0x386a4a27
    2f78:	065a84b7          	lui	s1,0x65a8
    2f7c:	181a                	j	2b82 <input_data+0x622>
    2f7e:	36ee                	jal	2af8 <input_data+0x598>
    2f80:	8142                	li	sp,16
    2f82:	0ad2                	j	34d6 <input_data+0xf76>
    2f84:	6704                	sll	a4,a4,s1
    2f86:	5de6                	beqz	a1,2f7e <input_data+0xa1e>
    2f88:	667e9cb3          	0x667e9cb3
    2f8c:	5d161ea7          	fsh	fa7,1501(a2) # 33375dd <_gp+0x333087d>
    2f90:	a925                	addi	s1,sp,152
    2f92:	ce147273          	csrrc	tp,0xce1,8
    2f96:	5a02                	beqz	a2,2f16 <input_data+0x9b6>
    2f98:	65ff                	0x65ff
    2f9a:	41b8                	sw	a4,64(a1)
    2f9c:	952d                	xori	a1,a0,-3
    2f9e:	4616                	beqz	a2,3002 <input_data+0xaa2>
    2fa0:	b366                	lui	t1,0xffff9
    2fa2:	2fd8                	srai	t6,t6,0x16
    2fa4:	d360                	lw	s0,100(a4)
    2fa6:	0b15                	slli	s6,s6,0x5
    2fa8:	1b75                	slli	s6,s6,0x3d
    2faa:	3f1e                	jal	2f50 <input_data+0x9f0>
    2fac:	192a                	j	2c36 <input_data+0x6d6>
    2fae:	6655                	bltz	a2,3022 <input_data+0xac2>
    2fb0:	2134                	srai	sp,sp,0xd
    2fb2:	01e2                	j	308a <input_data+0xb2a>
    2fb4:	a632                	lui	a2,0xc
    2fb6:	1b96                	j	2d9a <input_data+0x83a>
    2fb8:	6eff                	0x6eff
    2fba:	4f9c                	sw	a5,24(a5)
    2fbc:	b6a6                	lui	a3,0xfffe9
    2fbe:	02cd                	slli	t0,t0,0x13
    2fc0:	d099                	lw	ra,164(sp)
    2fc2:	0aa9                	slli	s5,s5,0xa
    2fc4:	50f6                	beqz	s1,2f00 <input_data+0x9a0>
    2fc6:	536d                	sw	s11,164(sp)
    2fc8:	88d1                	ori	a2,s1,2
    2fca:	afe90d43          	0xafe90d43
    2fce:	07a1                	slli	a5,a5,0x8
    2fd0:	ef3e                	andi	t5,t5,15
    2fd2:	953f65cf          	fnmadd.h	fa1,ft10,fs3,fs2,unknown
    2fd6:	803b370f          	0x803b370f
    2fda:	7612                	bnez	a2,2f1e <input_data+0x9be>
    2fdc:	ce4c                	lw	a1,28(a2)
    2fde:	5445                	sw	a7,40(sp)
    2fe0:	52680fd7          	0x52680fd7
    2fe4:	45e2                	beqz	a1,303c <input_data+0xadc>
    2fe6:	0c68                	mv	s8,s10
    2fe8:	482e                	beqz	s0,3092 <input_data+0xb32>
    2fea:	ae2c70cb          	0xae2c70cb
    2fee:	ec2c7cab          	0xec2c7cab
    2ff2:	6ae1                	bltz	a3,308a <input_data+0xb2a>
    2ff4:	e13c                	0xe13c
    2ff6:	547e                	beqz	s0,2f74 <input_data+0xa14>
    2ff8:	a950                	or	a0,a0,a2
    2ffa:	1ebe                	j	2f68 <input_data+0xa08>
    2ffc:	7bc697fb          	0x7bc697fb
    3000:	fdc5                	bgez	a1,2ff0 <input_data+0xa90>
    3002:	4d993b37          	lui	s6,0x4d993
    3006:	83b2432f          	0x83b2432f
    300a:	0e9f 9873 0803      	0x80398730e9f
    3010:	b732                	lui	a4,0xfffec
    3012:	47e6                	beqz	a5,308a <input_data+0xb2a>
    3014:	b9ad                	addi	a1,sp,248
    3016:	501d                	sw	t2,32(sp)
    3018:	3234                	srai	tp,tp,0x2d
    301a:	43e6                	beqz	a5,3052 <input_data+0xaf2>
    301c:	a9e2                	lui	s3,0x18
    301e:	26d5                	srli	a3,a3,0x15
    3020:	c7f5                	lw	a5,92(sp)
    3022:	0151                	slli	sp,sp,0x14
    3024:	c33a                	addi	t1,t1,14
    3026:	5b90                	sw	a2,48(a5)
    3028:	8976                	li	s2,29
    302a:	7fc0                	0x7fc0
    302c:	e0a8                	0xe0a8
    302e:	3471                	srli	s0,s0,0x3c
    3030:	73e9750b          	0x73e9750b
    3034:	25d6                	jal	3328 <input_data+0xdc8>
    3036:	071c                	mv	a4,t2
    3038:	8c7a                	li	s8,30
    303a:	3198                	srai	gp,gp,0x26
    303c:	acbd                	addi	a5,sp,600
    303e:	5d64                	sw	s1,124(a0)
    3040:	b01d                	addi	a5,sp,32
    3042:	3438                	srai	s0,s0,0x2e
    3044:	53c2                	beqz	a5,2f54 <input_data+0x9f4>
    3046:	2728                	srai	a4,a4,0xa
    3048:	90d4                	0x90d4
    304a:	626c0d83          	lb	s11,1574(s8)
    304e:	37e8                	srai	a5,a5,0x3a
    3050:	3740                	srai	a4,a4,0x30
    3052:	47a5                	sw	s1,204(sp)
    3054:	73877afb          	0x73877afb
    3058:	2c8c                	srai	s9,s9,0x3
    305a:	780d                	bltz	s0,2ffc <input_data+0xa9c>
    305c:	5c1f 4bf6 a764      	0xa7644bf65c1f
    3062:	41b5                	sw	a3,192(sp)
    3064:	9850                	0x9850
    3066:	588e                	beqz	s1,3008 <input_data+0xaa8>
    3068:	e798                	0xe798
    306a:	346c                	srai	s0,s0,0x3b
    306c:	660f2753          	0x660f2753
    3070:	0b60                	mv	s6,s8
    3072:	26c6                	jal	33e2 <input_data+0xe82>
    3074:	5aa8                	sw	a0,112(a3)
    3076:	3fb1                	srli	t6,t6,0x2c
    3078:	4af1                	sw	t3,84(sp)
    307a:	4eab19eb          	0x4eab19eb
    307e:	119716cb          	fnmsub.s	fa3,fa4,fs9,ft2,rtz
    3082:	36d2                	jal	2bd6 <input_data+0x676>
    3084:	b865                	addi	s1,sp,60
    3086:	7889                	bltz	s1,3008 <input_data+0xaa8>
    3088:	4eaa874f          	0x4eaa874f
    308c:	731f 7f8d b247      	0xb2477f8d731f
    3092:	2e04                	srai	t3,t3,0x1
    3094:	38e6                	jal	2d0c <input_data+0x7ac>
    3096:	3da0                	srai	s11,s11,0x28
    3098:	8d86                	li	s11,1
    309a:	42d0                	sw	a2,4(a3)
    309c:	8655                	ori	a3,a2,1
    309e:	b06e1447          	fmsub.s	fs0,ft8,ft6,fs6,rtz
    30a2:	142657af          	0x142657af
    30a6:	6958                	0x6958
    30a8:	127d                	slli	tp,tp,0x3f
    30aa:	02d4                	mv	t0,s5
    30ac:	1808                	add	a6,a6,sp
    30ae:	4e50                	sw	a2,28(a2)
    30b0:	ff59                	bgez	a4,3086 <input_data+0xb26>
    30b2:	17c9                	slli	a5,a5,0x32
    30b4:	6a81                	bltz	a3,3134 <input_data+0xbd4>
    30b6:	5732                	beqz	a4,3002 <input_data+0xaa2>
    30b8:	280b98c7          	fmsub.s	fa7,fs7,ft0,ft5,rtz
    30bc:	c8a5                	lw	a7,72(sp)
    30be:	01e1                	slli	gp,gp,0x18
    30c0:	b6ca                	lui	a3,0xffff2
    30c2:	0dba                	j	3790 <input_data+0x1230>
    30c4:	f698                	0xf698
    30c6:	0e4d                	slli	t3,t3,0x13
    30c8:	39df 2335 12f4      	0x12f4233539df
    30ce:	662e                	bnez	a2,3138 <input_data+0xbd8>
    30d0:	dfc5                	lw	t6,112(sp)
    30d2:	31a6                	jal	29ba <input_data+0x45a>
    30d4:	bb4a                	lui	s6,0xffff2
    30d6:	17bc                	add	a5,a5,a5
    30d8:	8905                	addi	s1,a0,2
    30da:	1f1f bef4 000d      	0xdbef41f1f
    30e0:	3e5303f7          	0x3e5303f7
    30e4:	4fe1                	sw	s8,220(sp)
    30e6:	5c1f 89af 0d87      	0xd8789af5c1f
    30ec:	6fc0                	slt	s0,a5,s0
    30ee:	0c6c                	mv	s8,s11
    30f0:	09c4                	mv	s3,a7
    30f2:	598e                	beqz	a1,3094 <input_data+0xb34>
    30f4:	8c4e                	li	s8,19
    30f6:	600d                	bltz	s0,3118 <input_data+0xbb8>
    30f8:	53ad                	sw	a1,228(sp)
    30fa:	7345                	bltz	a4,302a <input_data+0xaca>
    30fc:	5eb1deab          	0x5eb1deab
    3100:	62a986eb          	0x62a986eb
    3104:	778c                	0x778c
    3106:	684e                	bnez	s0,31b8 <input_data+0xc58>
    3108:	9ede                	li	t4,-9
    310a:	52a0                	sw	s0,96(a3)
    310c:	7574                	0x7574
    310e:	37c2                	jal	2cde <input_data+0x77e>
    3110:	53d9                	sw	s6,228(sp)
    3112:	0a5c                	mv	s4,s7
    3114:	7a22                	bnez	a2,309c <input_data+0xb3c>
    3116:	29dd                	srli	s3,s3,0x17
    3118:	108a                	j	295a <input_data+0x3fa>
    311a:	14c0                	add	s1,s1,a6
    311c:	04da198b          	0x4da198b
    3120:	342ec987          	0x342ec987
    3124:	f6c6                	andi	a3,a3,-15
    3126:	0458                	mv	s0,s6
    3128:	c459                	lw	s0,148(sp)
    312a:	7939                	bltz	a0,30b8 <input_data+0xb58>
    312c:	1a90                	add	s5,s5,tp
    312e:	4d9f b410 03dc      	0x3dcb4104d9f
    3134:	8b1a                	li	s6,6
    3136:	77d6                	bnez	a5,30aa <input_data+0xb4a>
    3138:	2af9                	srli	s5,s5,0x1e
    313a:	6279                	bltz	a2,3158 <input_data+0xbf8>
    313c:	55e0                	sw	s0,108(a1)
    313e:	0378                	mv	t1,t5
    3140:	a3d2                	lui	t2,0x14
    3142:	5a9a6f8f          	0x5a9a6f8f
    3146:	f8480b5b          	0xf8480b5b
    314a:	0e95                	slli	t4,t4,0x5
    314c:	c145                	lw	sp,80(sp)
    314e:	3890                	srai	a7,a7,0x24
    3150:	e741                	bgez	a4,31a0 <input_data+0xc40>
    3152:	1314                	add	t1,t1,t0
    3154:	e58d                	bgez	a1,31b6 <input_data+0xc56>
    3156:	2b7a                	jal	36f4 <input_data+0x1194>
    3158:	7b38                	0x7b38
    315a:	07f9                	slli	a5,a5,0x1e
    315c:	aecc                	or	a1,a3,a1
    315e:	17442c23          	sw	s4,376(s0)
    3162:	12dd                	slli	t0,t0,0x37
    3164:	0e38                	mv	t3,a4
    3166:	4705                	sw	ra,140(sp)
    3168:	6b6b5947          	fmsub.d	fs2,fs6,fs6,fa3,unknown
    316c:	3bb4                	srai	s7,s7,0x2d
    316e:	2ed0                	srai	t4,t4,0x14
    3170:	6c47c04b          	fnmsub.h	ft0,fa5,ft4,fa3,rmm
    3174:	0e12                	j	3878 <input_data+0x1318>
    3176:	7a54                	0x7a54
    3178:	3774479b          	0x3774479b
    317c:	7c82                	bnez	s1,313c <input_data+0xbdc>
    317e:	51f651e7          	0x51f651e7
    3182:	121c                	add	tp,tp,t2
    3184:	3d32                	jal	3010 <input_data+0xab0>
    3186:	32d5                	srli	t0,t0,0x35
    3188:	fbb4                	0xfbb4
    318a:	1b14                	add	s6,s6,t0
    318c:	1831                	slli	a6,a6,0x2c
    318e:	7f10                	0x7f10
    3190:	1f5a                	j	3126 <input_data+0xbc6>
    3192:	68ba                	bnez	s1,3220 <input_data+0xcc0>
    3194:	adc6                	lui	s11,0x11
    3196:	2dd11ff3          	csrrw	t6,0x2dd,sp
    319a:	6939                	bltz	a0,3228 <input_data+0xcc8>
    319c:	2488                	srai	s1,s1,0x2
    319e:	d9f32b53          	0xd9f32b53
    31a2:	bdbc481b          	0xbdbc481b
    31a6:	6ab9                	bltz	a3,3234 <input_data+0xcd4>
    31a8:	26e2                	jal	3500 <input_data+0xfa0>
    31aa:	2eb2                	jal	38f6 <input_data+0x1396>
    31ac:	7cd13583          	0x7cd13583
    31b0:	9124                	0x9124
    31b2:	e0844ee7          	0xe0844ee7
    31b6:	326e                	jal	2af0 <input_data+0x590>
    31b8:	f425                	bgez	s0,3120 <input_data+0xbc0>
    31ba:	3f81                	srli	t6,t6,0x20
    31bc:	221bb1f3          	csrrc	gp,0x221,s7
    31c0:	680ae06b          	0x680ae06b
    31c4:	02ec                	mv	t0,s11
    31c6:	3c49                	srli	s8,s8,0x32
    31c8:	fa5f 7577 9f22      	0x9f227577fa5f
    31ce:	2c9d                	srli	s9,s9,0x7
    31d0:	14739627          	fsh	ft7,332(t2)
    31d4:	0b2a                	j	375e <input_data+0x11fe>
    31d6:	2b1d                	srli	s6,s6,0x7
    31d8:	42b9                	sw	a4,68(sp)
    31da:	3731                	srli	a4,a4,0x2c
    31dc:	35ae                	jal	2cc6 <input_data+0x766>
    31de:	35c0                	srai	a1,a1,0x30
    31e0:	bcfc                	and	a5,s1,a5
    31e2:	16f966ef          	jal	a3,99b50 <_gp+0x92df0>
    31e6:	1ff0                	add	t6,t6,t3
    31e8:	7b35                	bltz	a4,3194 <input_data+0xc34>
    31ea:	171a                	j	2d70 <input_data+0x810>
    31ec:	1baab177          	0x1baab177
    31f0:	91ea                	li	gp,-6
    31f2:	45c4                	sw	s1,12(a1)
    31f4:	39da                	jal	2eca <input_data+0x96a>
    31f6:	44cb4583          	lbu	a1,1100(s6) # 4d99344c <_gp+0x4d98c6ec>
    31fa:	eeb26bb7          	lui	s7,0xeeb26
    31fe:	73c1                	bltz	a5,310e <input_data+0xbae>
    3200:	3aba90eb          	0x3aba90eb
    3204:	518d9d7b          	0x518d9d7b
    3208:	0924                	mv	s2,s1
    320a:	64d2                	bnez	s1,325e <input_data+0xcfe>
    320c:	861e                	li	a2,7
    320e:	62415d83          	lhu	s11,1572(sp)
    3212:	6fd5                	bltz	a5,3306 <input_data+0xda6>
    3214:	0635                	slli	a2,a2,0xd
    3216:	4a75                	sw	t4,20(sp)
    3218:	31f2                	jal	2af4 <input_data+0x594>
    321a:	65f1                	bltz	a1,3276 <input_data+0xd16>
    321c:	69213a4f          	fnmadd.s	fs4,ft2,fs2,fa3,rup
    3220:	1266                	j	2b58 <input_data+0x5f8>
    3222:	6751                	bltz	a4,3276 <input_data+0xd16>
    3224:	ddb0                	lw	a2,120(a1)
    3226:	5612                	beqz	a2,316a <input_data+0xc0a>
    3228:	3bea                	jal	3002 <input_data+0xaa2>
    322a:	6122                	bnez	a0,3232 <input_data+0xcd2>
    322c:	a826                	lui	a6,0x9
    322e:	7d7c                	0x7d7c
    3230:	0d6a9e8b          	0xd6a9e8b
    3234:	05a2                	j	34fc <input_data+0xf9c>
    3236:	3594                	srai	a1,a1,0x25
    3238:	bf5f 3378 4c62      	0x4c623378bf5f
    323e:	55f0                	sw	a2,108(a1)
    3240:	7fc9                	bltz	a5,3212 <input_data+0xcb2>
    3242:	2090                	srai	ra,ra,0x4
    3244:	d4b4                	lw	a3,104(s1)
    3246:	287c75e3          	bleu	t2,s8,3cd0 <input_data+0x1770>
    324a:	104f7e27          	0x104f7e27
    324e:	48d2                	beqz	s1,32e2 <input_data+0xd82>
    3250:	7eec                	0x7eec
    3252:	1178                	add	sp,sp,t5
    3254:	bf85                	addi	s1,sp,1008
    3256:	5f76                	beqz	a4,3252 <input_data+0xcf2>
    3258:	791e                	bnez	a0,31fe <input_data+0xc9e>
    325a:	5d78                	sw	a4,124(a0)
    325c:	af9c                	add	a1,a5,a5
    325e:	54ec                	sw	a1,108(s1)
    3260:	bad6                	lui	s5,0xffff5
    3262:	4ae2                	beqz	a3,32fa <input_data+0xd9a>
    3264:	4fc8                	sw	a0,28(a5)
    3266:	0e4c11cf          	0xe4c11cf
    326a:	65ce                	bnez	a1,32dc <input_data+0xd7c>
    326c:	3170694b          	fnmsub.s	fs2,ft0,fs7,ft6,unknown
    3270:	6b95                	bltz	a5,3314 <input_data+0xdb4>
    3272:	3526                	jal	2d1a <input_data+0x7ba>
    3274:	76e02b87          	flw	fs7,1902(zero)
    3278:	0354                	mv	t1,s5
    327a:	43ba                	beqz	a5,3288 <input_data+0xd28>
    327c:	8dc1                	ori	s0,a1,3
    327e:	1630                	add	a2,a2,a2
    3280:	8bfd                	andi	a5,a5,2
    3282:	0e8b5aa3          	0xe8b5aa3
    3286:	3a98                	srai	s5,s5,0x26
    3288:	46fe6c83          	0x46fe6c83
    328c:	9bfd                	andi	a5,a5,-2
    328e:	288a                	jal	36d0 <input_data+0x1170>
    3290:	3401                	srli	s0,s0,0x20
    3292:	307d                	0x307d
    3294:	b7d5                	addi	a3,sp,996
    3296:	1790                	add	a5,a5,tp
    3298:	4380                	sw	s0,0(a5)
    329a:	bfe56243          	0xbfe56243
    329e:	3d2c                	srai	s10,s10,0x2b
    32a0:	0d94                	mv	s11,t0
    32a2:	ed447d33          	0xed447d33
    32a6:	7f461927          	fsh	fs4,2034(a2)
    32aa:	1e58                	add	t3,t3,s6
    32ac:	a3bc                	sub	s0,a5,a5
    32ae:	333c                	srai	t1,t1,0x2f
    32b0:	ee36                	andi	t3,t3,13
    32b2:	796c                	0x796c
    32b4:	d758                	lw	a4,44(a4)
    32b6:	3559                	srli	a0,a0,0x36
    32b8:	71bc                	0x71bc
    32ba:	a6b01d77          	0xa6b01d77
    32be:	673c                	srl	a4,a4,a5
    32c0:	3f1e                	jal	3266 <input_data+0xd06>
    32c2:	1532                	j	2d4e <input_data+0x7ee>
    32c4:	1715                	slli	a4,a4,0x25
    32c6:	7fa6                	bnez	a5,32ae <input_data+0xd4e>
    32c8:	24f2                	jal	3524 <input_data+0xfc4>
    32ca:	40ce                	beqz	s1,32fc <input_data+0xd9c>
    32cc:	aa91                	addi	a2,sp,336
    32ce:	229c                	srai	t0,t0,0x7
    32d0:	0d777e03          	0xd777e03
    32d4:	1801                	slli	a6,a6,0x20
    32d6:	5e3d                	sw	a5,60(sp)
    32d8:	11fa                	j	2bb6 <input_data+0x656>
    32da:	5a51                	sw	s4,52(sp)
    32dc:	5944ca9b          	0x5944ca9b
    32e0:	c086                	addi	ra,ra,1
    32e2:	6606                	bnez	a2,3342 <input_data+0xde2>
    32e4:	4048                	sw	a0,4(s0)
    32e6:	69c9                	bltz	a1,3378 <input_data+0xe18>
    32e8:	2b61                	srli	s6,s6,0x18
    32ea:	6d7411fb          	0x6d7411fb
    32ee:	c43f43bb          	0xc43f43bb
    32f2:	26ec                	srai	a3,a3,0x1b
    32f4:	c100                	lw	s0,0(a0)
    32f6:	067f                	0x67f
    32f8:	d548                	lw	a0,44(a0)
    32fa:	65e9                	bltz	a1,3354 <input_data+0xdf4>
    32fc:	4431                	sw	a2,8(sp)
    32fe:	4fed                	sw	s11,220(sp)
    3300:	b562                	lui	a0,0xffff8
    3302:	5162                	beqz	a0,321a <input_data+0xcba>
    3304:	e886                	andi	a7,a7,1
    3306:	44de                	beqz	s1,337c <input_data+0xe1c>
    3308:	0524                	mv	a0,s1
    330a:	47c2                	beqz	a5,335a <input_data+0xdfa>
    330c:	e892                	andi	a7,a7,4
    330e:	0b34                	mv	s6,a3
    3310:	760e                	bnez	a2,3272 <input_data+0xd12>
    3312:	0f45                	slli	t5,t5,0x11
    3314:	25bbf907          	0x25bbf907
    3318:	0125630f          	0x125630f
    331c:	ec4e                	andi	s8,s8,19
    331e:	6f28                	srl	a0,a4,a0
    3320:	d032                	addi	sp,sp,-224
    3322:	442d                	sw	a1,8(sp)
    3324:	0e20a51b          	0xe20a51b
    3328:	e6c8                	0xe6c8
    332a:	6851                	bltz	s0,33be <input_data+0xe5e>
    332c:	4b8a                	beqz	a5,33ae <input_data+0xe4e>
    332e:	3312                	jal	2cb2 <input_data+0x752>
    3330:	9c1c                	0x9c1c
    3332:	04c9                	slli	s1,s1,0x12
    3334:	6418748b          	0x6418748b
    3338:	0a4e                	j	386a <input_data+0x130a>
    333a:	4af4                	sw	a3,84(a3)
    333c:	52da5463          	ble	a3,s4,3864 <input_data+0x1304>
    3340:	859f 5ecc 7333      	0x73335ecc859f
    3346:	3010                	0x3010
    3348:	4c14                	sw	a3,24(s0)
    334a:	35aa4f5b          	0x35aa4f5b
    334e:	78de                	bnez	s1,3304 <input_data+0xda4>
    3350:	b9e0                	and	a4,a1,s0
    3352:	ac02624f          	fnmadd.h	ft4,ft4,ft0,fs5,unknown
    3356:	5ae172ef          	jal	t0,1a904 <_gp+0x13ba4>
    335a:	3d42                	jal	31ea <input_data+0xc8a>
    335c:	4b8786af          	0x4b8786af
    3360:	076267bf 05b51220 	0x5b51220076267bf
    3368:	e546                	andi	a0,a0,17
    336a:	3a367ad7          	0x3a367ad7
    336e:	24ec                	srai	s1,s1,0x1b
    3370:	9cdc                	0x9cdc
    3372:	6481                	bltz	s1,33b2 <input_data+0xe52>
    3374:	9a26                	li	s4,-23
    3376:	a6bd6c4f          	0xa6bd6c4f
    337a:	7e4a                	bnez	a2,334c <input_data+0xdec>
    337c:	5f2d8e87          	0x5f2d8e87
    3380:	a94d                	addi	a1,sp,148
    3382:	6b4c                	0x6b4c
    3384:	6591                	bltz	a1,33c8 <input_data+0xe68>
    3386:	ec5c0caf          	0xec5c0caf
    338a:	276a                	jal	3724 <input_data+0x11c4>
    338c:	aca1                	addi	s0,sp,600
    338e:	42f4                	sw	a3,68(a3)
    3390:	08b3d3db          	0x8b3d3db
    3394:	0231                	slli	tp,tp,0xc
    3396:	6b3238db          	vlsegsthu	vx17,tp,s3,4
    339a:	699d                	bltz	a1,3440 <input_data+0xee0>
    339c:	c88e                	addi	a7,a7,3
    339e:	3764                	srai	a4,a4,0x39
    33a0:	c8f2                	addi	a7,a7,28
    33a2:	7fb1                	bltz	a5,336e <input_data+0xe0e>
    33a4:	1541dfdb          	0x1541dfdb
    33a8:	e246                	andi	tp,tp,17
    33aa:	5ffe                	beqz	a5,33a8 <input_data+0xe48>
    33ac:	b4d1                	addi	a2,sp,612
    33ae:	7745                	bltz	a4,331e <input_data+0xdbe>
    33b0:	15fcce2f          	0x15fcce2f
    33b4:	3e1f 03b5 a229      	0xa22903b53e1f
    33ba:	69d5                	bltz	a1,346e <input_data+0xf0e>
    33bc:	fafd                	bgez	a3,337a <input_data+0xe1a>
    33be:	3b26                	jal	3166 <input_data+0xc06>
    33c0:	6481                	bltz	s1,3400 <input_data+0xea0>
    33c2:	f4324fa3          	0xf4324fa3
    33c6:	2982                	jal	3886 <input_data+0x1326>
    33c8:	b436                	lui	s0,0xfffed
    33ca:	13e5                	slli	t2,t2,0x39
    33cc:	ab60                	and	a0,a4,s0
    33ce:	22ea                	jal	3528 <input_data+0xfc8>
    33d0:	a2f9                	addi	a4,sp,332
    33d2:	69d8                	0x69d8
    33d4:	94ee                	li	s1,-5
    33d6:	3041                	0x3041
    33d8:	058dfb67          	0x58dfb67
    33dc:	35dc                	srai	a1,a1,0x37
    33de:	2ba8                	srai	s7,s7,0xa
    33e0:	3434                	srai	s0,s0,0x2d
    33e2:	90f058ef          	jal	a7,fff08cf0 <_gp+0xfff01f90>
    33e6:	48d27313          	andi	t1,tp,1165
    33ea:	0a60                	mv	s4,s8
    33ec:	bdd6                	lui	s11,0xffff5
    33ee:	144a                	j	2e00 <input_data+0x8a0>
    33f0:	8062                	0x8062
    33f2:	1e46                	j	3322 <input_data+0xdc2>
    33f4:	18e0                	add	a7,a7,s8
    33f6:	159f fdc5 5fcb      	0x5fcbfdc5159f
    33fc:	7b46                	bnez	a4,33ac <input_data+0xe4c>
    33fe:	2df238d3          	0x2df238d3
    3402:	5f5c                	sw	a5,60(a4)
    3404:	a1ce                	lui	gp,0x13
    3406:	18d2                	j	305a <input_data+0xafa>
    3408:	757d                	bltz	a0,3386 <input_data+0xe26>
    340a:	2212                	jal	350e <input_data+0xfae>
    340c:	50dfdaef          	jal	s5,101118 <_gp+0xfa3b8>
    3410:	c2dc                	lw	a5,4(a3)
    3412:	0fec                	mv	t6,s11
    3414:	0db6                	j	3b00 <input_data+0x15a0>
    3416:	77ea                	bnez	a5,3370 <input_data+0xe10>
    3418:	107f                	0x107f
    341a:	5db6                	beqz	a1,3406 <input_data+0xea6>
    341c:	2fa9                	srli	t6,t6,0xa
    341e:	231c                	srai	t1,t1,0x7
    3420:	d08a                	addi	ra,ra,-30
    3422:	78b0                	0x78b0
    3424:	9a25                	xori	s1,a2,-2
    3426:	6426                	bnez	s0,348e <input_data+0xf2e>
    3428:	5b94                	sw	a3,48(a5)
    342a:	3688                	srai	a3,a3,0x22
    342c:	e6da                	andi	a3,a3,22
    342e:	17c6                	j	301e <input_data+0xabe>
    3430:	b464                	and	a3,s0,s1
    3432:	2f70                	srai	t5,t5,0x1c
    3434:	d6f6                	addi	a3,a3,-3
    3436:	6c644f6b          	0x6c644f6b
    343a:	2909                	srli	s2,s2,0x2
    343c:	25755203          	lhu	tp,599(a0)
    3440:	227f96f7          	0x227f96f7
    3444:	0736                	j	37f0 <input_data+0x1290>
    3446:	7796                	bnez	a5,33aa <input_data+0xe4a>
    3448:	2dac                	srai	s11,s11,0xb
    344a:	4592                	beqz	a1,348e <input_data+0xf2e>
    344c:	140a3777          	0x140a3777
    3450:	f3c1                	bgez	a5,3360 <input_data+0xe00>
    3452:	61ce                	bnez	a1,3484 <input_data+0xf24>
    3454:	6e26                	bnez	a2,353c <input_data+0xfdc>
    3456:	6a02                	bnez	a2,34d6 <input_data+0xf76>
    3458:	f51e                	andi	a0,a0,-25
    345a:	6064                	0x6064
    345c:	7c26                	bnez	s0,3444 <input_data+0xee4>
    345e:	0b5f 939b 7556      	0x7556939b0b5f
    3464:	2a5f 7e88 5cd7      	0x5cd77e882a5f
    346a:	589601db          	0x589601db
    346e:	83c450a7          	0x83c450a7
    3472:	0021                	0x21
    3474:	5328610f          	0x5328610f
    3478:	fa75                	bgez	a2,3434 <input_data+0xed4>
    347a:	741d                	bltz	s0,33e0 <input_data+0xe80>
    347c:	aaf4                	and	a0,a3,a3
    347e:	041e                	j	36a4 <input_data+0x1144>
    3480:	3385                	srli	t2,t2,0x21
    3482:	9b627f8f          	0x9b627f8f
    3486:	0026                	j	34ae <input_data+0xf4e>
    3488:	2ddd                	srli	s11,s11,0x17
    348a:	67c2                	bnez	a5,34da <input_data+0xf7a>
    348c:	183e                	j	30ba <input_data+0xb5a>
    348e:	5f71                	sw	t3,188(sp)
    3490:	8286                	li	t0,1
    3492:	47e0                	sw	s0,76(a5)
    3494:	57fc                	sw	a5,108(a5)
    3496:	3326                	jal	2e3e <input_data+0x8de>
    3498:	e188                	0xe188
    349a:	cea26ff3          	csrrs	t6,0xcea,4
    349e:	7548                	0x7548
    34a0:	29ad                	srli	s3,s3,0xb
    34a2:	f2a17c9b          	0xf2a17c9b
    34a6:	6578                	sltu	a0,a0,a4
    34a8:	b685                	addi	s1,sp,864
    34aa:	2514                	srai	a0,a0,0x5
    34ac:	dae5                	lw	s5,120(sp)
    34ae:	470e                	beqz	a4,3510 <input_data+0xfb0>
    34b0:	88ae                	li	a7,11
    34b2:	414a                	beqz	a0,34c4 <input_data+0xf64>
    34b4:	7e1723f7          	0x7e1723f7
    34b8:	4797b60f          	0x4797b60f
    34bc:	22f9                	srli	t0,t0,0x1e
    34be:	43fe                	beqz	a5,34fc <input_data+0xf9c>
    34c0:	8234                	sub	tp,tp,a3
    34c2:	7b647c4b          	fnmsub.d	fs8,fs0,fs6,fa5
    34c6:	42cb4cf3          	0x42cb4cf3
    34ca:	33f8                	srai	t2,t2,0x3e
    34cc:	37b1                	srli	a5,a5,0x2c
    34ce:	337a                	jal	2e6c <input_data+0x90c>
    34d0:	4a41b0ab          	0x4a41b0ab
    34d4:	5511                	sw	tp,168(sp)
    34d6:	a39e5787          	0xa39e5787
    34da:	259c                	srai	a1,a1,0x7
    34dc:	4f90                	sw	a2,24(a5)
    34de:	453c                	sw	a5,72(a0)
    34e0:	202edda7          	0x202edda7
    34e4:	ee10                	0xee10
    34e6:	73d1                	bltz	a5,33fa <input_data+0xe9a>
    34e8:	2228                	srai	tp,tp,0xa
    34ea:	6ce0                	sltu	s0,s1,s0
    34ec:	dcbd                	lw	s9,236(sp)
    34ee:	45f50f7b          	0x45f50f7b
    34f2:	108a                	j	2d34 <input_data+0x7d4>
    34f4:	5899                	sw	t1,112(sp)
    34f6:	7f99                	bltz	a5,34bc <input_data+0xf5c>
    34f8:	56e2                	beqz	a3,3450 <input_data+0xef0>
    34fa:	3a06                	jal	321a <input_data+0xcba>
    34fc:	42dd5013          	srai	zero,s10,0x2d
    3500:	5bc3d43b          	0x5bc3d43b
    3504:	3271                	srli	tp,tp,0x3c
    3506:	dcd04fb7          	lui	t6,0xdcd04
    350a:	0b18                	mv	s6,t1
    350c:	bb55                	addi	a3,sp,436
    350e:	1cc8                	add	s9,s9,s2
    3510:	1c4d                	slli	s8,s8,0x33
    3512:	56f8                	sw	a4,108(a3)
    3514:	1f64                	add	t5,t5,s9
    3516:	46e372b7          	lui	t0,0x46e37
    351a:	174a                	j	30ac <input_data+0xb4c>
    351c:	247f                	0x247f
    351e:	811043f3          	0x811043f3
    3522:	1edc                	add	t4,t4,s7
    3524:	29f1                	srli	s3,s3,0x1c
    3526:	d0ed692b          	0xd0ed692b
    352a:	2b0c                	srai	s6,s6,0x3
    352c:	53807c37          	lui	s8,0x53807
    3530:	8f02                	jr	t5
    3532:	4c0565b7          	lui	a1,0x4c056
    3536:	1cfa                	j	3394 <input_data+0xe34>
    3538:	e641                	bgez	a2,3588 <input_data+0x1028>
    353a:	5238                	sw	a4,96(a2)
    353c:	0c514963          	blt	sp,t0,360e <input_data+0x10ae>
    3540:	0030356f          	jal	a0,6d42 <_end+0x742>
    3544:	81de                	li	gp,23
    3546:	37e721af          	0x37e721af
    354a:	3bd32907          	flw	fs2,957(t1)
    354e:	48ee                	beqz	s1,3608 <input_data+0x10a8>
    3550:	7e7f282b          	0x7e7f282b
    3554:	e911                	bgez	a0,35d8 <input_data+0x1078>
    3556:	bc781e93          	0xbc781e93
    355a:	f81f52e3          	ble	ra,t5,34de <input_data+0xf7e>
    355e:	1034                	0x1034
    3560:	540c                	sw	a1,40(s0)
    3562:	60b8                	sra	s1,s1,a4
    3564:	4e448da7          	0x4e448da7
    3568:	939c                	0x939c
    356a:	7ada                	bnez	a3,3500 <input_data+0xfa0>
    356c:	8e8d                	addi	a1,a3,3
    356e:	188c                	add	a7,a7,gp
    3570:	efe9                	bgez	a5,364a <input_data+0x10ea>
    3572:	1a16                	j	3296 <input_data+0xd36>
    3574:	1e9ca763          	0x1e9ca763
    3578:	671f 1235 2f27      	0x2f271235671f
    357e:	661d                	bltz	a2,35e4 <input_data+0x1084>
    3580:	17155447          	0x17155447
    3584:	291f 7157 83a9      	0x83a97157291f
    358a:	ccf5266f          	jal	a2,fff56258 <_gp+0xfff4f4f8>
    358e:	496d                	sw	s11,144(sp)
    3590:	63a5                	bltz	a5,35b8 <input_data+0x1058>
    3592:	1542                	j	3022 <input_data+0xac2>
    3594:	a455                	addi	a3,sp,516
    3596:	0dd6                	j	3c8a <input_data+0x172a>
    3598:	8322                	li	t1,8
    359a:	6190                	xor	a1,a1,a2
    359c:	8242                	li	tp,16
    359e:	ed641203          	lh	tp,-298(s0)
    35a2:	7cd8                	0x7cd8
    35a4:	a2b8                	sub	s0,a3,a4
    35a6:	6530                	srl	a0,a0,a2
    35a8:	02a1                	slli	t0,t0,0x8
    35aa:	52e1                	sw	s8,100(sp)
    35ac:	a814                	add	a0,s0,a3
    35ae:	6d49                	bltz	a0,3680 <input_data+0x1120>
    35b0:	1554                	add	a0,a0,s5
    35b2:	47ba                	beqz	a5,3600 <input_data+0x10a0>
    35b4:	b802                	lui	a6,0xfffe0
    35b6:	0309                	slli	t1,t1,0x2
    35b8:	7e0c                	0x7e0c
    35ba:	4f6a                	beqz	a4,3694 <input_data+0x1134>
    35bc:	5a46b2c3          	fmadd.d	ft5,fa3,ft4,fa1,rup
    35c0:	69d9                	bltz	a1,3656 <input_data+0x10f6>
    35c2:	3632                	jal	30ce <input_data+0xb6e>
    35c4:	adc9                	addi	a0,sp,724
    35c6:	7221                	bltz	a2,34ce <input_data+0xf6e>
    35c8:	0b52                	j	3b5c <input_data+0x15fc>
    35ca:	05a3216b          	0x5a3216b
    35ce:	3d91                	srli	s11,s11,0x24
    35d0:	4881f2b7          	lui	t0,0x4881f
    35d4:	06c34b8b          	0x6c34b8b
    35d8:	4f41                	sw	a6,156(sp)
    35da:	0fd74577          	0xfd74577
    35de:	2fb8                	srai	t6,t6,0xe
    35e0:	227f                	0x227f
    35e2:	3f1a                	jal	3568 <input_data+0x1008>
    35e4:	5cc9                	sw	s2,120(sp)
    35e6:	19c1                	slli	s3,s3,0x30
    35e8:	a605                	addi	s1,sp,768
    35ea:	7f10                	0x7f10
    35ec:	2449                	srli	s0,s0,0x12
    35ee:	4609                	sw	sp,12(sp)
    35f0:	3495                	srli	s1,s1,0x25
    35f2:	5f89                	sw	sp,252(sp)
    35f4:	b74e                	lui	a4,0xffff3
    35f6:	3462                	jal	300e <input_data+0xaae>
    35f8:	1a9b193f 0f5c9eb7 	0xf5c9eb71a9b193f
    3600:	21dc                	srai	gp,gp,0x17
    3602:	2fb9                	srli	t6,t6,0xe
    3604:	2390                	srai	t2,t2,0x4
    3606:	52b9                	sw	a4,100(sp)
    3608:	5dbc                	sw	a5,120(a1)
    360a:	777e                	bnez	a4,3588 <input_data+0x1028>
    360c:	07e4                	mv	a5,s9
    360e:	f6013b8f          	0xf6013b8f
    3612:	5520                	sw	s0,104(a0)
    3614:	2930                	srai	s2,s2,0xc
    3616:	b2da0a7b          	0xb2da0a7b
    361a:	0476                	j	3856 <input_data+0x12f6>
    361c:	0af0                	mv	s5,t3
    361e:	ef612593          	slti	a1,sp,-266
    3622:	4469                	sw	s10,8(sp)
    3624:	e19d                	bgez	a1,364a <input_data+0x10ea>
    3626:	06b6                	j	3992 <input_data+0x1432>
    3628:	1d74                	add	s10,s10,t4
    362a:	3d4e                	jal	34dc <input_data+0xf7c>
    362c:	2dc1                	srli	s11,s11,0x10
    362e:	70c4                	0x70c4
    3630:	7398                	0x7398
    3632:	7476                	bnez	s0,35ae <input_data+0x104e>
    3634:	12d4                	add	t0,t0,s5
    3636:	1cb4                	add	s9,s9,a3
    3638:	1886                	j	3298 <input_data+0xd38>
    363a:	1a04                	add	s4,s4,ra
    363c:	5ea0                	sw	s0,120(a3)
    363e:	82a85f6f          	jal	t5,fff88668 <_gp+0xfff81908>
    3642:	f449044f          	fnmadd.h	fs0,fs2,ft4,ft10,rne
    3646:	5e3d                	sw	a5,60(sp)
    3648:	1b717563          	bleu	s7,sp,37f2 <input_data+0x1292>
    364c:	88e1                	andi	s0,s1,2
    364e:	7185                	bltz	a1,356e <input_data+0x100e>
    3650:	f2c1                	bgez	a3,3560 <input_data+0x1000>
    3652:	2edd                	srli	t4,t4,0x17
    3654:	1fe2                	j	362c <input_data+0x10cc>
    3656:	1571                	slli	a0,a0,0x3c
    3658:	c58d                	lw	a1,192(sp)
    365a:	82bc7257          	0x82bc7257
    365e:	003d                	0x3d
    3660:	5eb2                	beqz	a3,362c <input_data+0x10cc>
    3662:	641f 5118 4430      	0x44305118641f
    3668:	4838                	sw	a4,80(s0)
    366a:	c6375727          	0xc6375727
    366e:	292d                	srli	s2,s2,0xb
    3670:	50ec                	sw	a1,100(s1)
    3672:	b4405a5b          	0xb4405a5b
    3676:	15aa                	j	3140 <input_data+0xbe0>
    3678:	f556                	andi	a0,a0,-11
    367a:	8743583b          	0x8743583b
    367e:	d5303e3b          	0xd5303e3b
    3682:	a7e9795b          	0xa7e9795b
    3686:	0d08                	mv	s10,sp
    3688:	e05e                	0xe05e
    368a:	3181                	srli	gp,gp,0x20
    368c:	d8e5                	lw	a7,120(sp)
    368e:	3ad616c3          	fmadd.d	fa3,fa2,fa3,ft7,rtz
    3692:	0675                	slli	a2,a2,0x1d
    3694:	f25c                	0xf25c
    3696:	057f                	0x57f
    3698:	cc9f 0cfa b38c      	0xb38c0cfacc9f
    369e:	5abc                	sw	a5,112(a3)
    36a0:	71b9                	bltz	a1,35ae <input_data+0x104e>
    36a2:	8d403cdb          	vlsegstwu	vx25,zero,s4,5
    36a6:	53de                	beqz	a5,35dc <input_data+0x107c>
    36a8:	33226d3b          	0x33226d3b
    36ac:	ce81                	lw	t4,0(sp)
    36ae:	7556                	bnez	a0,3622 <input_data+0x10c2>
    36b0:	0bc1                	slli	s7,s7,0x10
    36b2:	5700                	sw	s0,40(a4)
    36b4:	495f 502b 6ac2      	0x6ac2502b495f
    36ba:	2a4c                	srai	s4,s4,0x13
    36bc:	5e7e                	beqz	a2,36ba <input_data+0x115a>
    36be:	1f06                	j	365e <input_data+0x10fe>
    36c0:	8d0d                	addi	a1,a0,3
    36c2:	7a1a                	bnez	a2,3648 <input_data+0x10e8>
    36c4:	ac82                	jalr	s9
    36c6:	696d                	bltz	a0,3780 <input_data+0x1220>
    36c8:	3c6ee86b          	0x3c6ee86b
    36cc:	eb55                	bgez	a4,3780 <input_data+0x1220>
    36ce:	54be65e7          	0x54be65e7
    36d2:	3d2d                	srli	s10,s10,0x2b
    36d4:	8b7a                	li	s6,30
    36d6:	5222                	beqz	a2,35de <input_data+0x107e>
    36d8:	e2f0                	0xe2f0
    36da:	5cfd                	sw	t6,120(sp)
    36dc:	8ed1                	ori	a2,a3,3
    36de:	085b2057          	0x85b2057
    36e2:	5b74                	sw	a3,116(a4)
    36e4:	0239                	slli	tp,tp,0xe
    36e6:	1f79                	slli	t5,t5,0x3e
    36e8:	78276307          	0x78276307
    36ec:	13640e9b          	0x13640e9b
    36f0:	0be4                	mv	s7,s9
    36f2:	43cd                	sw	s3,196(sp)
    36f4:	8c1c                	sub	s8,s8,t2
    36f6:	1d7a704b          	fnmsub.h	ft0,fs4,fs7,ft3
    36fa:	6f86                	bnez	a5,37da <input_data+0x127a>
    36fc:	6351                	bltz	a4,3710 <input_data+0x11b0>
    36fe:	2aac                	srai	s5,s5,0xb
    3700:	09fe3077          	0x9fe3077
    3704:	1e4c                	add	t3,t3,s3
    3706:	bae34d03          	lbu	s10,-1106(t1)
    370a:	45df 5ebc 784d      	0x784d5ebc45df
    3710:	744d6397          	auipc	t2,0x744d6
    3714:	463a                	beqz	a2,3762 <input_data+0x1202>
    3716:	634e                	bnez	a4,3748 <input_data+0x11e8>
    3718:	a105                	addi	s1,sp,128
    371a:	6d5d                	bltz	a0,3810 <input_data+0x12b0>
    371c:	32ee431b          	0x32ee431b
    3720:	c920                	lw	s0,80(a0)
    3722:	1268                	add	tp,tp,s10
    3724:	6e48                	slt	a0,a2,a0
    3726:	1df4                	add	s11,s11,t4
    3728:	b7c8                	or	a3,a5,a0
    372a:	7d82                	bnez	a1,36ea <input_data+0x118a>
    372c:	3d99                	srli	s11,s11,0x26
    372e:	60d6                	bnez	s1,3762 <input_data+0x1202>
    3730:	49c4                	sw	s1,20(a1)
    3732:	1ea6                	j	369a <input_data+0x113a>
    3734:	8a86                	li	s5,1
    3736:	3a2d                	srli	s4,s4,0x2b
    3738:	0d8e43d3          	fsub.h	ft7,ft8,fs8,rmm
    373c:	d5de                	addi	a1,a1,-9
    373e:	3661                	srli	a2,a2,0x38
    3740:	4040                	sw	s0,4(s0)
    3742:	2ed9                	srli	t4,t4,0x16
    3744:	8f99                	addi	a4,a5,3
    3746:	1ae8                	add	s5,s5,s10
    3748:	90c0                	0x90c0
    374a:	84c10ca3          	sb	a2,-1959(sp)
    374e:	7b4e                	bnez	a4,3700 <input_data+0x11a0>
    3750:	8f21                	xori	s0,a4,3
    3752:	06fd                	slli	a3,a3,0x1f
    3754:	736f35b7          	lui	a1,0x736f3
    3758:	c4ff                	0xc4ff
    375a:	c41b0c8f          	0xc41b0c8f
    375e:	092d7643          	fmadd.s	fa2,fs10,fs2,ft1
    3762:	3862                	jal	337a <input_data+0xe1a>
    3764:	a9d0                	or	a0,a1,a2
    3766:	d94853fb          	0xd94853fb
    376a:	6202                	bnez	a2,376a <input_data+0x120a>
    376c:	43e409b7          	lui	s3,0x43e40
    3770:	2870b66f          	jal	a2,f1f6 <_gp+0x8496>
    3774:	4c3ceec7          	fmsub.h	ft9,fs9,ft3,fs1,unknown
    3778:	4dbe                	beqz	a1,3866 <input_data+0x1306>
    377a:	2b26                	jal	3d22 <input_data+0x17c2>
    377c:	3f66                	jal	3734 <input_data+0x11d4>
    377e:	0ba5                	slli	s7,s7,0x9
    3780:	1fe2                	j	3758 <input_data+0x11f8>
    3782:	5952                	beqz	a0,3716 <input_data+0x11b6>
    3784:	d0de                	addi	ra,ra,-9
    3786:	3b90                	srai	s7,s7,0x24
    3788:	d69d                	lw	a3,228(sp)
    378a:	6a2e634b          	fnmsub.d	ft6,ft8,ft2,fa3,unknown
    378e:	6bb957d7          	0x6bb957d7
    3792:	5d11                	sw	tp,184(sp)
    3794:	6d30                	srl	a2,a0,a2
    3796:	0906                	j	3c36 <input_data+0x16d6>
    3798:	daa0                	lw	s0,112(a3)
    379a:	52a12997          	auipc	s3,0x52a12
    379e:	60b9                	bltz	s1,37ac <input_data+0x124c>
    37a0:	b44a                	lui	s0,0xffff2
    37a2:	2439                	srli	s0,s0,0xe
    37a4:	6f58                	slt	a4,a4,a4
    37a6:	042a                	j	39b0 <input_data+0x1450>
    37a8:	3cf2                	jal	3604 <input_data+0x10a4>
    37aa:	204c44af          	0x204c44af
    37ae:	3f66                	jal	3766 <input_data+0x1206>
    37b0:	a394                	add	s0,a5,a3
    37b2:	4fc1                	sw	a6,220(sp)
    37b4:	472e                	beqz	a4,381e <input_data+0x12be>
    37b6:	034e                	j	3968 <input_data+0x1408>
    37b8:	8cce                	li	s9,19
    37ba:	4c2d                	sw	a1,24(sp)
    37bc:	31e3fa47          	fmsub.s	fs4,ft7,ft10,ft6
    37c0:	7220fd73          	csrrc	s10,0x722,1
    37c4:	b8b0                	sub	a4,s1,a2
    37c6:	3e8d                	srli	t4,t4,0x23
    37c8:	54b6                	beqz	s1,3734 <input_data+0x11d4>
    37ca:	09a0                	mv	s3,s0
    37cc:	deea                	addi	t4,t4,-6
    37ce:	04ca                	j	3a20 <input_data+0x14c0>
    37d0:	625f 253c 47ff      	0x47ff253c625f
    37d6:	346a                	jal	31f0 <input_data+0xc90>
    37d8:	3f95e34b          	0x3f95e34b
    37dc:	049e                	j	3a42 <input_data+0x14e2>
    37de:	51fc                	sw	a5,100(a1)
    37e0:	5d0e34db          	0x5d0e34db
    37e4:	2382                	jal	39a4 <input_data+0x1444>
    37e6:	038a                	j	39a8 <input_data+0x1448>
    37e8:	399987cf          	fnmadd.s	fa5,fs3,fs9,ft7,rne
    37ec:	35d0                	srai	a1,a1,0x34
    37ee:	79d5                	bltz	a1,37a2 <input_data+0x1242>
    37f0:	2b82                	jal	3db0 <input_data+0x1850>
    37f2:	4638                	sw	a4,72(a2)
    37f4:	4e25                	sw	s1,28(sp)
    37f6:	4520                	sw	s0,72(a0)
    37f8:	dc36                	addi	s8,s8,-19
    37fa:	115c                	add	sp,sp,s7
    37fc:	0a50ba03          	0xa50ba03
    3800:	b9a9                	addi	a0,sp,248
    3802:	ebc45297          	auipc	t0,0xebc45
    3806:	26dd                	srli	a3,a3,0x17
    3808:	56e2                	beqz	a3,3760 <input_data+0x1200>
    380a:	6b6d                	bltz	a4,38c4 <input_data+0x1364>
    380c:	7dfd                	bltz	a1,380a <input_data+0x12aa>
    380e:	5cb9                	sw	a4,120(sp)
    3810:	18b0                	add	a7,a7,a2
    3812:	2530                	srai	a0,a0,0xc
    3814:	b1a2                	lui	gp,0xfffe8
    3816:	5e28                	sw	a0,120(a2)
    3818:	624efe03          	0x624efe03
    381c:	10244d23          	0x10244d23
    3820:	14df5beb          	0x14df5beb
    3824:	46d09d13          	0x46d09d13
    3828:	3548b68b          	0x3548b68b
    382c:	0dde                	j	3f22 <input_data+0x19c2>
    382e:	1fda                	j	3804 <input_data+0x12a4>
    3830:	9926                	li	s2,-23
    3832:	3f00                	srai	t5,t5,0x20
    3834:	323a                	jal	3142 <input_data+0xbe2>
    3836:	48c70dbf 133b7e3c 	0x133b7e3c48c70dbf
    383e:	2e6c                	srai	t3,t3,0x1b
    3840:	cfda                	addi	t6,t6,22
    3842:	a4ed0ef3          	0xa4ed0ef3
    3846:	063c                	mv	a2,a5
    3848:	d49f 4f2b b592      	0xb5924f2bd49f
    384e:	6f6a                	bnez	a4,3928 <input_data+0x13c8>
    3850:	6e24d8eb          	0x6e24d8eb
    3854:	6db5                	bltz	a1,3940 <input_data+0x13e0>
    3856:	0f6b128b          	0xf6b128b
    385a:	1e30                	add	t3,t3,a2
    385c:	845e                	li	s0,23
    385e:	491c6bc7          	fmsub.s	fs7,fs8,fa7,fs1,unknown
    3862:	2435                	srli	s0,s0,0xd
    3864:	ecf0                	0xecf0
    3866:	5ce0                	sw	s0,124(s1)
    3868:	493e456f          	jal	a0,e84fa <_gp+0xe179a>
    386c:	832c                	sub	t1,t1,a1
    386e:	d0102aef          	jal	s5,fff0656e <_gp+0xffeff80e>
    3872:	7501                	bltz	a0,37b2 <input_data+0x1252>
    3874:	de19                	lw	t3,164(sp)
    3876:	3c49                	srli	s8,s8,0x32
    3878:	b8f5                	addi	a3,sp,124
    387a:	47d2                	beqz	a5,38ce <input_data+0x136e>
    387c:	21bf03af          	0x21bf03af
    3880:	3dfe                	jal	377e <input_data+0x121e>
    3882:	18fa                	j	34e0 <input_data+0xf80>
    3884:	7d20                	0x7d20
    3886:	99062bf3          	csrrs	s7,0x990,a2
    388a:	ceef1f03          	lh	t5,-786(t5)
    388e:	f9ef67b7          	lui	a5,0xf9ef6
    3892:	5ff3644b          	0x5ff3644b
    3896:	56be                	beqz	a3,3804 <input_data+0x12a4>
    3898:	69c4                	0x69c4
    389a:	7e4a                	bnez	a2,386c <input_data+0x130c>
    389c:	6fa2                	bnez	a5,3964 <input_data+0x1404>
    389e:	52b62b7b          	0x52b62b7b
    38a2:	5d51                	sw	s4,184(sp)
    38a4:	261f 2b0e 5867      	0x58672b0e261f
    38aa:	2c15                	srli	s8,s8,0x5
    38ac:	34968f93          	addi	t6,a3,841 # 68f4a0b9 <_gp+0x68f43359>
    38b0:	b46e                	lui	s0,0xffffb
    38b2:	3734                	srai	a4,a4,0x2d
    38b4:	3b99408f          	0x3b99408f
    38b8:	94d2                	li	s1,-12
    38ba:	7a3f4e8f          	0x7a3f4e8f
    38be:	6ca90747          	fmsub.h	fa4,fs2,fa0,fa3,rne
    38c2:	615d                	bltz	a0,38f8 <input_data+0x1398>
    38c4:	3372                	jal	3260 <input_data+0xd00>
    38c6:	4bae                	beqz	a5,3970 <input_data+0x1410>
    38c8:	6ad2                	bnez	a3,395c <input_data+0x13fc>
    38ca:	f67f16a7          	fsh	ft7,-147(t5)
    38ce:	3e38                	srai	t3,t3,0x2e
    38d0:	27ac473b          	0x27ac473b
    38d4:	3417d43b          	0x3417d43b
    38d8:	74f2                	bnez	s1,3834 <input_data+0x12d4>
    38da:	2aca                	jal	3e2c <input_data+0x18cc>
    38dc:	c95e                	addi	s2,s2,23
    38de:	eda17f4b          	fnmsub.h	ft10,ft2,fs10,ft9
    38e2:	2d68                	srai	s10,s10,0x1a
    38e4:	25c2                	jal	3bb4 <input_data+0x1654>
    38e6:	5fa0                	sw	s0,120(a5)
    38e8:	e2fd                	bgez	a3,3926 <input_data+0x13c6>
    38ea:	540d27bb          	0x540d27bb
    38ee:	1e9c                	add	t4,t4,t2
    38f0:	930e                	li	t1,-29
    38f2:	59a5                	sw	s1,240(sp)
    38f4:	9488                	0x9488
    38f6:	4349                	sw	s2,132(sp)
    38f8:	6e11                	bltz	a2,39bc <input_data+0x145c>
    38fa:	05ee                	j	3bf4 <input_data+0x1694>
    38fc:	deec                	lw	a1,124(a3)
    38fe:	2b16                	jal	3ea2 <input_data+0x1942>
    3900:	1714                	add	a4,a4,t0
    3902:	3e6d                	srli	t3,t3,0x3b
    3904:	7518                	0x7518
    3906:	20d0                	srai	ra,ra,0x14
    3908:	345c                	srai	s0,s0,0x37
    390a:	43c8408b          	0x43c8408b
    390e:	1144                	add	sp,sp,a7
    3910:	68ec                	0x68ec
    3912:	0ce8                	mv	s9,s10
    3914:	c688                	lw	a0,8(a3)
    3916:	4602                	beqz	a2,3956 <input_data+0x13f6>
    3918:	5676                	beqz	a2,3894 <input_data+0x1334>
    391a:	3268                	srai	tp,tp,0x3a
    391c:	c924                	lw	s1,80(a0)
    391e:	5ca1                	sw	s0,120(sp)
    3920:	9562                	li	a0,-8
    3922:	226a                	jal	3a3c <input_data+0x14dc>
    3924:	5b1f 2f1a d05b      	0xd05b2f1a5b1f
    392a:	2845                	srli	a6,a6,0x11
    392c:	78f220af          	0x78f220af
    3930:	8960                	sub	s2,s2,s8
    3932:	099f a911 0da5      	0xda5a911099f
    3938:	2c54a803          	lw	a6,709(s1) # 65a82c5 <_gp+0x65a1565>
    393c:	9ad6                	li	s5,-11
    393e:	50a2                	beqz	s1,3846 <input_data+0x12e6>
    3940:	3314                	srai	t1,t1,0x25
    3942:	7e90                	0x7e90
    3944:	a565                	addi	s1,sp,652
    3946:	32cd                	srli	t0,t0,0x33
    3948:	2ba0                	srai	s7,s7,0x8
    394a:	4cf4                	sw	a3,92(s1)
    394c:	c174                	lw	a3,68(a0)
    394e:	1abe                	j	36bc <input_data+0x115c>
    3950:	4bc0                	sw	s0,20(a5)
    3952:	2af7746f          	jal	s0,7b400 <_gp+0x746a0>
    3956:	9973370b          	0x9973370b
    395a:	3152                	jal	31ee <input_data+0xc8e>
    395c:	aba4                	sub	a0,a5,s1
    395e:	431d                	sw	t2,132(sp)
    3960:	b420                	sub	a3,s0,s0
    3962:	0bcc                	mv	s7,s3
    3964:	8f9a                	li	t6,6
    3966:	10c4                	add	ra,ra,a7
    3968:	45da2b4b          	fnmsub.h	fs6,fs4,ft9,fs0,rdn
    396c:	7cb6                	bnez	s1,3958 <input_data+0x13f8>
    396e:	ed702d97          	auipc	s11,0xed702
    3972:	2381                	srli	t2,t2,0x0
    3974:	2954                	srai	s2,s2,0x15
    3976:	7ef4                	0x7ef4
    3978:	1f9c                	add	t6,t6,t2
    397a:	55a9                	sw	a0,232(sp)
    397c:	5646a03f 2d08d921 	0x2d08d9215646a03f
    3984:	a5cd                	addi	a1,sp,708
    3986:	7f02                	bnez	a4,3946 <input_data+0x13e6>
    3988:	fa38                	0xfa38
    398a:	6d62                	bnez	a0,3a62 <input_data+0x1502>
    398c:	754a                	bnez	a0,38de <input_data+0x137e>
    398e:	89185c3f 35c46e96 	0x35c46e9689185c3f
    3996:	398c                	srai	s3,s3,0x23
    3998:	d6ad                	lw	a3,232(sp)
    399a:	2812                	jal	3d9e <input_data+0x183e>
    399c:	3aae                	jal	3706 <input_data+0x11a6>
    399e:	0ae2                	j	3ef6 <input_data+0x1996>
    39a0:	8aa1                	xori	s0,a3,2
    39a2:	0ce6                	j	401a <input_data+0x1aba>
    39a4:	aeb6                	lui	t4,0xd
    39a6:	4ef5                	sw	t4,92(sp)
    39a8:	463a                	beqz	a2,39f6 <input_data+0x1496>
    39aa:	443a                	beqz	s0,39f8 <input_data+0x1498>
    39ac:	2e78                	srai	t3,t3,0x1e
    39ae:	1b16                	j	3752 <input_data+0x11f2>
    39b0:	48bfb5ef          	jal	a1,ff63a <_gp+0xf88da>
    39b4:	e4a2                	andi	s1,s1,8
    39b6:	5aa6                	beqz	a3,395e <input_data+0x13fe>
    39b8:	d36e                	addi	t1,t1,-5
    39ba:	6b25                	bltz	a4,3a62 <input_data+0x1502>
    39bc:	f286                	andi	t0,t0,-31
    39be:	5e79                	sw	t5,60(sp)
    39c0:	2c50                	srai	s8,s8,0x14
    39c2:	2f82                	jal	4182 <input_data+0x1c22>
    39c4:	9de8                	0x9de8
    39c6:	6c91                	bltz	s1,3a8a <input_data+0x152a>
    39c8:	e55e                	andi	a0,a0,23
    39ca:	68357ed7          	0x68357ed7
    39ce:	3a04                	srai	s4,s4,0x21
    39d0:	cef1                	lw	t4,28(sp)
    39d2:	3b1e                	jal	3778 <input_data+0x1218>
    39d4:	a34d                	addi	a1,sp,388
    39d6:	2880                	srai	a7,a7,0x0
    39d8:	74ec5c83          	lhu	s9,1870(s8) # 5380774e <_gp+0x538009ee>
    39dc:	5531                	sw	a2,168(sp)
    39de:	7cd2                	bnez	s1,39b2 <input_data+0x1452>
    39e0:	1753184b          	0x1753184b
    39e4:	8e1a                	li	t3,6
    39e6:	5fa0                	sw	s0,120(a5)
    39e8:	e330                	0xe330
    39ea:	2262                	jal	3b02 <input_data+0x15a2>
    39ec:	436d                	sw	s11,132(sp)
    39ee:	6610                	sll	a2,a2,a2
    39f0:	e22a                	andi	tp,tp,10
    39f2:	1488                	add	s1,s1,sp
    39f4:	1664                	add	a2,a2,s9
    39f6:	42ec                	sw	a1,68(a3)
    39f8:	62e38bab          	0x62e38bab
    39fc:	2e2c                	srai	t3,t3,0xb
    39fe:	4f35                	sw	a3,156(sp)
    3a00:	4258                	sw	a4,4(a2)
    3a02:	02e8                	mv	t0,s10
    3a04:	c368                	lw	a0,68(a4)
    3a06:	f5ee0ebf ae3b6d70 	0xae3b6d70f5ee0ebf
    3a0e:	5d39                	sw	a4,184(sp)
    3a10:	47ea                	beqz	a5,3a6a <input_data+0x150a>
    3a12:	52a2                	beqz	a3,391a <input_data+0x13ba>
    3a14:	000d                	0xd
    3a16:	1cf5                	slli	s9,s9,0x3d
    3a18:	d6fc                	lw	a5,108(a3)
    3a1a:	0234                	mv	tp,a3
    3a1c:	7742                	bnez	a4,396c <input_data+0x140c>
    3a1e:	1540                	add	a0,a0,a6
    3a20:	0326                	j	3bc8 <input_data+0x1668>
    3a22:	63de                	bnez	a5,3a58 <input_data+0x14f8>
    3a24:	19a2b58b          	0x19a2b58b
    3a28:	5bd8                	sw	a4,52(a5)
    3a2a:	182e74c7          	fmsub.s	fs1,ft8,ft2,ft3
    3a2e:	6a60                	0x6a60
    3a30:	6d9de20f          	0x6d9de20f
    3a34:	ae28                	sub	a1,a2,a0
    3a36:	5f21                	sw	s0,188(sp)
    3a38:	119f8227          	0x119f8227
    3a3c:	10d2                	j	3290 <input_data+0xd30>
    3a3e:	0b8f180b          	0xb8f180b
    3a42:	7e0a                	bnez	a2,3a04 <input_data+0x14a4>
    3a44:	2220                	srai	tp,tp,0x8
    3a46:	5a55                	sw	s5,52(sp)
    3a48:	2062                	jal	3a60 <input_data+0x1500>
    3a4a:	5be2                	beqz	a5,39e2 <input_data+0x1482>
    3a4c:	56126e87          	0x56126e87
    3a50:	0341                	slli	t1,t1,0x10
    3a52:	486d                	sw	s11,16(sp)
    3a54:	f0a0                	0xf0a0
    3a56:	f7b7649b          	0xf7b7649b
    3a5a:	5c26                	beqz	s0,3a42 <input_data+0x14e2>
    3a5c:	420c                	sw	a1,0(a2)
    3a5e:	7190                	0x7190
    3a60:	7fd8                	0x7fd8
    3a62:	207a                	jal	3a80 <input_data+0x1520>
    3a64:	26e9                	srli	a3,a3,0x1a
    3a66:	7b55                	bltz	a4,3a1a <input_data+0x14ba>
    3a68:	c97d                	lw	s2,220(sp)
    3a6a:	64a6                	bnez	s1,3ad2 <input_data+0x1572>
    3a6c:	6075                	bltz	s0,3aa8 <input_data+0x1548>
    3a6e:	544a                	beqz	s0,39c0 <input_data+0x1460>
    3a70:	13ccfe2f          	0x13ccfe2f
    3a74:	25aa979b          	0x25aa979b
    3a78:	193b0a53          	fdiv.s	fs4,fs6,fs3,rne
    3a7c:	4f730137          	lui	sp,0x4f730
    3a80:	3aed                	srli	s5,s5,0x3b
    3a82:	2085                	srli	ra,ra,0x1
    3a84:	6408                	sll	s0,s0,a0
    3a86:	127e                	j	33c4 <input_data+0xe64>
    3a88:	6cd4                	slt	a3,s1,a3
    3a8a:	eb5f3947          	fmsub.d	fs2,ft10,fs5,ft9,rup
    3a8e:	5cd41633          	0x5cd41633
    3a92:	79c3733f 1df96604 	0x1df9660479c3733f
    3a9a:	03e500af          	0x3e500af
    3a9e:	094a                	j	3f30 <input_data+0x19d0>
    3aa0:	29c439a7          	fsd	ft8,659(s0)
    3aa4:	263e                	jal	3dd2 <input_data+0x1872>
    3aa6:	56df 2d0a 4efb      	0x4efb2d0a56df
    3aac:	2f1a                	jal	4232 <input_data+0x1cd2>
    3aae:	0a42                	j	3fbe <input_data+0x1a5e>
    3ab0:	bfb6                	lui	t6,0xfffed
    3ab2:	2799                	srli	a5,a5,0x6
    3ab4:	65a60287          	0x65a60287
    3ab8:	3942                	jal	3748 <input_data+0x11e8>
    3aba:	1675                	slli	a2,a2,0x3d
    3abc:	973c                	0x973c
    3abe:	57c5                	sw	a7,236(sp)
    3ac0:	2e08                	srai	t3,t3,0x2
    3ac2:	147c                	add	s0,s0,t6
    3ac4:	9932                	li	s2,-20
    3ac6:	51b0                	sw	a2,96(a1)
    3ac8:	1efe                	j	3a46 <input_data+0x14e6>
    3aca:	0fd1                	slli	t6,t6,0x14
    3acc:	8a2c                	sub	s4,s4,a1
    3ace:	7bf2                	bnez	a5,3a6a <input_data+0x150a>
    3ad0:	6522                	bnez	a0,3b18 <input_data+0x15b8>
    3ad2:	6b7a                	bnez	a4,3b70 <input_data+0x1610>
    3ad4:	4855                	sw	s5,16(sp)
    3ad6:	1ef2                	j	3a32 <input_data+0x14d2>
    3ad8:	fea1                	bgez	a3,3aa0 <input_data+0x1540>
    3ada:	5bb1                	sw	a2,244(sp)
    3adc:	4038                	sw	a4,64(s0)
    3ade:	7320                	0x7320
    3ae0:	3a7a                	jal	37fe <input_data+0x129e>
    3ae2:	468a                	beqz	a3,3b24 <input_data+0x15c4>
    3ae4:	58cb01ab          	0x58cb01ab
    3ae8:	9709                	addi	a0,a4,-3
    3aea:	1d82                	j	39aa <input_data+0x144a>
    3aec:	2fbefe13          	andi	t3,t4,763
    3af0:	5874                	sw	a3,116(s0)
    3af2:	0a8e                	j	4054 <input_data+0x1af4>
    3af4:	4d08aadb          	0x4d08aadb
    3af8:	8da5                	xori	s1,a1,3
    3afa:	505e                	beqz	s0,3a30 <input_data+0x14d0>
    3afc:	5c6b23e3          	0x5c6b23e3
    3b00:	d515                	lw	a0,100(sp)
    3b02:	2995                	srli	s3,s3,0x5
    3b04:	ffd4                	0xffd4
    3b06:	330e                	jal	34a8 <input_data+0xf48>
    3b08:	76c9de3b          	0x76c9de3b
    3b0c:	db78                	lw	a4,116(a4)
    3b0e:	46e0                	sw	s0,76(a3)
    3b10:	0d36494b          	fnmsub.h	fs2,fa2,fs3,ft1,rmm
    3b14:	0957f94f          	fnmadd.s	fs2,fa5,fs5,ft1
    3b18:	4c36                	beqz	s0,3c04 <input_data+0x16a4>
    3b1a:	024d                	slli	tp,tp,0x13
    3b1c:	379a                	jal	36e2 <input_data+0x1182>
    3b1e:	d2d71667          	0xd2d71667
    3b22:	d9767be3          	bleu	s7,a2,38b8 <input_data+0x1358>
    3b26:	7d5c                	0x7d5c
    3b28:	14624fa3          	0x14624fa3
    3b2c:	29a4b67b          	0x29a4b67b
    3b30:	0ad6                	j	40a4 <input_data+0x1b44>
    3b32:	20a316b7          	lui	a3,0x20a31
    3b36:	4798                	sw	a4,8(a5)
    3b38:	97d2                	li	a5,-12
    3b3a:	4c06                	beqz	s0,3c1a <input_data+0x16ba>
    3b3c:	394c                	srai	s2,s2,0x33
    3b3e:	17bc                	add	a5,a5,a5
    3b40:	2fc79aeb          	0x2fc79aeb
    3b44:	cc41                	lw	s8,16(sp)
    3b46:	40d2                	beqz	s1,3b5a <input_data+0x15fa>
    3b48:	dd86                	addi	s11,s11,-31
    3b4a:	3276                	jal	3486 <input_data+0xf26>
    3b4c:	a2ea                	lui	t0,0x1a
    3b4e:	6e30                	srl	a2,a2,a2
    3b50:	4cc2bb0b          	0x4cc2bb0b
    3b54:	537361cf          	fnmadd.d	ft3,ft6,fs7,fa0,unknown
    3b58:	5ed6                	beqz	a3,3b4c <input_data+0x15ec>
    3b5a:	5f92                	beqz	a5,3b1e <input_data+0x15be>
    3b5c:	6fb9                	bltz	a5,3c2a <input_data+0x16ca>
    3b5e:	497e                	beqz	a0,3c1c <input_data+0x16bc>
    3b60:	81e5                	andi	s1,a1,0
    3b62:	6803304f          	fnmadd.s	ft0,ft6,ft0,fa3,rup
    3b66:	fea4292b          	0xfea4292b
    3b6a:	b88a6ee3          	bltu	s4,s0,3706 <input_data+0x11a6>
    3b6e:	2cbd                	srli	s9,s9,0xf
    3b70:	91ec                	0x91ec
    3b72:	100b4bc7          	fmsub.s	fs7,fs6,ft0,ft2,rmm
    3b76:	3348                	srai	t1,t1,0x32
    3b78:	a1b8                	sub	s0,a1,a4
    3b7a:	32b546e3          	blt	a0,a1,46a6 <verify_data+0x146>
    3b7e:	7214                	0x7214
    3b80:	4d02                	beqz	a0,3c40 <input_data+0x16e0>
    3b82:	3869                	srli	a6,a6,0x3a
    3b84:	f0ee                	andi	ra,ra,-5
    3b86:	6c34                	srl	a3,s0,a3
    3b88:	0379                	slli	t1,t1,0x1e
    3b8a:	2c52                	jal	419e <input_data+0x1c3e>
    3b8c:	df4c                	lw	a1,60(a4)
    3b8e:	7165                	bltz	a0,3ac6 <input_data+0x1566>
    3b90:	58c2                	beqz	s1,3b20 <input_data+0x15c0>
    3b92:	4c11                	sw	tp,24(sp)
    3b94:	d711                	lw	a4,36(sp)
    3b96:	dc48778b          	0xdc48778b
    3b9a:	253a                	jal	3e28 <input_data+0x18c8>
    3b9c:	3b66                	jal	3954 <input_data+0x13f4>
    3b9e:	7dac                	0x7dac
    3ba0:	dd6a                	addi	s10,s10,-6
    3ba2:	c9d6745b          	0xc9d6745b
    3ba6:	397a                	jal	3844 <input_data+0x12e4>
    3ba8:	d378                	lw	a4,100(a4)
    3baa:	45cc                	sw	a1,12(a1)
    3bac:	7ec6e397          	auipc	t2,0x7ec6e
    3bb0:	8964                	sub	s2,s2,s9
    3bb2:	306a                	jal	33cc <input_data+0xe6c>
    3bb4:	895f 0679 56ec      	0x56ec0679895f
    3bba:	3a74                	srai	s4,s4,0x3d
    3bbc:	bc82                	lui	s9,0xfffe0
    3bbe:	2a95                	srli	s5,s5,0x5
    3bc0:	6413036f          	jal	t1,34a00 <_gp+0x2dca0>
    3bc4:	e670                	0xe670
    3bc6:	7359                	bltz	a4,3adc <input_data+0x157c>
    3bc8:	0e1e124f          	0xe1e124f
    3bcc:	d285                	lw	t0,96(sp)
    3bce:	156e5bdb          	0x156e5bdb
    3bd2:	3f8a                	jal	3b94 <input_data+0x1634>
    3bd4:	7672                	bnez	a2,3b30 <input_data+0x15d0>
    3bd6:	5fd2                	beqz	a5,3baa <input_data+0x164a>
    3bd8:	5fea                	beqz	a5,3bb2 <input_data+0x1652>
    3bda:	429272d7          	0x429272d7
    3bde:	79cd38eb          	0x79cd38eb
    3be2:	675a                	bnez	a4,3c38 <input_data+0x16d8>
    3be4:	4595                	sw	t0,200(sp)
    3be6:	00d9                	slli	ra,ra,0x16
    3be8:	ad26                	lui	s10,0x9
    3bea:	59ce                	beqz	a1,3b9c <input_data+0x163c>
    3bec:	9e1e                	li	t3,-25
    3bee:	328d                	srli	t0,t0,0x23
    3bf0:	d58c                	lw	a1,40(a1)
    3bf2:	463a                	beqz	a2,3c40 <input_data+0x16e0>
    3bf4:	490d                	sw	gp,144(sp)
    3bf6:	249c                	srai	s1,s1,0x7
    3bf8:	6ca0                	srl	s0,s1,s0
    3bfa:	5c312b9b          	0x5c312b9b
    3bfe:	5a21                	sw	s0,52(sp)
    3c00:	08ea                	j	405a <input_data+0x1afa>
    3c02:	03c5                	slli	t2,t2,0x11
    3c04:	737c                	0x737c
    3c06:	cfe139bf 099e6a54 	0x99e6a54cfe139bf
    3c0e:	539c                	sw	a5,32(a5)
    3c10:	a0ae                	lui	ra,0xb
    3c12:	50c9                	sw	s2,96(sp)
    3c14:	62e46d6f          	jal	s10,4a242 <_gp+0x434e2>
    3c18:	22c2                	jal	3d68 <input_data+0x1808>
    3c1a:	45f8                	sw	a4,76(a1)
    3c1c:	0a4d                	slli	s4,s4,0x13
    3c1e:	3e2a                	jal	3b28 <input_data+0x15c8>
    3c20:	d214                	lw	a3,32(a2)
    3c22:	4e9c                	sw	a5,24(a3)
    3c24:	1402                	j	3624 <input_data+0x10c4>
    3c26:	447e                	beqz	s0,3ca4 <input_data+0x1744>
    3c28:	7c93425b          	0x7c93425b
    3c2c:	ddb4                	lw	a3,120(a1)
    3c2e:	479f 0b53 0ee7      	0xee70b53479f
    3c34:	ffa0                	0xffa0
    3c36:	3db1                	srli	s11,s11,0x2c
    3c38:	49a5                	sw	s1,208(sp)
    3c3a:	2835                	srli	a6,a6,0xd
    3c3c:	f865                	bgez	s0,3bf4 <input_data+0x1694>
    3c3e:	40fd                	sw	t6,64(sp)
    3c40:	73d9c2c7          	fmsub.d	ft5,fs3,ft9,fa4,rmm
    3c44:	74e5                	bltz	s1,3bbc <input_data+0x165c>
    3c46:	37ac                	srai	a5,a5,0x2b
    3c48:	7c6f2dab          	0x7c6f2dab
    3c4c:	64c0                	slt	s1,s1,s0
    3c4e:	cec02c07          	flw	fs8,-788(zero)
    3c52:	4dc9                	sw	s2,216(sp)
    3c54:	41a4                	sw	s1,64(a1)
    3c56:	a371056f          	jal	a0,fff1468c <_gp+0xfff0d92c>
    3c5a:	7cc865cf          	fnmadd.h	fa1,fa6,fa2,fa5,unknown
    3c5e:	647c                	sltu	s0,s0,a5
    3c60:	15bb2fe7          	0x15bb2fe7
    3c64:	6eea2803          	lw	a6,1774(s4)
    3c68:	4961                	sw	s8,144(sp)
    3c6a:	72e1                	bltz	a3,3b82 <input_data+0x1622>
    3c6c:	360e2f13          	slti	t5,t3,864
    3c70:	40fed847          	fmsub.s	fa6,ft9,fa5,fs0,unknown
    3c74:	99c5                	ori	s1,a1,-2
    3c76:	ae6e3533          	0xae6e3533
    3c7a:	60db7567          	0x60db7567
    3c7e:	98ff6fb3          	0x98ff6fb3
    3c82:	3741                	srli	a4,a4,0x30
    3c84:	a5a0                	sub	s1,a1,s0
    3c86:	4522                	beqz	a0,3cce <input_data+0x176e>
    3c88:	70c8                	0x70c8
    3c8a:	1f332b87          	flw	fs7,499(t1)
    3c8e:	14d1                	slli	s1,s1,0x34
    3c90:	12f40083          	lb	ra,303(s0)
    3c94:	18cd                	slli	a7,a7,0x33
    3c96:	4e3b0d77          	0x4e3b0d77
    3c9a:	71531ccf          	fnmadd.s	fs9,ft6,fs5,fa4,rtz
    3c9e:	938a3dbf f69e0e65 	0xf69e0e65938a3dbf
    3ca6:	4c4a                	beqz	s0,3d78 <input_data+0x1818>
    3ca8:	4a5ba023          	sw	t0,1184(s7) # eeb264a0 <_gp+0xeeb1f740>
    3cac:	be14                	add	a5,a2,a3
    3cae:	6a980ebf 88496aea 	0x88496aea6a980ebf
    3cb6:	2cd8                	srai	s9,s9,0x16
    3cb8:	112b5d0f          	0x112b5d0f
    3cbc:	d676                	addi	a2,a2,-3
    3cbe:	7b96                	bnez	a5,3c62 <input_data+0x1702>
    3cc0:	7988de27          	0x7988de27
    3cc4:	24d266c3          	fmadd.h	fa3,ft4,fa3,ft4,unknown
    3cc8:	59f1                	sw	t3,240(sp)
    3cca:	19d5                	slli	s3,s3,0x35
    3ccc:	d75f 1dcb 8b75      	0x8b751dcbd75f
    3cd2:	3e9d                	srli	t4,t4,0x27
    3cd4:	13bf00c7          	fmsub.d	ft1,ft10,fs11,ft2,rne
    3cd8:	24ff                	0x24ff
    3cda:	32be                	jal	3648 <input_data+0x10e8>
    3cdc:	345f 4d2e 9be5      	0x9be54d2e345f
    3ce2:	663e                	bnez	a2,3d50 <input_data+0x17f0>
    3ce4:	3ef5                	srli	t4,t4,0x3d
    3ce6:	451f 742a 3d5a      	0x3d5a742a451f
    3cec:	5dae                	beqz	a1,3cd6 <input_data+0x1776>
    3cee:	78d8                	0x78d8
    3cf0:	628bd913          	0x628bd913
    3cf4:	6fc00817          	auipc	a6,0x6fc00
    3cf8:	c139                	lw	sp,140(sp)
    3cfa:	9338498f          	0x9338498f
    3cfe:	0f89                	slli	t6,t6,0x2
    3d00:	3e27b777          	0x3e27b777
    3d04:	8780                	sub	a5,a5,zero
    3d06:	5390                	sw	a2,32(a5)
    3d08:	4d81                	sw	zero,216(sp)
    3d0a:	2b84                	srai	s7,s7,0x1
    3d0c:	96cd                	ori	a1,a3,-3
    3d0e:	6808                	0x6808
    3d10:	21b4                	srai	gp,gp,0xd
    3d12:	5c6e                	beqz	s0,3d0c <input_data+0x17ac>
    3d14:	378e                	jal	38f6 <input_data+0x1396>
    3d16:	67435fd3          	0x67435fd3
    3d1a:	39c9                	srli	s3,s3,0x32
    3d1c:	0f7c                	mv	t5,t6
    3d1e:	2e6a                	jal	4438 <input_data+0x1ed8>
    3d20:	6e7e                	bnez	a2,3e1e <input_data+0x18be>
    3d22:	6940                	0x6940
    3d24:	d24e                	addi	tp,tp,-13
    3d26:	2b9d                	srli	s7,s7,0x7
    3d28:	6aa2                	bnez	a3,3db0 <input_data+0x1850>
    3d2a:	5f5e                	beqz	a4,3d20 <input_data+0x17c0>
    3d2c:	8ffa                	li	t6,30
    3d2e:	74b0                	0x74b0
    3d30:	000a8b27          	0xa8b27
    3d34:	6a3e                	bnez	a2,3de2 <input_data+0x1882>
    3d36:	1a7c                	add	s4,s4,t6
    3d38:	4c38983f 4969523d 	0x4969523d4c38983f
    3d40:	04c5                	slli	s1,s1,0x11
    3d42:	239c                	srai	t2,t2,0x7
    3d44:	0d2d                	slli	s10,s10,0xb
    3d46:	40ce                	beqz	s1,3d78 <input_data+0x1818>
    3d48:	0f637b73          	csrrc	s6,0xf6,6
    3d4c:	da26                	addi	s4,s4,-23
    3d4e:	3a007cc7          	fmsub.d	fs9,ft0,ft0,ft7
    3d52:	5730                	sw	a2,104(a4)
    3d54:	7b35733f 610f3a28 	0x610f3a287b35733f
    3d5c:	2d73d15b          	0x2d73d15b
    3d60:	9f7d                	andi	a5,a4,-1
    3d62:	5c0d472b          	0x5c0d472b
    3d66:	505e                	beqz	s0,3c9c <input_data+0x173c>
    3d68:	c854                	lw	a3,20(s0)
    3d6a:	6c9d                	bltz	s1,3e50 <input_data+0x18f0>
    3d6c:	8e32                	li	t3,12
    3d6e:	6cdf a0e2 4248      	0x4248a0e26cdf
    3d74:	5be8                	sw	a0,116(a5)
    3d76:	7c80                	0x7c80
    3d78:	9914                	0x9914
    3d7a:	3095                	srli	ra,ra,0x25
    3d7c:	d7c8                	lw	a0,44(a5)
    3d7e:	74b2                	bnez	s1,3cca <input_data+0x176a>
    3d80:	4885                	sw	ra,80(sp)
    3d82:	40cd                	sw	s3,64(sp)
    3d84:	3491fb3f 73f00760 	0x73f007603491fb3f
    3d8c:	9932                	li	s2,-20
    3d8e:	62bc                	sra	a3,a3,a5
    3d90:	1f8b77b7          	lui	a5,0x1f8b7
    3d94:	082b2a17          	auipc	s4,0x82b2
    3d98:	5071                	sw	t3,32(sp)
    3d9a:	55cb1f23          	sh	t3,1374(s6)
    3d9e:	19a67017          	auipc	zero,0x19a67
    3da2:	3280                	srai	t0,t0,0x20
    3da4:	29b6                	jal	4290 <input_data+0x1d30>
    3da6:	32c4                	srai	t0,t0,0x31
    3da8:	99ac                	0x99ac
    3daa:	50ad372b          	0x50ad372b
    3dae:	5af33dd7          	0x5af33dd7
    3db2:	1b82                	j	3b72 <input_data+0x1612>
    3db4:	2e64                	srai	t3,t3,0x19
    3db6:	4f6e                	beqz	a4,3eb0 <input_data+0x1950>
    3db8:	1c49                	slli	s8,s8,0x32
    3dba:	1f54                	add	t5,t5,s5
    3dbc:	52d6793b          	0x52d6793b
    3dc0:	8fd1                	ori	a2,a5,3
    3dc2:	433a                	beqz	a4,3dd0 <input_data+0x1870>
    3dc4:	1b49                	slli	s6,s6,0x32
    3dc6:	4775                	sw	t4,140(sp)
    3dc8:	3085                	srli	ra,ra,0x21
    3dca:	3339                	srli	t1,t1,0x2e
    3dcc:	4eda                	beqz	a3,3ea2 <input_data+0x1942>
    3dce:	2a21                	srli	s4,s4,0x8
    3dd0:	12d6                	j	3744 <input_data+0x11e4>
    3dd2:	1629                	slli	a2,a2,0x2a
    3dd4:	da71                	lw	s4,60(sp)
    3dd6:	08ad                	slli	a7,a7,0xb
    3dd8:	9280                	0x9280
    3dda:	270d                	srli	a4,a4,0x3
    3ddc:	71490dbf 4f800661 	0x4f80066171490dbf
    3de4:	41aaf2ef          	jal	t0,b31fe <_gp+0xac49e>
    3de8:	dab4                	lw	a3,112(a3)
    3dea:	4c38                	sw	a4,88(s0)
    3dec:	7c9296e3          	bne	t0,s1,4db8 <verify_data+0x858>
    3df0:	82a8                	sub	t0,t0,a0
    3df2:	1f1d4497          	auipc	s1,0x1f1d4
    3df6:	00c9                	slli	ra,ra,0x12
    3df8:	c412                	addi	s0,s0,4
    3dfa:	598a                	beqz	a1,3d7c <input_data+0x181c>
    3dfc:	a514                	add	s1,a0,a3
    3dfe:	41be                	beqz	a1,3e2c <input_data+0x18cc>
    3e00:	5a5e                	beqz	a2,3db6 <input_data+0x1856>
    3e02:	1472                	j	381e <input_data+0x12be>
    3e04:	c500                	lw	s0,8(a0)
    3e06:	711f 79bb 601e      	0x601e79bb711f
    3e0c:	0125                	slli	sp,sp,0x9
    3e0e:	481f 3ffd 67c2      	0x67c23ffd481f
    3e14:	52ca                	beqz	a3,3d26 <input_data+0x17c6>
    3e16:	61fd                	bltz	a1,3e54 <input_data+0x18f4>
    3e18:	c658                	lw	a4,12(a2)
    3e1a:	3a42                	jal	3b2a <input_data+0x15ca>
    3e1c:	8746                	li	a4,17
    3e1e:	2ef5                	srli	t4,t4,0x1d
    3e20:	b5b6                	lui	a1,0xfffed
    3e22:	09bc                	mv	s3,a5
    3e24:	a17a                	lui	sp,0x1e
    3e26:	40d5                	sw	s5,64(sp)
    3e28:	9f16                	li	t5,-27
    3e2a:	ef6e0bef          	jal	s7,fffe4520 <_gp+0xfffdd7c0>
    3e2e:	64d4                	slt	s1,s1,a3
    3e30:	d1f1                	lw	gp,60(sp)
    3e32:	157e                	j	38f0 <input_data+0x1390>
    3e34:	9f9f 6a88 2442      	0x24426a889f9f
    3e3a:	021f 6af4 3108      	0x31086af4021f
    3e40:	8282                	jr	t0
    3e42:	6d54                	slt	a3,a0,a3
    3e44:	a63a                	lui	a2,0xe
    3e46:	51c9                	sw	s2,224(sp)
    3e48:	d17c                	lw	a5,100(a0)
    3e4a:	493e3f67          	0x493e3f67
    3e4e:	3a06                	jal	3b6e <input_data+0x160e>
    3e50:	2998986b          	0x2998986b
    3e54:	f9c1                	bgez	a1,3de4 <input_data+0x1884>
    3e56:	379b0953          	0x379b0953
    3e5a:	f5910a17          	auipc	s4,0xf5910
    3e5e:	0ac2                	j	43ae <input_data+0x1e4e>
    3e60:	8648                	sub	a2,a2,s2
    3e62:	06ad                	slli	a3,a3,0xb
    3e64:	079f193f 0e683a1d 	0xe683a1d079f193f
    3e6c:	c005                	0xc005
    3e6e:	777c                	0x777c
    3e70:	01635b5b          	0x1635b5b
    3e74:	770d9d97          	auipc	s11,0x770d9
    3e78:	6a49                	bltz	a2,3f0a <input_data+0x19aa>
    3e7a:	2be5                	srli	s7,s7,0x19
    3e7c:	039c                	mv	t2,t2
    3e7e:	766e                	bnez	a2,3df8 <input_data+0x1898>
    3e80:	2534                	srai	a0,a0,0xd
    3e82:	5d9e                	beqz	a1,3e68 <input_data+0x1908>
    3e84:	8ae9                	andi	a0,a3,2
    3e86:	b9e37b3b          	0xb9e37b3b
    3e8a:	5b6b5737          	lui	a4,0x5b6b5
    3e8e:	08da                	j	42e4 <input_data+0x1d84>
    3e90:	81fd                	andi	a5,a1,0
    3e92:	24d8                	srai	s1,s1,0x16
    3e94:	160e                	j	39b6 <input_data+0x1456>
    3e96:	663d                	bltz	a2,3f04 <input_data+0x19a4>
    3e98:	7b2b5f8b          	0x7b2b5f8b
    3e9c:	b8ee                	lui	a7,0xffffb
    3e9e:	7e44                	0x7e44
    3ea0:	cd60                	lw	s0,92(a0)
    3ea2:	0bd0                	mv	s7,s4
    3ea4:	003e                	j	3ed2 <input_data+0x1972>
    3ea6:	6d6d                	bltz	a0,3fa0 <input_data+0x1a40>
    3ea8:	503866b3          	0x503866b3
    3eac:	4d82                	beqz	a1,3f6c <input_data+0x1a0c>
    3eae:	f2147167          	0xf2147167
    3eb2:	cad274eb          	0xcad274eb
    3eb6:	4cf9                	sw	t5,88(sp)
    3eb8:	4efa053b          	0x4efa053b
    3ebc:	58ee                	beqz	s1,3e76 <input_data+0x1916>
    3ebe:	8a0b31e3          	0x8a0b31e3
    3ec2:	25246e3f 70ab1dd3 	0x70ab1dd325246e3f
    3eca:	0f155f57          	0xf155f57
    3ece:	65ae                	bnez	a1,3f38 <input_data+0x19d8>
    3ed0:	9731                	xori	a2,a4,-3
    3ed2:	5f65                	sw	s9,188(sp)
    3ed4:	1692                	j	3a18 <input_data+0x14b8>
    3ed6:	170d                	slli	a4,a4,0x23
    3ed8:	8d0c                	sub	s10,s10,gp
    3eda:	3d52                	jal	3d6e <input_data+0x180e>
    3edc:	e6d2                	andi	a3,a3,20
    3ede:	6320                	sra	a4,a4,s0
    3ee0:	4ed6bee3          	0x4ed6bee3
    3ee4:	86a0                	sub	a3,a3,s0
    3ee6:	5864                	sw	s1,116(s0)
    3ee8:	411c6f63          	bltu	s8,a7,4306 <input_data+0x1da6>
    3eec:	c3dd                	lw	t2,212(sp)
    3eee:	6366                	bnez	a4,3f26 <input_data+0x19c6>
    3ef0:	91ec                	0x91ec
    3ef2:	752c                	0x752c
    3ef4:	e53c                	0xe53c
    3ef6:	3f68                	srai	t5,t5,0x3a
    3ef8:	67d54dcb          	0x67d54dcb
    3efc:	8de8                	sub	s11,s11,s10
    3efe:	11e4                	add	gp,gp,s9
    3f00:	0b3d                	slli	s6,s6,0xf
    3f02:	24fc                	srai	s1,s1,0x1f
    3f04:	d51d                	lw	a0,228(sp)
    3f06:	1e08                	add	t3,t3,sp
    3f08:	172d                	slli	a4,a4,0x2b
    3f0a:	7cdd                	bltz	s1,3f00 <input_data+0x19a0>
    3f0c:	3752e6c7          	0x3752e6c7
    3f10:	0f29                	slli	t5,t5,0xa
    3f12:	1091                	slli	ra,ra,0x24
    3f14:	da45                	lw	s4,112(sp)
    3f16:	8c9f63fb          	0x8c9f63fb
    3f1a:	d1cb4a73          	0xd1cb4a73
    3f1e:	55582fa7          	fsw	fs5,1375(a6) # 6fc04253 <_gp+0x6fbfd4f3>
    3f22:	4656                	beqz	a2,3f96 <input_data+0x1a36>
    3f24:	02e12ea7          	fsw	fa4,61(sp) # 4f73003d <_gp+0x4f7292dd>
    3f28:	6f3a5657          	0x6f3a5657
    3f2c:	53ca3e2f          	0x53ca3e2f
    3f30:	c751                	lw	a4,20(sp)
    3f32:	7dc1                	bltz	a1,3f02 <input_data+0x19a2>
    3f34:	fee2                	andi	t4,t4,-8
    3f36:	2e4b5f0b          	0x2e4b5f0b
    3f3a:	2299                	srli	t0,t0,0x6
    3f3c:	86aa                	li	a3,10
    3f3e:	6876                	bnez	s0,3ffa <input_data+0x1a9a>
    3f40:	fda0                	0xfda0
    3f42:	712a4fd3          	0x712a4fd3
    3f46:	da6636f7          	0xda6636f7
    3f4a:	182653ab          	0x182653ab
    3f4e:	11da                	j	3824 <input_data+0x12c4>
    3f50:	259f 503a f848      	0xf848503a259f
    3f56:	4d60                	sw	s0,92(a0)
    3f58:	5068                	sw	a0,100(s0)
    3f5a:	91897ee3          	bleu	s8,s2,3876 <input_data+0x1316>
    3f5e:	285d                	srli	a6,a6,0x17
    3f60:	318c39e7          	0x318c39e7
    3f64:	94b8                	0x94b8
    3f66:	2c2d                	srli	s8,s8,0xb
    3f68:	297efd5b          	0x297efd5b
    3f6c:	ceae                	addi	t4,t4,11
    3f6e:	175271f7          	0x175271f7
    3f72:	3c96                	jal	3dd6 <input_data+0x1876>
    3f74:	c5f0                	lw	a2,76(a1)
    3f76:	28a6                	jal	43de <input_data+0x1e7e>
    3f78:	caae                	addi	s5,s5,11
    3f7a:	1518                	add	a0,a0,t1
    3f7c:	7078                	0x7078
    3f7e:	2159                	srli	sp,sp,0x16
    3f80:	98ac                	0x98ac
    3f82:	1eb8                	add	t4,t4,a4
    3f84:	0dc0                	mv	s11,a6
    3f86:	6e66                	bnez	a2,407e <input_data+0x1b1e>
    3f88:	184e1aef          	jal	s5,e510c <_gp+0xde3ac>
    3f8c:	93fd                	andi	a5,a5,-4
    3f8e:	82f53067          	0x82f53067
    3f92:	6ed8                	slt	a4,a3,a4
    3f94:	07d4                	mv	a5,s5
    3f96:	4192                	beqz	a1,3f9a <input_data+0x1a3a>
    3f98:	9829                	xori	a0,s0,-2
    3f9a:	1db9                	slli	s11,s11,0x2e
    3f9c:	8add                	ori	a5,a3,2
    3f9e:	26f5                	srli	a3,a3,0x1d
    3fa0:	ac55                	addi	a3,sp,532
    3fa2:	37572da3          	sw	s5,891(a4) # 5b6b537b <_gp+0x5b6ae61b>
    3fa6:	08fe                	j	4424 <input_data+0x1ec4>
    3fa8:	4dd8                	sw	a4,28(a1)
    3faa:	1395                	slli	t2,t2,0x25
    3fac:	86b6                	li	a3,13
    3fae:	0498                	mv	s1,t1
    3fb0:	679c                	sll	a5,a5,a5
    3fb2:	69d1                	bltz	a1,4046 <input_data+0x1ae6>
    3fb4:	ccb2                	addi	s9,s9,12
    3fb6:	6d6e                	bnez	a0,40b0 <input_data+0x1b50>
    3fb8:	2885                	srli	a7,a7,0x1
    3fba:	2a1a                	jal	44c0 <input_data+0x1f60>
    3fbc:	49b0                	sw	a2,80(a1)
    3fbe:	49ed                	sw	s11,208(sp)
    3fc0:	de75                	lw	t3,124(sp)
    3fc2:	3209                	srli	tp,tp,0x22
    3fc4:	c572                	addi	a0,a0,28
    3fc6:	95023ed3          	0x95023ed3
    3fca:	6ca9                	bltz	s1,4094 <input_data+0x1b34>
    3fcc:	29d70e33          	0x29d70e33
    3fd0:	a428                	sub	s1,s0,a0
    3fd2:	04f0                	mv	s1,t3
    3fd4:	e848                	0xe848
    3fd6:	26e2                	jal	432e <input_data+0x1dce>
    3fd8:	9944                	0x9944
    3fda:	339f f7b8 373f      	0x373ff7b8339f
    3fe0:	6b08                	0x6b08
    3fe2:	4f09                	sw	sp,156(sp)
    3fe4:	3f29                	srli	t5,t5,0x2a
    3fe6:	682e                	bnez	s0,4090 <input_data+0x1b30>
    3fe8:	60d8                	0x60d8
    3fea:	7ebd45f7          	0x7ebd45f7
    3fee:	5ad6                	beqz	a3,3fa2 <input_data+0x1a42>
    3ff0:	6680                	sll	a3,a3,s0
    3ff2:	1a72                	j	3d0e <input_data+0x17ae>
    3ff4:	d196                	addi	gp,gp,-27
    3ff6:	31cc                	srai	gp,gp,0x33
    3ff8:	d704                	lw	s1,40(a4)
    3ffa:	0051                	0x51
    3ffc:	69d2                	bnez	a1,4090 <input_data+0x1b30>
    3ffe:	7b48                	0x7b48
    4000:	83b4                	sub	t2,t2,a3
    4002:	645e                	bnez	s0,4078 <input_data+0x1b18>
    4004:	80f5                	andi	a3,s1,0
    4006:	7c05                	bltz	s0,3fe6 <input_data+0x1a86>
    4008:	887a                	li	a6,30
    400a:	720d                	bltz	a2,3f2c <input_data+0x19cc>
    400c:	05d1                	slli	a1,a1,0x14
    400e:	42d638b3          	0x42d638b3
    4012:	6872                	bnez	s0,40ae <input_data+0x1b4e>
    4014:	091f 0648 a6bb      	0xa6bb0648091f
    401a:	6a98                	0x6a98
    401c:	6f2a                	bnez	a4,40e6 <input_data+0x1b86>
    401e:	6a89                	bltz	a3,40a0 <input_data+0x1b40>
    4020:	9b08                	0x9b08
    4022:	5548                	sw	a0,44(a0)
    4024:	46f4                	sw	a3,76(a3)
    4026:	203e                	jal	4054 <input_data+0x1af4>
    4028:	3499a707          	flw	fa4,841(s3) # 52a15ae3 <_gp+0x52a0ed83>
    402c:	de5d                	lw	t3,244(sp)
    402e:	292c                	srai	s2,s2,0xb
    4030:	f2ea                	andi	t0,t0,-6
    4032:	0c11                	slli	s8,s8,0x4
    4034:	5f000727          	0x5f000727
    4038:	96fd                	andi	a5,a3,-3
    403a:	1f98                	add	t6,t6,t1
    403c:	0981                	slli	s3,s3,0x0
    403e:	1700                	add	a4,a4,zero
    4040:	3615d7bf 1695bf1f 	0x1695bf1f3615d7bf
    4048:	1b1ae0d3          	fdiv.d	ft1,fs5,fa7,unknown
    404c:	cd00                	lw	s0,24(a0)
    404e:	0efd                	slli	t4,t4,0x1f
    4050:	5680bd3f 431ab1f5 	0x431ab1f55680bd3f
    4058:	d932                	addi	s2,s2,-20
    405a:	0144                	mv	sp,a7
    405c:	6d64                	sltu	s1,a0,s1
    405e:	61ec                	0x61ec
    4060:	2ff1affb          	0x2ff1affb
    4064:	2399                	srli	t2,t2,0x6
    4066:	7a15                	bltz	a2,400a <input_data+0x1aaa>
    4068:	10ae                	j	38d2 <input_data+0x1372>
    406a:	36b0                	srai	a3,a3,0x2c
    406c:	e44c                	0xe44c
    406e:	5a49                	sw	s2,52(sp)
    4070:	8469                	andi	a0,s0,1
    4072:	0850                	mv	a6,s4
    4074:	5c12                	beqz	s0,4038 <input_data+0x1ad8>
    4076:	02e24423          	0x2e24423
    407a:	ca7a06db          	0xca7a06db
    407e:	6722                	bnez	a4,40c6 <input_data+0x1b66>
    4080:	6133ac8b          	0x6133ac8b
    4084:	03065ce3          	ble	a6,a2,48bc <verify_data+0x35c>
    4088:	5d24                	sw	s1,120(a0)
    408a:	6806                	bnez	s0,412a <input_data+0x1bca>
    408c:	4e4c9107          	flh	ft2,1252(s9)
    4090:	7e40                	0x7e40
    4092:	4025                	sw	s1,0(sp)
    4094:	4a88                	sw	a0,16(a3)
    4096:	6c7f                	0x6c7f
    4098:	b6ea                	lui	a3,0xffffa
    409a:	381d                	srli	a6,a6,0x27
    409c:	3014dbb7          	lui	s7,0x3014d
    40a0:	2b0b5427          	0x2b0b5427
    40a4:	ac1f 6d82 35ba      	0x35ba6d82ac1f
    40aa:	2a0d                	srli	s4,s4,0x3
    40ac:	ee66                	andi	t3,t3,25
    40ae:	7c82                	bnez	s1,406e <input_data+0x1b0e>
    40b0:	932c                	0x932c
    40b2:	1e6d                	slli	t3,t3,0x3b
    40b4:	c325                	lw	t1,72(sp)
    40b6:	0314                	mv	t1,t0
    40b8:	36c6                	jal	3c28 <input_data+0x16c8>
    40ba:	3fa13543          	0x3fa13543
    40be:	51e5                	sw	s9,224(sp)
    40c0:	3eb0                	srai	t4,t4,0x2c
    40c2:	3c06                	jal	3ee2 <input_data+0x1982>
    40c4:	5d55                	sw	s5,184(sp)
    40c6:	28d4                	srai	a7,a7,0x15
    40c8:	57b4b82b          	0x57b4b82b
    40cc:	6251                	bltz	a2,40e0 <input_data+0x1b80>
    40ce:	5cb4                	sw	a3,120(s1)
    40d0:	6559                	bltz	a0,4126 <input_data+0x1bc6>
    40d2:	486c                	sw	a1,84(s0)
    40d4:	a2b4                	sub	s0,a3,a3
    40d6:	54ed                	sw	s11,104(sp)
    40d8:	272cdbc7          	0x272cdbc7
    40dc:	9892                	li	a7,-28
    40de:	52f5                	sw	t4,100(sp)
    40e0:	398d5073          	csrwi	0x398,26
    40e4:	240481ab          	0x240481ab
    40e8:	7db2                	bnez	a1,40b4 <input_data+0x1b54>
    40ea:	81a24c9b          	0x81a24c9b
    40ee:	145a                	j	3b04 <input_data+0x15a4>
    40f0:	0002                	j	40f0 <input_data+0x1b90>
    40f2:	1189                	slli	gp,gp,0x22
    40f4:	7b4a                	bnez	a4,4086 <input_data+0x1b26>
    40f6:	25be                	jal	43e4 <input_data+0x1e84>
    40f8:	711c785b          	0x711c785b
    40fc:	74f4                	0x74f4
    40fe:	7180                	0x7180
    4100:	1d65                	slli	s10,s10,0x39
    4102:	3116                	jal	39a6 <input_data+0x1446>
    4104:	b1aa                	lui	gp,0xfffea
    4106:	5e0d                	sw	gp,60(sp)
    4108:	d041                	0xd041
    410a:	7830                	0x7830
    410c:	3c64                	srai	s8,s8,0x39
    410e:	6f09                	bltz	a4,41d0 <input_data+0x1c70>
    4110:	226a2ea7          	fsw	ft6,573(s4) # f5914097 <_gp+0xf590d337>
    4114:	3a76                	jal	3e50 <input_data+0x18f0>
    4116:	a14b3c5b          	vlsegstb	vx24,s6,s4,6
    411a:	0ebc                	mv	t4,a5
    411c:	ff86                	andi	t6,t6,-31
    411e:	746525ef          	jal	a1,56864 <_gp+0x4fb04>
    4122:	7465                	bltz	s0,409a <input_data+0x1b3a>
    4124:	d780                	lw	s0,40(a5)
    4126:	564c                	sw	a1,44(a2)
    4128:	47c4                	sw	s1,12(a5)
    412a:	0670                	mv	a2,t3
    412c:	3c985217          	auipc	tp,0x3c985
    4130:	7a0e7c57          	0x7a0e7c57
    4134:	578e                	beqz	a5,4096 <input_data+0x1b36>
    4136:	3842                	jal	3d46 <input_data+0x17e6>
    4138:	def5                	lw	t4,124(sp)
    413a:	2ef0                	srai	t4,t4,0x1c
    413c:	7796                	bnez	a5,40a0 <input_data+0x1b40>
    413e:	00c2                	j	418e <input_data+0x1c2e>
    4140:	127e                	j	3a7e <input_data+0x151e>
    4142:	32e0                	srai	t0,t0,0x38
    4144:	0138                	mv	sp,a4
    4146:	13e9                	slli	t2,t2,0x3a
    4148:	cf61                	lw	t5,24(sp)
    414a:	0dea20fb          	0xdea20fb
    414e:	daea40ef          	jal	fffa86fc <_gp+0xfffa199c>
    4152:	1dac                	add	s11,s11,a1
    4154:	89e9                	andi	a0,a1,2
    4156:	c6977987          	0xc6977987
    415a:	5582                	beqz	a1,409a <input_data+0x1b3a>
    415c:	4ced7143          	fmadd.h	ft2,fs10,fa4,fs1
    4160:	7e24                	0x7e24
    4162:	0486                	j	43c2 <input_data+0x1e62>
    4164:	390b3b03          	0x390b3b03
    4168:	7ef912b7          	lui	t0,0x7ef91
    416c:	4b00                	sw	s0,16(a4)
    416e:	f23d1c73          	csrrw	s8,0xf23,s10
    4172:	38ca                	jal	3dc4 <input_data+0x1864>
    4174:	071f 6487 fb86      	0xfb866487071f
    417a:	1b60                	add	s6,s6,s8
    417c:	ddc4                	lw	s1,60(a1)
    417e:	2cd0                	srai	s9,s9,0x14
    4180:	0a74                	mv	s4,t4
    4182:	31d9                	srli	gp,gp,0x36
    4184:	7171                	bltz	a0,40a0 <input_data+0x1b40>
    4186:	78df 5324 01b7      	0x1b7532478df
    418c:	c0ac                	lw	a1,64(s1)
    418e:	133c                	add	t1,t1,a5
    4190:	177e                	j	3d4e <input_data+0x17ee>
    4192:	4f96                	beqz	a5,4276 <input_data+0x1d16>
    4194:	2eea494b          	0x2eea494b
    4198:	1870                	add	a6,a6,t3
    419a:	06c5                	slli	a3,a3,0x11
    419c:	db9c                	lw	a5,48(a5)
    419e:	38ea                	jal	3df8 <input_data+0x1898>
    41a0:	0276                	j	42dc <input_data+0x1d7c>
    41a2:	4e81                	sw	zero,92(sp)
    41a4:	5bb8                	sw	a4,112(a5)
    41a6:	a4f94d77          	0xa4f94d77
    41aa:	77c2                	bnez	a5,40fa <input_data+0x1b9a>
    41ac:	5c4d96b3          	0x5c4d96b3
    41b0:	ec61                	bgez	s0,4288 <input_data+0x1d28>
    41b2:	5d497a2b          	0x5d497a2b
    41b6:	809e2ba7          	fsw	fs1,-2025(t3)
    41ba:	6a35                	bltz	a2,4266 <input_data+0x1d06>
    41bc:	4ee1                	sw	s8,92(sp)
    41be:	7c9d                	bltz	s1,41a4 <input_data+0x1c44>
    41c0:	fc5c                	0xfc5c
    41c2:	6dec3b3b          	0x6dec3b3b
    41c6:	74c8                	0x74c8
    41c8:	94c6                	li	s1,-15
    41ca:	4fa9                	sw	a0,220(sp)
    41cc:	4190                	sw	a2,0(a1)
    41ce:	2931                	srli	s2,s2,0xc
    41d0:	a664                	and	s1,a2,s1
    41d2:	681f b8f7 37c3      	0x37c3b8f7681f
    41d8:	1936                	j	3e84 <input_data+0x1924>
    41da:	42f8                	sw	a4,68(a3)
    41dc:	417f                	0x417f
    41de:	0676                	j	451a <input_data+0x1fba>
    41e0:	54c2                	beqz	s1,4130 <input_data+0x1bd0>
    41e2:	5626                	beqz	a2,414a <input_data+0x1bea>
    41e4:	d345                	lw	t1,112(sp)
    41e6:	0a1d                	slli	s4,s4,0x7
    41e8:	075a3493          	sltiu	s1,s4,117
    41ec:	6182a6ab          	0x6182a6ab
    41f0:	fe11                	bgez	a2,41b4 <input_data+0x1c54>
    41f2:	2828                	srai	a6,a6,0xa
    41f4:	79c39977          	0x79c39977
    41f8:	2d2aea73          	csrrs	s4,0x2d2,21
    41fc:	0b6e                	j	47b6 <verify_data+0x256>
    41fe:	1e8c                	add	t4,t4,gp
    4200:	d1ee                	addi	gp,gp,-5
    4202:	0721                	slli	a4,a4,0x8
    4204:	705c                	0x705c
    4206:	91200377          	0x91200377
    420a:	88a17c9b          	0x88a17c9b
    420e:	1cfa                	j	406c <input_data+0x1b0c>
    4210:	c63a                	addi	a2,a2,14
    4212:	6089                	bltz	s1,4214 <input_data+0x1cb4>
    4214:	19cee96b          	0x19cee96b
    4218:	a8ed                	addi	a1,sp,92
    421a:	42fc3557          	0x42fc3557
    421e:	169e                	j	3d84 <input_data+0x1824>
    4220:	6f0e                	bnez	a4,4302 <input_data+0x1da2>
    4222:	70b5                	bltz	s1,414e <input_data+0x1bee>
    4224:	ed6c                	0xed6c
    4226:	706e                	bnez	s0,4160 <input_data+0x1c00>
    4228:	8f2e                	li	t5,11
    422a:	6ec8                	slt	a0,a3,a0
    422c:	3b7f                	0x3b7f
    422e:	2b3c39c7          	fmsub.d	fs3,fs8,fs3,ft5,rup
    4232:	af374957          	0xaf374957
    4236:	70b4                	0x70b4
    4238:	26d6                	jal	45ac <verify_data+0x4c>
    423a:	750914f7          	0x750914f7
    423e:	0ccc                	mv	s9,s3
    4240:	4f7e                	beqz	a4,433e <input_data+0x1dde>
    4242:	c8955c63          	ble	s1,a0,36da <input_data+0x117a>
    4246:	30b0125b          	0x30b0125b
    424a:	0191                	slli	gp,gp,0x4
    424c:	040ea107          	flw	ft2,64(t4) # 686eda44 <_gp+0x686e6ce4>
    4250:	9a3e                	li	s4,-17
    4252:	03435273          	csrrw	tp,0x34,6
    4256:	6816                	bnez	s0,42fa <input_data+0x1d9a>
    4258:	ad38                	sub	a1,a0,a4
    425a:	40f9                	sw	t5,64(sp)
    425c:	a545                	addi	s1,sp,644
    425e:	da0162d3          	0xda0162d3
    4262:	7c11                	bltz	s0,4226 <input_data+0x1cc6>
    4264:	7015                	bltz	s0,4188 <input_data+0x1c28>
    4266:	4216438f          	0x4216438f
    426a:	6ce86427          	0x6ce86427
    426e:	50713e9b          	0x50713e9b
    4272:	6ba6                	bnez	a5,431a <input_data+0x1dba>
    4274:	8e36                	li	t3,13
    4276:	6621                	bltz	a2,42be <input_data+0x1d5e>
    4278:	3d39                	srli	s10,s10,0x2e
    427a:	1f09                	slli	t5,t5,0x22
    427c:	9675                	andi	a3,a2,-3
    427e:	fc0518e3          	bnez	a0,424e <input_data+0x1cee>
    4282:	50c4                	sw	s1,36(s1)
    4284:	648d                	bltz	s1,42e6 <input_data+0x1d86>
    4286:	25a2                	jal	454e <input_data+0x1fee>
    4288:	6f8c                	sll	a1,a5,a1
    428a:	b10867db          	0xb10867db
    428e:	7bd6                	bnez	a5,4242 <input_data+0x1ce2>
    4290:	65dd924f          	fnmadd.h	ft4,fs11,ft9,fa2,rtz
    4294:	23688f3b          	0x23688f3b
    4298:	b958                	or	a4,a0,a4
    429a:	37da                	jal	3e70 <input_data+0x1910>
    429c:	2c3cdaab          	0x2c3cdaab
    42a0:	94e1                	andi	s0,s1,-3
    42a2:	7184                	0x7184
    42a4:	6341                	bltz	a4,42b4 <input_data+0x1d54>
    42a6:	c23634eb          	0xc23634eb
    42aa:	b1bf4ccf          	fnmadd.s	fs9,ft10,fs11,fs6,rmm
    42ae:	194e                	j	3f60 <input_data+0x1a00>
    42b0:	8add                	ori	a5,a3,2
    42b2:	5948                	sw	a0,52(a0)
    42b4:	31766a3f 5282f6af 	0x5282f6af31766a3f
    42bc:	ab91                	addi	a2,sp,464
    42be:	0ee8                	mv	t4,s10
    42c0:	0919                	slli	s2,s2,0x6
    42c2:	0bed                	slli	s7,s7,0x1b
    42c4:	29599857          	0x29599857
    42c8:	8572                	li	a0,28
    42ca:	5b04                	sw	s1,48(a4)
    42cc:	0211                	slli	tp,tp,0x4
    42ce:	572c                	sw	a1,104(a4)
    42d0:	d2ea                	addi	t0,t0,-6
    42d2:	6495                	bltz	s1,4336 <input_data+0x1dd6>
    42d4:	be30                	sub	a5,a2,a2
    42d6:	b63144f3          	0xb63144f3
    42da:	0e64                	mv	t3,s9
    42dc:	8a9e                	li	s5,7
    42de:	fd9646fb          	0xfd9646fb
    42e2:	4a86                	beqz	a3,4382 <input_data+0x1e22>
    42e4:	d916                	addi	s2,s2,-27
    42e6:	7b0a                	bnez	a4,4268 <input_data+0x1d08>
    42e8:	9418                	0x9418
    42ea:	01a4                	mv	gp,s1
    42ec:	e7fa                	andi	a5,a5,30
    42ee:	7015                	bltz	s0,4212 <input_data+0x1cb2>
    42f0:	a050                	or	s0,s0,a2
    42f2:	03407643          	fmadd.d	fa2,ft0,fs4,ft0
    42f6:	063e                	j	4624 <verify_data+0xc4>
    42f8:	85ea                	li	a1,26
    42fa:	4eec                	sw	a1,92(a3)
    42fc:	a95e                	lui	s2,0x17
    42fe:	3aef40f3          	0x3aef40f3
    4302:	e62853a3          	0xe62853a3
    4306:	7316                	bnez	a4,422a <input_data+0x1cca>
    4308:	2e160dbb          	0x2e160dbb
    430c:	452708a7          	0x452708a7
    4310:	9d30                	0x9d30
    4312:	218e                	jal	43f4 <input_data+0x1e94>
    4314:	b11e                	lui	sp,0xfffe7
    4316:	3f7c                	srai	t5,t5,0x3f
    4318:	8a44                	sub	s4,s4,a7
    431a:	19ad1def          	jal	s11,d54b4 <_gp+0xce754>
    431e:	61e4                	0x61e4
    4320:	b8a4                	sub	a4,s1,s1
    4322:	b5d94e17          	auipc	t3,0xb5d94
    4326:	6728                	srl	a4,a4,a0
    4328:	73e6                	bnez	a5,4260 <input_data+0x1d00>
    432a:	57f4                	sw	a3,108(a5)
    432c:	5cb5                	sw	a3,120(sp)
    432e:	673824b3          	0x673824b3
    4332:	452c                	sw	a1,72(a0)
    4334:	375ced43          	0x375ced43
    4338:	2f3e                	jal	4ae6 <verify_data+0x586>
    433a:	0f22                	j	4ac2 <verify_data+0x562>
    433c:	c5fc                	lw	a5,76(a1)
    433e:	6b3d                	bltz	a4,43ec <input_data+0x1e8c>
    4340:	d05f 47da c656      	0xc65647dad05f
    4346:	189e                	j	3fac <input_data+0x1a4c>
    4348:	2f60                	srai	t5,t5,0x18
    434a:	5eb9                	sw	a4,124(sp)
    434c:	69c06c73          	csrrs	s8,0x69c,0
    4350:	b6de                	lui	a3,0xffff7
    4352:	029e                	j	44b8 <input_data+0x1f58>
    4354:	63bcc123          	0x63bcc123
    4358:	c1b4                	lw	a3,64(a1)
    435a:	318b28bb          	0x318b28bb
    435e:	99334b27          	0x99334b27
    4362:	7d19                	bltz	a0,4328 <input_data+0x1dc8>
    4364:	2e0b77ef          	jal	a5,bb644 <_gp+0xb48e4>
    4368:	49777d6b          	0x49777d6b
    436c:	d426                	addi	s0,s0,-23
    436e:	2d30                	srai	s10,s10,0xc
    4370:	318c2ea3          	sw	s8,797(s8)
    4374:	5faed877          	0x5faed877
    4378:	f09c                	0xf09c
    437a:	00ad62fb          	0xad62fb
    437e:	0174                	mv	sp,t4
    4380:	6adf 5506 6f54      	0x6f5455066adf
    4386:	600e                	bnez	s0,43a8 <input_data+0x1e48>
    4388:	c4ff                	0xc4ff
    438a:	40b0                	sw	a2,64(s1)
    438c:	1040                	0x1040
    438e:	00c4                	mv	ra,a7
    4390:	d252                	addi	tp,tp,-12
    4392:	c77a1b2b          	0xc77a1b2b
    4396:	345f 3644 71e7      	0x71e73644345f
    439c:	4906                	beqz	a0,443c <input_data+0x1edc>
    439e:	526d                	sw	s11,36(sp)
    43a0:	8909                	addi	a0,a0,2
    43a2:	743c                	0x743c
    43a4:	ffda                	andi	t6,t6,-10
    43a6:	389f 5411 35e6      	0x35e65411389f
    43ac:	91a6                	li	gp,-23
    43ae:	26402f2b          	0x26402f2b
    43b2:	5e70                	sw	a2,124(a2)
    43b4:	d928                	lw	a0,112(a0)
    43b6:	0c85                	slli	s9,s9,0x1
    43b8:	422f2997          	auipc	s3,0x422f2
    43bc:	a9d0                	or	a0,a1,a2
    43be:	f68615bb          	0xf68615bb
    43c2:	0335                	slli	t1,t1,0xd
    43c4:	9db6                	li	s11,-19
    43c6:	84d02e07          	flw	ft8,-1971(zero) # 19a6a5eb <_gp+0x19a6388b>
    43ca:	1c2d                	slli	s8,s8,0x2b
    43cc:	19f2                	j	40a8 <input_data+0x1b48>
    43ce:	4396                	beqz	a5,43f2 <input_data+0x1e92>
    43d0:	663ef68b          	0x663ef68b
    43d4:	657f                	0x657f
    43d6:	5624                	sw	s1,104(a2)
    43d8:	5bdbb757          	0x5bdbb757
    43dc:	2c11                	srli	s8,s8,0x4
    43de:	08e4                	mv	a7,s9
    43e0:	708e                	bnez	s1,4302 <input_data+0x1da2>
    43e2:	39f0                	srai	s3,s3,0x3c
    43e4:	5840                	sw	s0,52(s0)
    43e6:	70d6                	bnez	s1,431a <input_data+0x1dba>
    43e8:	58ab4ae3          	blt	s6,a0,517c <verify_data+0xc1c>
    43ec:	5fae                	beqz	a5,43d6 <input_data+0x1e76>
    43ee:	2632                	jal	46fa <verify_data+0x19a>
    43f0:	c65d                	lw	a2,212(sp)
    43f2:	57a2                	beqz	a5,433a <input_data+0x1dda>
    43f4:	afc1                	addi	s0,sp,980
    43f6:	4361268b          	0x4361268b
    43fa:	3aea                	jal	4154 <input_data+0x1bf4>
    43fc:	eae5                	bgez	a3,44b4 <input_data+0x1f54>
    43fe:	29e8                	srai	s3,s3,0x1a
    4400:	9209                	addi	a0,a2,-4
    4402:	687e                	bnez	s0,44c0 <input_data+0x1f60>
    4404:	5c32                	beqz	s0,43d0 <input_data+0x1e70>
    4406:	765e                	bnez	a2,437c <input_data+0x1e1c>
    4408:	28ae                	jal	4872 <verify_data+0x312>
    440a:	297c                	srai	s2,s2,0x1f
    440c:	fa95                	bgez	a3,43b0 <input_data+0x1e50>
    440e:	6a49                	bltz	a2,44a0 <input_data+0x1f40>
    4410:	e729                	bgez	a4,445a <input_data+0x1efa>
    4412:	4e82                	beqz	a3,44d2 <input_data+0x1f72>
    4414:	4cb0                	sw	a2,88(s1)
    4416:	689e                	bnez	s1,44bc <input_data+0x1f5c>
    4418:	b1ee                	lui	gp,0xffffb
    441a:	83ba1fb7          	lui	t6,0x83ba1
    441e:	3fbe                	jal	440c <input_data+0x1eac>
    4420:	0ee21ec7          	0xee21ec7
    4424:	1f407de7          	0x1f407de7
    4428:	8c8c                	sub	s9,s9,gp
    442a:	2d2d                	srli	s10,s10,0xb
    442c:	97d6                	li	a5,-11
    442e:	7db5                	bltz	a1,441a <input_data+0x1eba>
    4430:	37ea                	jal	400a <input_data+0x1aaa>
    4432:	10d0240f          	0x10d0240f
    4436:	7585                	bltz	a1,4396 <input_data+0x1e36>
    4438:	58ce                	beqz	s1,43ea <input_data+0x1e8a>
    443a:	5eaa                	beqz	a3,4404 <input_data+0x1ea4>
    443c:	4e8e                	beqz	a3,451e <input_data+0x1fbe>
    443e:	76c05b67          	0x76c05b67
    4442:	252c                	srai	a0,a0,0xb
    4444:	53c8cb9b          	0x53c8cb9b
    4448:	748d9613          	0x748d9613
    444c:	7651                	bltz	a2,43a0 <input_data+0x1e40>
    444e:	8c68408b          	0x8c68408b
    4452:	52ac                	sw	a1,96(a3)
    4454:	86a9                	xori	a0,a3,1
    4456:	341a                	jal	3e5c <input_data+0x18fc>
    4458:	d8ac                	lw	a1,112(s1)
    445a:	5030                	sw	a2,96(s0)
    445c:	45a55e33          	0x45a55e33
    4460:	3159                	srli	sp,sp,0x36
    4462:	7782                	bnez	a5,43a2 <input_data+0x1e42>
    4464:	27b1                	srli	a5,a5,0xc
    4466:	43550df3          	0x43550df3
    446a:	1c36                	j	4296 <input_data+0x1d36>
    446c:	2ad8                	srai	s5,s5,0x16
    446e:	2709                	srli	a4,a4,0x2
    4470:	57cebc73          	csrrc	s8,0x57c,t4
    4474:	ed02                	andi	s10,s10,0
    4476:	3b76                	jal	4232 <input_data+0x1cd2>
    4478:	2fcade4f          	0x2fcade4f
    447c:	7a54488b          	0x7a54488b
    4480:	e0a1                	bgez	s1,4488 <input_data+0x1f28>
    4482:	703e                	bnez	s0,43b0 <input_data+0x1e50>
    4484:	eae8                	0xeae8
    4486:	0b10                	mv	s6,tp
    4488:	52d9061b          	0x52d9061b
    448c:	ac6e                	lui	s8,0x1b
    448e:	66d9                	bltz	a3,44e4 <input_data+0x1f84>
    4490:	5b28                	sw	a0,112(a4)
    4492:	34cd                	srli	s1,s1,0x33
    4494:	bd26                	lui	s10,0xfffe9
    4496:	3925                	srli	s2,s2,0x29
    4498:	cbd4                	lw	a3,20(a5)
    449a:	7a70                	0x7a70
    449c:	b6cd                	addi	a1,sp,868
    449e:	fc8e039b          	0xfc8e039b
    44a2:	5515                	sw	t0,168(sp)
    44a4:	45288ea3          	sb	s2,1117(a7)
    44a8:	c129                	lw	sp,136(sp)
    44aa:	a88b6cef          	jal	s9,fffba732 <_gp+0xfffb39d2>
    44ae:	53f8                	sw	a4,100(a5)
    44b0:	1629                	slli	a2,a2,0x2a
    44b2:	6460                	sltu	s0,s0,s0
    44b4:	b922                	lui	s2,0xfffe8
    44b6:	03ad                	slli	t2,t2,0xb
    44b8:	324f49f7          	0x324f49f7
    44bc:	bdbd                	addi	a5,sp,760
    44be:	f6433c4b          	0xf6433c4b
    44c2:	5aad                	sw	a1,116(sp)
    44c4:	5f29                	sw	a0,188(sp)
    44c6:	5e48                	sw	a0,60(a2)
    44c8:	2d7f                	0x2d7f
    44ca:	3618                	srai	a2,a2,0x26
    44cc:	1f55                	slli	t5,t5,0x35
    44ce:	7894                	0x7894
    44d0:	430fbce7          	0x430fbce7
    44d4:	8204                	sub	tp,tp,ra
    44d6:	4e34                	sw	a3,88(a2)
    44d8:	c149                	lw	sp,144(sp)
    44da:	fdf6576b          	0xfdf6576b
    44de:	734b39d3          	0x734b39d3
    44e2:	04d2                	j	4736 <verify_data+0x1d6>
    44e4:	35e2                	jal	3fbc <input_data+0x1a5c>
    44e6:	5625                	sw	s1,44(sp)
    44e8:	a794                	add	s1,a5,a3
    44ea:	13fe                	j	3ee8 <input_data+0x1988>
    44ec:	47e8                	sw	a0,76(a5)
    44ee:	1e6d                	slli	t3,t3,0x3b
    44f0:	efda                	andi	t6,t6,22
    44f2:	0588                	mv	a1,sp
    44f4:	b61d                	addi	a5,sp,800
    44f6:	6226                	bnez	a2,451e <input_data+0x1fbe>
    44f8:	bb78                	and	a4,a4,a4
    44fa:	6266                	bnez	a2,4532 <input_data+0x1fd2>
    44fc:	5b668c23          	sb	s6,1464(a3) # 20a315b8 <_gp+0x20a2a858>
    4500:	b0dc                	or	a2,s1,a5
    4502:	0ffa                	j	4ce0 <verify_data+0x780>
    4504:	347e3b97          	auipc	s7,0x347e3
    4508:	465d649b          	0x465d649b
    450c:	bc8d                	addi	a1,sp,624
    450e:	6f59                	bltz	a4,45e4 <verify_data+0x84>
    4510:	685d77c3          	fmadd.s	fa5,fs10,ft5,fa3
    4514:	9740                	0x9740
    4516:	17ed                	slli	a5,a5,0x3b
    4518:	2c8c                	srai	s9,s9,0x3
    451a:	2031                	0x2031
    451c:	a141                	addi	s0,sp,132
    451e:	0f163cf7          	0xf163cf7
    4522:	1b81                	slli	s7,s7,0x20
    4524:	48deb2b3          	0x48deb2b3
    4528:	1b350fbf 05a5ef07 	0x5a5ef071b350fbf
    4530:	44f2                	beqz	s1,458c <verify_data+0x2c>
    4532:	4961                	sw	s8,144(sp)
    4534:	3900                	srai	s2,s2,0x20
    4536:	a4257fdb          	0xa4257fdb
    453a:	7329                	bltz	a4,4444 <input_data+0x1ee4>
    453c:	12e0                	add	t0,t0,s8
    453e:	c44211eb          	0xc44211eb
    4542:	7a88                	0x7a88
    4544:	c985                	lw	s3,64(sp)
    4546:	3a76                	jal	4282 <input_data+0x1d22>
    4548:	4e03cf67          	0x4e03cf67
    454c:	e4c1                	bgez	s1,459c <verify_data+0x3c>
    454e:	3c39                	srli	s8,s8,0x2e
    4550:	167d                	slli	a2,a2,0x3f
    4552:	5370                	sw	a2,100(a4)
    4554:	36f5                	srli	a3,a3,0x3d
    4556:	4896                	beqz	s1,45fa <verify_data+0x9a>
    4558:	66c0                	slt	a3,a3,s0
    455a:	37b6                	jal	4146 <input_data+0x1be6>
    455c:	935e                	li	t1,-9
    455e:	3460                	srai	s0,s0,0x38

00004560 <verify_data>:
    4560:	000a8b27          	0xa8b27
    4564:	bef4                	and	a5,a3,a3
    4566:	000d                	0xd
    4568:	83c4                	sub	t2,t2,a7
    456a:	0021                	0x21
    456c:	9b62                	li	s6,-8
    456e:	0026                	j	4596 <verify_data+0x36>
    4570:	0030356f          	jal	a0,7d72 <_gp+0x1012>
    4574:	be92                	lui	t4,0xfffe4
    4576:	0035                	0x35
    4578:	0039e5ef          	jal	a1,a2d7a <_gp+0x9c01a>
    457c:	82bc                	sub	t0,t0,a5
    457e:	003d                	0x3d
    4580:	02d6                	j	46f4 <verify_data+0x194>
    4582:	0051                	0x51
    4584:	d704                	lw	s1,40(a4)
    4586:	0051                	0x51
    4588:	00949033          	sll	zero,s1,s1
    458c:	1df9                	slli	s11,s11,0x3e
    458e:	779600af          	0x779600af
    4592:	00c2                	j	45e2 <verify_data+0x82>
    4594:	1040                	0x1040
    4596:	00c4                	mv	ra,a7
    4598:	00c56a53          	fadd.s	fs4,fa0,fa2,unknown
    459c:	1f1d                	slli	t5,t5,0x27
    459e:	00c9                	slli	ra,ra,0x12
    45a0:	00d3e7bb          	0xd3e7bb
    45a4:	8b4c                	sub	s6,s6,s3
    45a6:	459500d7          	0x459500d7
    45aa:	00d9                	slli	ra,ra,0x16
    45ac:	6bd8                	0x6bd8
    45ae:	00fa                	j	460c <verify_data+0xac>
    45b0:	0125630f          	0x125630f
    45b4:	ffb9                	bgez	a5,4582 <verify_data+0x22>
    45b6:	013a                	j	4644 <verify_data+0xe4>
    45b8:	d932                	addi	s2,s2,-20
    45ba:	0144                	mv	sp,a7
    45bc:	c7f5                	lw	a5,92(sp)
    45be:	0151                	slli	sp,sp,0x14
    45c0:	54ee                	beqz	s1,453a <input_data+0x1fda>
    45c2:	5b5b015b          	0x5b5b015b
    45c6:	00ad0163          	beq	s10,a0,45c8 <verify_data+0x68>
    45ca:	0174                	mv	sp,t4
    45cc:	fa95                	bgez	a3,4570 <verify_data+0x10>
    45ce:	018a                	j	4690 <verify_data+0x130>
    45d0:	30b0                	srai	ra,ra,0x2c
    45d2:	0191                	slli	gp,gp,0x4
    45d4:	019736cb          	fnmsub.s	fa3,fa4,fs9,ft0,rup
    45d8:	befe                	lui	t4,0xfffff
    45da:	01a1                	slli	gp,gp,0x8
    45dc:	9418                	0x9418
    45de:	01a4                	mv	gp,s1
    45e0:	2a85                	srli	s5,s5,0x1
    45e2:	532401af          	0x532401af
    45e6:	e9c701b7          	lui	gp,0xe9c70
    45ea:	01d8                	mv	gp,s6
    45ec:	01db5cd7          	0x1db5cd7
    45f0:	c8a5                	lw	a7,72(sp)
    45f2:	01e1                	slli	gp,gp,0x18
    45f4:	2134                	srai	sp,sp,0xd
    45f6:	01e2                	j	46ce <verify_data+0x16e>
    45f8:	2442                	jal	4808 <verify_data+0x2a8>
    45fa:	021f 2b34 0223      	0x2232b34021f
    4600:	d6fc                	lw	a5,108(a3)
    4602:	0234                	mv	tp,a3
    4604:	bdad                	addi	a1,sp,760
    4606:	0236                	j	4732 <verify_data+0x1d2>
    4608:	4c36                	beqz	s0,46f4 <verify_data+0x194>
    460a:	024d                	slli	tp,tp,0x13
    460c:	8266                	li	tp,25
    460e:	027c                	mv	tp,t6
    4610:	31ca                	jal	3ee2 <input_data+0x1982>
    4612:	0281                	slli	t0,t0,0x0
    4614:	b6de                	lui	a3,0xffff7
    4616:	029e                	j	477c <verify_data+0x21c>
    4618:	b6a6                	lui	a3,0xfffe9
    461a:	02cd                	slli	t0,t0,0x13
    461c:	127d                	slli	tp,tp,0x3f
    461e:	02d4                	mv	t0,s5
    4620:	3e02                	jal	4520 <input_data+0x1fc0>
    4622:	02d4                	mv	t0,s5
    4624:	02e12ea7          	fsw	fa4,61(sp)
    4628:	4258                	sw	a4,4(a2)
    462a:	02e8                	mv	t0,s10
    462c:	03065ce3          	ble	a6,a2,4e64 <verify_data+0x904>
    4630:	b802                	lui	a6,0xfffe0
    4632:	0309                	slli	t1,t1,0x2
    4634:	c325                	lw	t1,72(sp)
    4636:	0314                	mv	t1,t0
    4638:	f686                	andi	a3,a3,-31
    463a:	0335                	slli	t1,t1,0xd
    463c:	472e                	beqz	a4,46a6 <verify_data+0x146>
    463e:	034e                	j	47f0 <verify_data+0x290>
    4640:	705c                	0x705c
    4642:	55e00377          	0x55e00377
    4646:	0378                	mv	t1,t5
    4648:	2382                	jal	4808 <verify_data+0x2a8>
    464a:	038a                	j	480c <verify_data+0x2ac>
    464c:	b6cd                	addi	a1,sp,868
    464e:	b922039b          	0xb922039b
    4652:	03ad                	slli	t2,t2,0xb
    4654:	3e1f 03b5 08ea      	0x8ea03b53e1f
    465a:	03c5                	slli	t2,t2,0x11
    465c:	b410                	add	a3,s0,a2
    465e:	03dc                	mv	t2,s7
    4660:	ea69                	bgez	a2,46fa <verify_data+0x19a>
    4662:	a10703f7          	0xa10703f7
    4666:	040e                	j	4888 <verify_data+0x328>
    4668:	aaf4                	and	a0,a3,a3
    466a:	041e                	j	4890 <verify_data+0x330>
    466c:	6f58                	slt	a4,a4,a4
    466e:	042a                	j	4878 <verify_data+0x318>
    4670:	042c2c93          	slti	s9,s8,66
    4674:	c4c2                	addi	s1,s1,16
    4676:	0439                	slli	s0,s0,0xe
    4678:	82a8                	sub	t0,t0,a0
    467a:	e231044f          	fnmadd.d	fs0,ft2,ft3,ft8,rne
    467e:	0456                	j	48b2 <verify_data+0x352>
    4680:	f6c6                	andi	a3,a3,-15
    4682:	0458                	mv	s0,s6
    4684:	b2da                	lui	t0,0xffff6
    4686:	0476                	j	48c2 <verify_data+0x362>
    4688:	7e24                	0x7e24
    468a:	0486                	j	48ea <verify_data+0x38a>
    468c:	86b6                	li	a3,13
    468e:	0498                	mv	s1,t1
    4690:	49b6                	beqz	a1,473c <verify_data+0x1dc>
    4692:	049e                	j	48f8 <verify_data+0x398>
    4694:	80f2                	li	ra,28
    4696:	9c1c04ab          	0x9c1c04ab
    469a:	04c9                	slli	s1,s1,0x12
    469c:	deea                	addi	t4,t4,-6
    469e:	04ca                	j	48f0 <verify_data+0x390>
    46a0:	04d2734b          	fnmsub.h	ft6,ft4,fa3,ft0
    46a4:	04da198b          	0x4da198b
    46a8:	a428                	sub	s1,s0,a0
    46aa:	04f0                	mv	s1,t3
    46ac:	d981                	lw	s3,32(sp)
    46ae:	3571050f          	0x3571050f
    46b2:	053d                	slli	a0,a0,0xf
    46b4:	5552                	beqz	a0,4608 <verify_data+0xa8>
    46b6:	24a4054b          	fnmsub.h	fa0,fs0,fa0,ft4,rne
    46ba:	0554                	mv	a0,s5
    46bc:	415f 055e 41a4      	0x41a4055e415f
    46c2:	f25c056f          	jal	a0,fffc55e6 <_gp+0xfffbe886>
    46c6:	057f                	0x57f
    46c8:	058545bf 0588efda 	0x588efda058545bf
    46d0:	058dfb67          	0x58dfb67
    46d4:	05a5ef07          	0x5a5ef07
    46d8:	1220                	add	tp,tp,s0
    46da:	05b5                	slli	a1,a1,0xd
    46dc:	6e11                	bltz	a2,47a0 <verify_data+0x240>
    46de:	05ee                	j	49d8 <verify_data+0x478>
    46e0:	a4ed                	addi	a1,sp,588
    46e2:	063c                	mv	a2,a5
    46e4:	0340                	mv	t1,a6
    46e6:	063e                	j	4a14 <verify_data+0x4b4>
    46e8:	091f 0648 d5d4      	0xd5d40648091f
    46ee:	0654                	mv	a2,s5
    46f0:	065a84b7          	lui	s1,0x65a8
    46f4:	06622783          	lw	a5,102(tp) # 3c989192 <_gp+0x3c982432>
    46f8:	2422                	jal	4900 <verify_data+0x3a0>
    46fa:	47c40663          	beq	s0,t3,4b66 <verify_data+0x606>
    46fe:	0670                	mv	a2,t3
    4700:	3ad6                	jal	4474 <input_data+0x1f14>
    4702:	0675                	slli	a2,a2,0x1d
    4704:	417f                	0x417f
    4706:	0676                	j	4a42 <verify_data+0x4e2>
    4708:	895f 0679 c100      	0xc1000679895f
    470e:	067f                	0x67f
    4710:	3ee4                	srai	t4,t4,0x39
    4712:	86480687          	0x86480687
    4716:	06ad                	slli	a3,a3,0xb
    4718:	e19d                	bgez	a1,473e <verify_data+0x1de>
    471a:	06b6                	j	4a86 <verify_data+0x526>
    471c:	06c34b8b          	0x6c34b8b
    4720:	1870                	add	a6,a6,t3
    4722:	06c5                	slli	a3,a3,0x11
    4724:	9628                	0x9628
    4726:	06ce                	j	4a98 <verify_data+0x538>
    4728:	02e2                	j	4880 <verify_data+0x320>
    472a:	b7c306db          	0xb7c306db
    472e:	06f5                	slli	a3,a3,0x1d
    4730:	3fc0                	srai	t6,t6,0x30
    4732:	06fd                	slli	a3,a3,0x1f
    4734:	8f21                	xori	s0,a4,3
    4736:	06fd                	slli	a3,a3,0x1f
    4738:	f79f 0704 25d6      	0x25d60704f79f
    473e:	071c                	mv	a4,t2
    4740:	d1ee                	addi	gp,gp,-5
    4742:	0721                	slli	a4,a4,0x8
    4744:	07477a3f 075a3493 	0x75a349307477a3f
    474c:	076267bf 079f193f 	0x79f193f076267bf
    4754:	afe9                	addi	a0,sp,988
    4756:	07a1                	slli	a5,a5,0x8
    4758:	a8fc                	and	a0,s1,a5
    475a:	154507bf 7b3807d5 	0x7b3807d5154507bf
    4762:	07f9                	slli	a5,a5,0x1e
    4764:	08039873          	csrrw	a6,0x80,t2
    4768:	2215                	srli	tp,tp,0x5
    476a:	080c                	mv	a6,gp
    476c:	49ca                	beqz	a1,47fe <verify_data+0x29e>
    476e:	0816                	j	4b92 <verify_data+0x632>
    4770:	082b2a17          	auipc	s4,0x82b2
    4774:	9b68                	0x9b68
    4776:	0836                	j	4ba2 <verify_data+0x642>
    4778:	8469                	andi	a0,s0,1
    477a:	0850                	mv	a6,s4
    477c:	08606c9b          	0x8606c9b
    4780:	da71                	lw	s4,60(sp)
    4782:	08ad                	slli	a7,a7,0xb
    4784:	08b3d3db          	0x8b3d3db
    4788:	09fd                	slli	s3,s3,0x1f
    478a:	08d4                	mv	a7,s5
    478c:	08da5b6b          	0x8da5b6b
    4790:	2c11                	srli	s8,s8,0x4
    4792:	08e4                	mv	a7,s9
    4794:	08fe3757          	0x8fe3757
    4798:	6d30                	srl	a2,a0,a2
    479a:	0906                	j	4c3a <verify_data+0x6da>
    479c:	8185                	addi	s1,a1,0
    479e:	03e50913          	addi	s2,a0,62
    47a2:	094a                	j	4c34 <verify_data+0x6d4>
    47a4:	f9c1                	bgez	a1,4734 <verify_data+0x1d4>
    47a6:	f94f0953          	0xf94f0953
    47aa:	89600957          	0x89600957
    47ae:	099f 54b6 09a0      	0x9a054b6099f
    47b4:	b5b6                	lui	a1,0xfffed
    47b6:	09bc                	mv	s3,a5
    47b8:	09fe3077          	0x9fe3077
    47bc:	4130                	sw	a2,64(a0)
    47be:	379b0a0f          	0x379b0a0f
    47c2:	d3450a17          	auipc	s4,0xd3450
    47c6:	0a1d                	slli	s4,s4,0x7
    47c8:	4a15                	sw	t0,20(sp)
    47ca:	0a26                	j	4cf2 <verify_data+0x792>
    47cc:	2f1a                	jal	4f52 <verify_data+0x9f2>
    47ce:	0a42                	j	4cde <verify_data+0x77e>
    47d0:	0a50ba03          	0xa50ba03
    47d4:	53d9                	sw	s6,228(sp)
    47d6:	0a5c                	mv	s4,s7
    47d8:	48d2                	beqz	s1,486c <verify_data+0x30c>
    47da:	0a60                	mv	s4,s8
    47dc:	0a6dc44f          	fnmadd.d	fs0,fs11,ft6,ft1,rmm
    47e0:	c97f                	0xc97f
    47e2:	0a79                	slli	s4,s4,0x1e
    47e4:	2930                	srai	s2,s2,0xc
    47e6:	ea250a7b          	0xea250a7b
    47ea:	0a7d                	slli	s4,s4,0x1f
    47ec:	5874                	sw	a3,116(s0)
    47ee:	0a8e                	j	4d50 <verify_data+0x7f0>
    47f0:	d099                	lw	ra,164(sp)
    47f2:	0aa9                	slli	s5,s5,0xa
    47f4:	f591                	bgez	a1,4738 <verify_data+0x1d8>
    47f6:	0ac2                	j	4d46 <verify_data+0x7e6>
    47f8:	0ac3bca3          	0xac3bca3
    47fc:	8142                	li	sp,16
    47fe:	0ad2                	j	4d52 <verify_data+0x7f2>
    4800:	3aae                	jal	456a <verify_data+0xa>
    4802:	0ae2                	j	4d5a <verify_data+0x7fa>
    4804:	ba5a                	lui	s4,0xffff6
    4806:	0af2                	j	4d62 <verify_data+0x802>
    4808:	0b0fe933          	0xb0fe933
    480c:	eae8                	0xeae8
    480e:	0b10                	mv	s6,tp
    4810:	d360                	lw	s0,100(a4)
    4812:	0b15                	slli	s6,s6,0x5
    4814:	dbe0                	lw	s0,116(a5)
    4816:	dcd00b17          	auipc	s6,0xdcd00
    481a:	0b18                	mv	s6,t1
    481c:	e892                	andi	a7,a7,4
    481e:	0b34                	mv	s6,a3
    4820:	0b5676e3          	bleu	s5,a2,50cc <verify_data+0xb6c>
    4824:	5a9a                	beqz	a3,47aa <verify_data+0x24a>
    4826:	7c260b5b          	0x7c260b5b
    482a:	0b5f 4814 0b8e      	0xb8e48140b5f
    4830:	3f66                	jal	47e8 <verify_data+0x288>
    4832:	0ba5                	slli	s7,s7,0x9
    4834:	db0a                	addi	s6,s6,-30
    4836:	0bb4                	mv	s7,a3
    4838:	b420                	sub	a3,s0,s0
    483a:	0bcc                	mv	s7,s3
    483c:	16b9                	slli	a3,a3,0x2e
    483e:	0bd0                	mv	s7,s4
    4840:	cd60                	lw	s0,92(a0)
    4842:	0bd0                	mv	s7,s4
    4844:	0919                	slli	s2,s2,0x6
    4846:	0bed                	slli	s7,s7,0x1b
    4848:	9f16                	li	t5,-27
    484a:	f2ea0bef          	jal	s7,fffa4f78 <_gp+0xfff9e218>
    484e:	0c11                	slli	s8,s8,0x4
    4850:	0c30a657          	0xc30a657
    4854:	2cec                	srai	s9,s9,0x1b
    4856:	0c38                	mv	s8,a4
    4858:	0c514963          	blt	sp,t0,492a <verify_data+0x3ca>
    485c:	45e2                	beqz	a1,48b4 <verify_data+0x354>
    485e:	0c68                	mv	s8,s10
    4860:	6fc0                	slt	s0,a5,s0
    4862:	0c6c                	mv	s8,s11
    4864:	d928                	lw	a0,112(a0)
    4866:	0c85                	slli	s9,s9,0x1
    4868:	c4ff                	0xc4ff
    486a:	366e0c8f          	0x366e0c8f
    486e:	0c92                	j	4eb2 <verify_data+0x952>
    4870:	90c0                	0x90c0
    4872:	65910ca3          	sb	s9,1625(sp)
    4876:	75090caf          	0x75090caf
    487a:	0ccc                	mv	s9,s3
    487c:	ea80                	0xea80
    487e:	0cd0                	mv	s9,s4
    4880:	8aa1                	xori	s0,a3,2
    4882:	0ce6                	j	4efa <verify_data+0x99a>
    4884:	68ec                	0x68ec
    4886:	0ce8                	mv	s9,s10
    4888:	cc9f 0cfa a7e9      	0xa7e90cfacc9f
    488e:	0d08                	mv	s10,sp
    4890:	3b0a                	jal	4612 <verify_data+0xb2>
    4892:	0d31                	slli	s10,s10,0xc
    4894:	0d36494b          	fnmsub.h	fs2,fa2,fs3,ft1,rmm
    4898:	88d1                	ori	a2,s1,2
    489a:	9e8b0d43          	0x9e8b0d43
    489e:	0d6a                	j	4f38 <verify_data+0x9d8>
    48a0:	18cd                	slli	a7,a7,0x33
    48a2:	7e030d77          	0x7e030d77
    48a6:	85140d77          	0x85140d77
    48aa:	90d40d83          	lb	s11,-1779(s0)
    48ae:	507c0d83          	lb	s11,1287(s8)
    48b2:	0d86                	j	4f92 <verify_data+0xa32>
    48b4:	0d8789af          	0xd8789af
    48b8:	0d8e43d3          	fsub.h	ft7,ft8,fs8,rmm
    48bc:	05ac                	mv	a1,a1
    48be:	0d95                	slli	s11,s11,0x5
    48c0:	a911                	addi	a2,sp,144
    48c2:	0da5                	slli	s11,s11,0x9
    48c4:	1500                	add	a0,a0,zero
    48c6:	0db4                	mv	s11,a3
    48c8:	b6ca                	lui	a3,0xffff2
    48ca:	0dba                	j	4f98 <verify_data+0xa38>
    48cc:	323a                	jal	41da <input_data+0x1c7a>
    48ce:	8d110dbf a4550dc7 	0xa4550dc78d110dbf
    48d6:	0dd6                	j	4fca <verify_data+0xa6a>
    48d8:	27b1                	srli	a5,a5,0xc
    48da:	124f0df3          	0x124f0df3
    48de:	0e1e                	j	5004 <verify_data+0xaa4>
    48e0:	0e20a51b          	0xe20a51b
    48e4:	d8e0                	lw	s0,116(s1)
    48e6:	3b240e33          	0x3b240e33
    48ea:	0e38                	mv	t3,a4
    48ec:	f698                	0xf698
    48ee:	0e4d                	slli	t3,t3,0x13
    48f0:	0e578ce3          	beq	a5,t0,51e8 <verify_data+0xc88>
    48f4:	b631                	addi	a2,sp,808
    48f6:	0e64                	mv	t3,s9
    48f8:	938a                	li	t2,-30
    48fa:	0e65                	slli	t3,t3,0x19
    48fc:	3a1d                	srli	s4,s4,0x27
    48fe:	0e68                	mv	t3,s10
    4900:	f848                	0xf848
    4902:	0e95                	slli	t4,t4,0x5
    4904:	06c9                	slli	a3,a3,0x12
    4906:	0e9a                	j	504c <verify_data+0xaec>
    4908:	83b2                	li	t2,12
    490a:	0e9f a14b 0ebc      	0xebca14b0e9f
    4910:	be14                	add	a5,a2,a3
    4912:	c3680ebf 1ec70ebf 	0x1ec70ebfc3680ebf
    491a:	0ee2                	j	5072 <verify_data+0xb12>
    491c:	0ee70b53          	0xee70b53
    4920:	ab91                	addi	a2,sp,464
    4922:	0ee8                	mv	t4,s10
    4924:	db66                	addi	s6,s6,-7
    4926:	0ef1                	slli	t4,t4,0x1c
    4928:	cfda                	addi	t6,t6,22
    492a:	cd000ef3          	0xcd000ef3
    492e:	0efd                	slli	t4,t4,0x1f
    4930:	2f3e                	jal	50de <verify_data+0xb7e>
    4932:	0f22                	j	50ba <verify_data+0xb5a>
    4934:	73da                	bnez	a5,484a <verify_data+0x2ea>
    4936:	0f36                	j	50e2 <verify_data+0xb82>
    4938:	760e                	bnez	a2,489a <verify_data+0x33a>
    493a:	0f45                	slli	t5,t5,0x11
    493c:	61f6                	bnez	a1,4978 <verify_data+0x418>
    493e:	9eb70f4f          	0x9eb70f4f
    4942:	0f5c                	mv	t5,s7
    4944:	0f637b73          	csrrc	s6,0xf6,6
    4948:	c1b1                	lw	gp,12(sp)
    494a:	dcbd0f7b          	0xdcbd0f7b
    494e:	5fc40f7b          	0x5fc40f7b
    4952:	82b70f83          	lb	t6,-2005(a4)
    4956:	0f89                	slli	t6,t6,0x2
    4958:	9338                	0x9338
    495a:	0f89                	slli	t6,t6,0x2
    495c:	0f8b5fbf 0f97096e 	0xf97096e0f8b5fbf
    4964:	1efe                	j	48e2 <verify_data+0x382>
    4966:	0fd1                	slli	t6,t6,0x14
    4968:	c2dc                	lw	a5,4(a3)
    496a:	0fec                	mv	t6,s11
    496c:	b0dc                	or	a2,s1,a5
    496e:	0ffa                	j	514c <verify_data+0xbec>
    4970:	2d4e                	jal	5022 <verify_data+0xac2>
    4972:	233d100b          	0x233d100b
    4976:	101e                	j	419c <input_data+0x1c3c>
    4978:	10244d23          	0x10244d23
    497c:	f81f 1034 4c25      	0x4c251034f81f
    4982:	1060                	0x1060
    4984:	45f5                	sw	t4,200(sp)
    4986:	108a                	j	41c8 <input_data+0x1c68>
    4988:	0f29                	slli	t5,t5,0xa
    498a:	1091                	slli	ra,ra,0x24
    498c:	0db2                	j	5058 <verify_data+0xaf8>
    498e:	10a5                	slli	ra,ra,0x29
    4990:	8f9a                	li	t6,6
    4992:	10c4                	add	ra,ra,a7
    4994:	10e4ceaf          	0x10e4ceaf
    4998:	8979                	andi	a4,a0,2
    499a:	dde610f7          	0xdde610f7
    499e:	1122                	j	4226 <input_data+0x1cc6>
    49a0:	112b5d0f          	0x112b5d0f
    49a4:	43c8                	sw	a0,4(a5)
    49a6:	1144                	add	sp,sp,a7
    49a8:	dc36                	addi	s8,s8,-19
    49aa:	115c                	add	sp,sp,s7
    49ac:	7eec                	0x7eec
    49ae:	1178                	add	sp,sp,t5
    49b0:	0002                	j	49b0 <verify_data+0x450>
    49b2:	1189                	slli	gp,gp,0x22
    49b4:	119f8227          	0x119f8227
    49b8:	4fc8                	sw	a0,28(a5)
    49ba:	182611cf          	fnmadd.s	ft3,fa2,ft2,ft3,rtz
    49be:	11da                	j	4294 <input_data+0x1d34>
    49c0:	8de8                	sub	s11,s11,s10
    49c2:	11e4                	add	gp,gp,s9
    49c4:	12e0                	add	t0,t0,s8
    49c6:	3fa611eb          	0x3fa611eb
    49ca:	11f6                	j	42c6 <input_data+0x1d66>
    49cc:	04bd                	slli	s1,s1,0xf
    49ce:	2b6111fb          	0x2b6111fb
    49d2:	824211fb          	0x824211fb
    49d6:	51f61203          	lh	tp,1311(a2)
    49da:	121c                	add	tp,tp,t2
    49dc:	acb4                	sub	a1,s1,a3
    49de:	1220                	add	tp,tp,s0
    49e0:	e474                	0xe474
    49e2:	1221                	slli	tp,tp,0x28
    49e4:	321c                	srai	tp,tp,0x27
    49e6:	1225                	slli	tp,tp,0x29
    49e8:	671f 1235 6343      	0x63431235671f
    49ee:	1239                	slli	tp,tp,0x2e
    49f0:	c895                	lw	a7,68(sp)
    49f2:	63be125b          	0x63be125b
    49f6:	1266                	j	432e <input_data+0x1dce>
    49f8:	6746                	bnez	a4,4a68 <verify_data+0x508>
    49fa:	1268                	add	tp,tp,s10
    49fc:	c920                	lw	s0,80(a0)
    49fe:	1268                	add	tp,tp,s10
    4a00:	6408                	sll	s0,s0,a0
    4a02:	127e                	j	4340 <input_data+0x1de0>
    4a04:	6db5                	bltz	a1,4af0 <verify_data+0x590>
    4a06:	1744128b          	0x1744128b
    4a0a:	12dd                	slli	t0,t0,0x37
    4a0c:	12f40083          	lb	ra,303(s0)
    4a10:	bfaa                	lui	t6,0xfffea
    4a12:	12ff                	0x12ff
    4a14:	e741                	bgez	a4,4a64 <verify_data+0x504>
    4a16:	1314                	add	t1,t1,t0
    4a18:	c0ac                	lw	a1,64(s1)
    4a1a:	133c                	add	t1,t1,a5
    4a1c:	2441                	srli	s0,s0,0x10
    4a1e:	0e9b1353          	0xe9b1353
    4a22:	1364                	add	t1,t1,s9
    4a24:	136948cb          	fnmsub.d	fa7,fs2,fs6,ft2,rmm
    4a28:	4dd8                	sw	a4,28(a1)
    4a2a:	1395                	slli	t2,t2,0x25
    4a2c:	e4b2                	andi	s1,s1,12
    4a2e:	139c                	add	t2,t2,t2
    4a30:	db86                	addi	s7,s7,-31
    4a32:	a26a13a7          	fsh	ft6,-1497(s4) # d34541e9 <_gp+0xd344d489>
    4a36:	13b2                	j	4402 <input_data+0x1ea2>
    4a38:	13bf00c7          	fmsub.d	ft1,ft10,fs11,ft2,rne
    4a3c:	13ccfe2f          	0x13ccfe2f
    4a40:	b436                	lui	s0,0xfffed
    4a42:	13e5                	slli	t2,t2,0x39
    4a44:	13e702e3          	beq	a4,t5,5368 <verify_data+0xe08>
    4a48:	0138                	mv	sp,a4
    4a4a:	13e9                	slli	t2,t2,0x3a
    4a4c:	a794                	add	s1,a5,a3
    4a4e:	13fe                	j	444c <input_data+0x1eec>
    4a50:	140a3777          	0x140a3777
    4a54:	98ae                	li	a7,-21
    4a56:	142d                	slli	s0,s0,0x2b
    4a58:	8655                	ori	a3,a2,1
    4a5a:	bdd61447          	fmsub.h	fs0,fa2,ft9,fs7,rtz
    4a5e:	144a                	j	4470 <input_data+0x1f10>
    4a60:	81a2                	li	gp,8
    4a62:	145a                	j	4478 <input_data+0x1f18>
    4a64:	145d8bd7          	0x145d8bd7
    4a68:	14624fa3          	0x14624fa3
    4a6c:	5a5e                	beqz	a2,4a22 <verify_data+0x4c2>
    4a6e:	1472                	j	448a <input_data+0x1f2a>
    4a70:	14739627          	fsh	ft7,332(t2) # 7ec71cf8 <_gp+0x7ec6af98>
    4a74:	2e08                	srai	t3,t3,0x2
    4a76:	147c                	add	s0,s0,t6
    4a78:	e22a                	andi	tp,tp,10
    4a7a:	1488                	add	s1,s1,sp
    4a7c:	2630                	srai	a2,a2,0xc
    4a7e:	148e                	j	44e0 <input_data+0x1f80>
    4a80:	14a8aca7          	fsw	fa0,345(a7)
    4a84:	108a                	j	42c6 <input_data+0x1d66>
    4a86:	14c0                	add	s1,s1,a6
    4a88:	14d11f33          	0x14d11f33
    4a8c:	14df5beb          	0x14df5beb
    4a90:	26d6                	jal	4e04 <verify_data+0x8a4>
    4a92:	caae14f7          	0xcaae14f7
    4a96:	1518                	add	a0,a0,t1
    4a98:	3f1e                	jal	4a3e <verify_data+0x4de>
    4a9a:	1532                	j	4526 <input_data+0x1fc6>
    4a9c:	7742                	bnez	a4,49ec <verify_data+0x48c>
    4a9e:	1540                	add	a0,a0,a6
    4aa0:	1541dfdb          	0x1541dfdb
    4aa4:	63a5                	bltz	a5,4acc <verify_data+0x56c>
    4aa6:	1542                	j	4536 <input_data+0x1fd6>
    4aa8:	1fe2                	j	4a80 <verify_data+0x520>
    4aaa:	1571                	slli	a0,a0,0x3c
    4aac:	d1f1                	lw	gp,60(sp)
    4aae:	157e                	j	456c <verify_data+0xc>
    4ab0:	18e0                	add	a7,a7,s8
    4ab2:	159f b440 15aa      	0x15aab440159f
    4ab8:	15bb2fe7          	0x15bb2fe7
    4abc:	a9d0                	or	a0,a1,a2
    4abe:	a7d115bb          	0xa7d115bb
    4ac2:	15c5                	slli	a1,a1,0x31
    4ac4:	7f16                	bnez	a4,4aa8 <verify_data+0x548>
    4ac6:	15ce                	j	45b8 <verify_data+0x58>
    4ac8:	68b2                	bnez	s1,4b54 <verify_data+0x5f4>
    4aca:	0f8915db          	0xf8915db
    4ace:	15ee                	j	45c8 <verify_data+0x68>
    4ad0:	15f77ee7          	0x15f77ee7
    4ad4:	15fcce2f          	0x15fcce2f
    4ad8:	12d6                	j	444c <input_data+0x1eec>
    4ada:	1629                	slli	a2,a2,0x2a
    4adc:	8dc1                	ori	s0,a1,3
    4ade:	1630                	add	a2,a2,a2
    4ae0:	5f2d                	sw	a1,188(sp)
    4ae2:	eb5f1633          	0xeb5f1633
    4ae6:	fd611633          	0xfd611633
    4aea:	163e                	j	4618 <verify_data+0xb8>
    4aec:	2ff2                	jal	52c8 <verify_data+0xd68>
    4aee:	1640                	add	a2,a2,a6
    4af0:	379a                	jal	46b6 <verify_data+0x156>
    4af2:	39421667          	0x39421667
    4af6:	1675                	slli	a2,a2,0x3d
    4af8:	bf1f 1695 42fc      	0x42fc1695bf1f
    4afe:	169e                	j	4664 <verify_data+0x104>
    4b00:	6ad2                	bnez	a3,4b94 <verify_data+0x634>
    4b02:	0ad616a7          	fsh	fa3,173(a2)
    4b06:	534b16b7          	lui	a3,0x534b1
    4b0a:	16be                	j	4678 <verify_data+0x118>
    4b0c:	d8e5                	lw	a7,120(sp)
    4b0e:	4eab16c3          	0x4eab16c3
    4b12:	098116cb          	fnmsub.s	fa3,ft2,fs8,ft1,rtz
    4b16:	1700                	add	a4,a4,zero
    4b18:	1692                	j	465c <verify_data+0xfc>
    4b1a:	170d                	slli	a4,a4,0x23
    4b1c:	1621                	slli	a2,a2,0x28
    4b1e:	1712                	j	46a2 <verify_data+0x142>
    4b20:	17155447          	0x17155447
    4b24:	7b35                	bltz	a4,4ad0 <verify_data+0x570>
    4b26:	171a                	j	46ac <verify_data+0x14c>
    4b28:	172d75a3          	0x172d75a3
    4b2c:	3a26                	jal	4854 <verify_data+0x2f4>
    4b2e:	46e31733          	0x46e31733
    4b32:	174a                	j	46c4 <verify_data+0x164>
    4b34:	1753184b          	0x1753184b
    4b38:	b7d5                	addi	a3,sp,996
    4b3a:	1790                	add	a5,a5,tp
    4b3c:	394c                	srai	s2,s2,0x33
    4b3e:	17bc                	add	a5,a5,a5
    4b40:	bb4a                	lui	s6,0xffff2
    4b42:	17bc                	add	a5,a5,a5
    4b44:	e6da                	andi	a3,a3,22
    4b46:	17c6                	j	4736 <verify_data+0x1d6>
    4b48:	ff59                	bgez	a4,4b1e <verify_data+0x5be>
    4b4a:	17c9                	slli	a5,a5,0x32
    4b4c:	3abd                	srli	s5,s5,0x2f
    4b4e:	61c617cf          	fnmadd.s	fa5,fa2,ft8,fa2,rtz
    4b52:	974017d7          	0x974017d7
    4b56:	17ed                	slli	a5,a5,0x3b
    4b58:	eeec                	0xeeec
    4b5a:	1802                	j	475a <verify_data+0x1fa>
    4b5c:	10d2                	j	43b0 <input_data+0x1e50>
    4b5e:	1aef180b          	0x1aef180b
    4b62:	184e                	j	4794 <verify_data+0x234>
    4b64:	8e8d                	addi	a1,a3,3
    4b66:	188c                	add	a7,a7,gp
    4b68:	c656                	addi	a2,a2,21
    4b6a:	189e                	j	47d0 <verify_data+0x270>
    4b6c:	a1ce                	lui	gp,0x13
    4b6e:	18d2                	j	47c2 <verify_data+0x262>
    4b70:	9675                	andi	a3,a2,-3
    4b72:	3dfe18e3          	bne	t3,t6,5742 <verify_data+0x11e2>
    4b76:	18fa                	j	47d4 <verify_data+0x274>
    4b78:	19de                	j	486e <verify_data+0x30e>
    4b7a:	b28018fb          	0xb28018fb
    4b7e:	1900                	add	s2,s2,zero
    4b80:	4ff0                	sw	a2,92(a5)
    4b82:	190a                	j	4804 <verify_data+0x2a4>
    4b84:	191afacb          	fnmsub.s	fs5,fs5,fa7,ft3
    4b88:	ed44                	0xed44
    4b8a:	0a531927          	fsh	ft5,178(t1)
    4b8e:	b1bf193b          	0xb1bf193b
    4b92:	194e                	j	4844 <verify_data+0x2e4>
    4b94:	19a2b58b          	0x19a2b58b
    4b98:	5cc9                	sw	s2,120(sp)
    4b9a:	19c1                	slli	s3,s3,0x30
    4b9c:	1980                	add	s3,s3,zero
    4b9e:	19c9                	slli	s3,s3,0x32
    4ba0:	19cee96b          	0x19cee96b
    4ba4:	59f1                	sw	t3,240(sp)
    4ba6:	19d5                	slli	s3,s3,0x35
    4ba8:	4af1                	sw	t3,84(sp)
    4baa:	306d19eb          	0x306d19eb
    4bae:	19f1                	slli	s3,s3,0x3c
    4bb0:	f8f2                	andi	a7,a7,-4
    4bb2:	19f1                	slli	s3,s3,0x3c
    4bb4:	1886                	j	4814 <verify_data+0x2b4>
    4bb6:	1a04                	add	s4,s4,ra
    4bb8:	af00                	add	a1,a4,s0
    4bba:	1a05                	slli	s4,s4,0x21
    4bbc:	1a067347          	fmsub.d	ft6,fa2,ft0,ft3
    4bc0:	efe9                	bgez	a5,4c9a <verify_data+0x73a>
    4bc2:	1a16                	j	48e6 <verify_data+0x386>
    4bc4:	34a2                	jal	460c <verify_data+0xac>
    4bc6:	1a26                	j	48ee <verify_data+0x38e>
    4bc8:	6680                	sll	a3,a3,s0
    4bca:	1a72                	j	48e6 <verify_data+0x386>
    4bcc:	6a3e                	bnez	a2,4c7a <verify_data+0x71a>
    4bce:	1a7c                	add	s4,s4,t6
    4bd0:	1a9b193f 1ab845a1 	0x1ab845a11a9b193f
    4bd8:	c174                	lw	a3,68(a0)
    4bda:	1abe                	j	4948 <verify_data+0x3e8>
    4bdc:	8f99                	addi	a4,a5,3
    4bde:	1ae8                	add	s5,s5,s10
    4be0:	88d5                	ori	a3,s1,2
    4be2:	1afe                	j	4960 <verify_data+0x400>
    4be4:	fbb4                	0xfbb4
    4be6:	1b14                	add	s6,s6,t0
    4be8:	2e78                	srai	t3,t3,0x1e
    4bea:	1b16                	j	498e <verify_data+0x42e>
    4bec:	1b1ae0d3          	fdiv.d	ft1,fs5,fa7,unknown
    4bf0:	d252                	addi	tp,tp,-12
    4bf2:	0fbf1b2b          	0xfbf1b2b
    4bf6:	1b35                	slli	s6,s6,0x2d
    4bf8:	fb86                	andi	s7,s7,-31
    4bfa:	1b60                	add	s6,s6,s8
    4bfc:	1b717563          	bleu	s7,sp,4da6 <verify_data+0x846>
    4c00:	ab66                	lui	s6,0x19
    4c02:	1b78                	add	s6,s6,t5
    4c04:	0f16                	j	53a8 <verify_data+0xe48>
    4c06:	1b81                	slli	s7,s7,0x20
    4c08:	1b825af3          	csrrw	s5,0x1b8,4
    4c0c:	e83e                	andi	a6,a6,15
    4c0e:	1b94                	add	s7,s7,t0
    4c10:	a632                	lui	a2,0xc
    4c12:	1b96                	j	49f6 <verify_data+0x496>
    4c14:	1baab177          	0x1baab177
    4c18:	1bb4383f 1bb928d5 	0x1bb928d51bb4383f
    4c20:	0309                	slli	t1,t1,0x2
    4c22:	1c05                	slli	s8,s8,0x21
    4c24:	84d0                	sub	s1,s1,s4
    4c26:	1c2d                	slli	s8,s8,0x2b
    4c28:	1c2f74ab          	0x1c2f74ab
    4c2c:	4355                	sw	s5,132(sp)
    4c2e:	1c36                	j	4a5a <verify_data+0x4fa>
    4c30:	4b00                	sw	s0,16(a4)
    4c32:	a9601c73          	csrrw	s8,0xa96,zero
    4c36:	1c74                	add	s8,s8,t4
    4c38:	b4a9                	addi	a0,sp,616
    4c3a:	1c88                	add	s9,s9,sp
    4c3c:	0ac5                	slli	s5,s5,0x11
    4c3e:	1cb4                	add	s9,s9,a3
    4c40:	12d4                	add	t0,t0,s5
    4c42:	1cb4                	add	s9,s9,a3
    4c44:	bb55                	addi	a3,sp,436
    4c46:	1cc8                	add	s9,s9,s2
    4c48:	1ccf4e3b          	0x1ccf4e3b
    4c4c:	000d                	0xd
    4c4e:	1cf5                	slli	s9,s9,0x3d
    4c50:	4c05                	sw	ra,24(sp)
    4c52:	1cfa                	j	4ab0 <verify_data+0x550>
    4c54:	88a1                	xori	s0,s1,2
    4c56:	1cfa                	j	4ab4 <verify_data+0x554>
    4c58:	9565                	andi	s1,a0,-3
    4c5a:	1d14                	add	s10,s10,t0
    4c5c:	da5f 1d42 1082      	0x10821d42da5f
    4c62:	71bc1d5b          	0x71bc1d5b
    4c66:	97091d77          	0x97091d77
    4c6a:	1d82                	j	4b2a <verify_data+0x5ca>
    4c6c:	daea                	addi	s5,s5,-6
    4c6e:	1dac                	add	s11,s11,a1
    4c70:	9829                	xori	a0,s0,-2
    4c72:	1db9                	slli	s11,s11,0x2e
    4c74:	d75f 1dcb 2524      	0x25241dcbd75f
    4c7a:	9af51dd3          	0x9af51dd3
    4c7e:	1dd8                	add	s11,s11,s6
    4c80:	8a44                	sub	s4,s4,a7
    4c82:	daf91def          	jal	s11,fff96a30 <_gp+0xfff8fcd0>
    4c86:	1df0                	add	s11,s11,t3
    4c88:	6e48                	slt	a0,a2,a0
    4c8a:	1df4                	add	s11,s11,t4
    4c8c:	c9c9                	lw	s3,144(sp)
    4c8e:	1e00                	add	t3,t3,zero
    4c90:	d51d                	lw	a0,228(sp)
    4c92:	1e08                	add	t3,t3,sp
    4c94:	1e300f6b          	0x1e300f6b
    4c98:	25de                	jal	4f8e <verify_data+0xa2e>
    4c9a:	1e45                	slli	t3,t3,0x31
    4c9c:	8062                	0x8062
    4c9e:	1e46                	j	4bce <verify_data+0x66e>
    4ca0:	1e48192b          	0x1e48192b
    4ca4:	7f46                	bnez	a4,4c94 <verify_data+0x734>
    4ca6:	1e58                	add	t3,t3,s6
    4ca8:	1641                	slli	a2,a2,0x30
    4caa:	1e62                	j	4bc2 <verify_data+0x662>
    4cac:	47e8                	sw	a0,76(a5)
    4cae:	1e6d                	slli	t3,t3,0x3b
    4cb0:	932c                	0x932c
    4cb2:	1e6d                	slli	t3,t3,0x3b
    4cb4:	0b6e                	j	526e <verify_data+0xd0e>
    4cb6:	1e8c                	add	t4,t4,gp
    4cb8:	e911                	bgez	a0,4d3c <verify_data+0x7dc>
    4cba:	540d1e93          	0x540d1e93
    4cbe:	1e9c                	add	t4,t4,t2
    4cc0:	1e9ca763          	0x1e9ca763
    4cc4:	49c4                	sw	s1,20(a1)
    4cc6:	1ea6                	j	4c2e <verify_data+0x6ce>
    4cc8:	f87d                	bgez	s0,4c86 <verify_data+0x726>
    4cca:	1eb0                	add	t4,t4,a2
    4ccc:	98ac                	0x98ac
    4cce:	1eb8                	add	t4,t4,a4
    4cd0:	a950                	or	a0,a0,a2
    4cd2:	1ebe                	j	4c40 <verify_data+0x6e0>
    4cd4:	8110                	sub	sp,sp,tp
    4cd6:	1edc                	add	t4,t4,s7
    4cd8:	2d32                	jal	5364 <verify_data+0xe04>
    4cda:	1ee1                	slli	t4,t4,0x38
    4cdc:	4855                	sw	s5,16(sp)
    4cde:	1ef2                	j	4c3a <verify_data+0x6da>
    4ce0:	1ef490c3          	0x1ef490c3
    4ce4:	1ef9fd23          	0x1ef9fd23
    4ce8:	9906                	li	s2,-31
    4cea:	5e7e1f03          	lh	t5,1511(t3) # b5d98909 <_gp+0xb5d91ba9>
    4cee:	1f06                	j	4c8e <verify_data+0x72e>
    4cf0:	3d39                	srli	s10,s10,0x2e
    4cf2:	1f09                	slli	t5,t5,0x22
    4cf4:	8905                	addi	s1,a0,2
    4cf6:	1f1f 5071 1f23      	0x1f2350711f1f
    4cfc:	1f407de7          	0x1f407de7
    4d00:	1c49                	slli	s8,s8,0x32
    4d02:	1f54                	add	t5,t5,s5
    4d04:	0239                	slli	tp,tp,0xe
    4d06:	1f79                	slli	t5,t5,0x3e
    4d08:	1f8b77b7          	lui	a5,0x1f8b7
    4d0c:	96fd                	andi	a5,a3,-3
    4d0e:	1f98                	add	t6,t6,t1
    4d10:	b1ee                	lui	gp,0xffffb
    4d12:	cd531fb7          	lui	t6,0xcd531
    4d16:	1fbc                	add	t6,t6,a5
    4d18:	7b61                	bltz	a4,4cb0 <verify_data+0x750>
    4d1a:	1fc6                	j	4d0a <verify_data+0x7aa>
    4d1c:	0dde                	j	5412 <verify_data+0xeb2>
    4d1e:	1fda                	j	4cf4 <verify_data+0x794>
    4d20:	16f9                	slli	a3,a3,0x3e
    4d22:	1ff0                	add	t6,t6,t3
    4d24:	adc6                	lui	s11,0x11
    4d26:	73bb1ff3          	csrrw	t6,0x73b,s6
    4d2a:	201f 0c4c 2027      	0x20270c4c201f
    4d30:	202edda7          	0x202edda7
    4d34:	202fd7d7          	0x202fd7d7
    4d38:	2c8c                	srai	s9,s9,0x3
    4d3a:	2031                	0x2031
    4d3c:	46f4                	sw	a3,76(a3)
    4d3e:	203e                	jal	4d6c <verify_data+0x80c>
    4d40:	8ed1                	ori	a2,a3,3
    4d42:	0db82057          	0xdb82057
    4d46:	206c                	0x206c
    4d48:	7fd8                	0x7fd8
    4d4a:	207a                	jal	4d68 <verify_data+0x808>
    4d4c:	0d30                	mv	s10,a2
    4d4e:	207d                	0x207d
    4d50:	3aed                	srli	s5,s5,0x3b
    4d52:	2085                	srli	ra,ra,0x1
    4d54:	7fc9                	bltz	a5,4d26 <verify_data+0x7c6>
    4d56:	2090                	srai	ra,ra,0x4
    4d58:	78d4                	0x78d4
    4d5a:	f31d20b3          	0xf31d20b3
    4d5e:	20bc                	srai	ra,ra,0xf
    4d60:	7518                	0x7518
    4d62:	20d0                	srai	ra,ra,0x14
    4d64:	cf61                	lw	t5,24(sp)
    4d66:	e50320fb          	0xe50320fb
    4d6a:	2128                	srai	sp,sp,0xa
    4d6c:	7078                	0x7078
    4d6e:	2159                	srli	sp,sp,0x16
    4d70:	0b52                	j	5304 <verify_data+0xda4>
    4d72:	9d30216b          	0x9d30216b
    4d76:	218e                	jal	4e58 <verify_data+0x8f8>
    4d78:	81de                	li	gp,23
    4d7a:	03af21af          	amoadd.w.rl	gp,s10,(t5)
    4d7e:	a15d21bf f16e21d7 	0xf16e21d7a15d21bf
    4d86:	21e4                	srai	gp,gp,0x19
    4d88:	21f8bbe7          	0x21f8bbe7
    4d8c:	757d                	bltz	a0,4d0a <verify_data+0x7aa>
    4d8e:	2212                	jal	4e92 <verify_data+0x932>
    4d90:	221bb1f3          	csrrc	gp,0x221,s7
    4d94:	27e4                	srai	a5,a5,0x19
    4d96:	223a                	jal	4ea4 <verify_data+0x944>
    4d98:	e330                	0xe330
    4d9a:	2262                	jal	4eb2 <verify_data+0x952>
    4d9c:	226a2ea7          	fsw	ft6,573(s4)
    4da0:	9562                	li	a0,-8
    4da2:	226a                	jal	4ebc <verify_data+0x95c>
    4da4:	227f96f7          	0x227f96f7
    4da8:	810a                	li	sp,2
    4daa:	2285                	srli	t0,t0,0x1
    4dac:	22992e4b          	fnmsub.d	ft8,fs2,fs1,ft4,rdn
    4db0:	aa91                	addi	a2,sp,336
    4db2:	229c                	srai	t0,t0,0x7
    4db4:	9608                	0x9608
    4db6:	22c1                	srli	t0,t0,0x10
    4db8:	fb81                	bgez	a5,4d38 <verify_data+0x7d8>
    4dba:	22e0                	srai	t0,t0,0x18
    4dbc:	ab60                	and	a0,a4,s0
    4dbe:	22ea                	jal	4f18 <verify_data+0x9b8>
    4dc0:	2fa9                	srli	t6,t6,0xa
    4dc2:	231c                	srai	t1,t1,0x7
    4dc4:	39df 2335 4e2b      	0x4e2b233539df
    4dca:	2349                	srli	t1,t1,0x12
    4dcc:	c94a                	addi	s2,s2,18
    4dce:	234c                	srai	t1,t1,0x13
    4dd0:	23688f3b          	0x23688f3b
    4dd4:	278e                	jal	51b6 <verify_data+0xc56>
    4dd6:	2374                	srai	t1,t1,0x1d
    4dd8:	ed70                	0xed70
    4dda:	2381                	srli	t2,t2,0x0
    4ddc:	04c5                	slli	s1,s1,0x11
    4dde:	239c                	srai	t2,t2,0x7
    4de0:	034d                	slli	t1,t1,0x13
    4de2:	23a5                	srli	t2,t2,0x9
    4de4:	6a30                	0x6a30
    4de6:	a2f223e7          	0xa2f223e7
    4dea:	7ca623ef          	jal	t2,675b4 <_gp+0x60854>
    4dee:	e3c123f3          	csrrs	t2,0xe3c,sp
    4df2:	23fe                	jal	4ff0 <verify_data+0xa90>
    4df4:	240481ab          	0x240481ab
    4df8:	37ea                	jal	49d2 <verify_data+0x472>
    4dfa:	491c240f          	0x491c240f
    4dfe:	2435                	srli	s0,s0,0xd
    4e00:	b44a                	lui	s0,0xffff2
    4e02:	2439                	srli	s0,s0,0xe
    4e04:	cd3e                	addi	s10,s10,15
    4e06:	247e                	jal	5044 <verify_data+0xae4>
    4e08:	490d                	sw	gp,144(sp)
    4e0a:	249c                	srai	s1,s1,0x7
    4e0c:	3ecd                	srli	t4,t4,0x33
    4e0e:	24a2                	jal	5056 <verify_data+0xaf6>
    4e10:	5cb5                	sw	a3,120(sp)
    4e12:	66c324b3          	0x66c324b3
    4e16:	24d2                	jal	506a <verify_data+0xb0a>
    4e18:	24d5dd8b          	0x24d5dd8b
    4e1c:	81fd                	andi	a5,a1,0
    4e1e:	24d8                	srai	s1,s1,0x16
    4e20:	5376                	beqz	a4,4d5c <verify_data+0x7fc>
    4e22:	24e0                	srai	s1,s1,0x18
    4e24:	bbfa                	lui	s7,0xffffe
    4e26:	3a3624eb          	0x3a3624eb
    4e2a:	24ec                	srai	s1,s1,0x1b
    4e2c:	05f9                	slli	a1,a1,0x1e
    4e2e:	24f4                	srai	s1,s1,0x1d
    4e30:	0b3d                	slli	s6,s6,0xf
    4e32:	24fc                	srai	s1,s1,0x1f
    4e34:	c3bd                	lw	t2,204(sp)
    4e36:	2511                	srli	a0,a0,0x4
    4e38:	b685                	addi	s1,sp,864
    4e3a:	2514                	srai	a0,a0,0x5
    4e3c:	90ea                	li	ra,-6
    4e3e:	2515                	srli	a0,a0,0x5
    4e40:	76c0                	0x76c0
    4e42:	252c                	srai	a0,a0,0xb
    4e44:	18b0                	add	a7,a7,a2
    4e46:	2530                	srai	a0,a0,0xc
    4e48:	dc48                	lw	a0,60(s0)
    4e4a:	253a                	jal	50d8 <verify_data+0xb78>
    4e4c:	625f 253c d083      	0xd083253c625f
    4e52:	e0d6253f 5203254f 	0x5203254fe0d6253f
    4e5a:	2575                	srli	a0,a0,0x1d
    4e5c:	0af0                	mv	s5,t3
    4e5e:	a39e2593          	slti	a1,t3,-1479
    4e62:	259c                	srai	a1,a1,0x7
    4e64:	648d                	bltz	s1,4ec6 <verify_data+0x966>
    4e66:	25a2                	jal	512e <verify_data+0xbce>
    4e68:	25aa979b          	0x25aa979b
    4e6c:	e378                	0xe378
    4e6e:	25b4                	srai	a1,a1,0xd
    4e70:	25bbf907          	0x25bbf907
    4e74:	7b4a                	bnez	a4,4e06 <verify_data+0x8a6>
    4e76:	25be                	jal	5164 <verify_data+0xc04>
    4e78:	ff86                	andi	t6,t6,-31
    4e7a:	eb4f25ef          	jal	a1,ffff752e <_gp+0xffff07ce>
    4e7e:	2601                	srli	a2,a2,0x0
    4e80:	a9bd                	addi	a5,sp,216
    4e82:	2609                	srli	a2,a2,0x2
    4e84:	5fae                	beqz	a5,4e6e <verify_data+0x90e>
    4e86:	2632                	jal	5192 <verify_data+0xc32>
    4e88:	2540                	srai	a0,a0,0x10
    4e8a:	83a92667          	0x83a92667
    4e8e:	afc1266f          	jal	a2,fff1718a <_gp+0xfff1042a>
    4e92:	78e9268b          	0x78e9268b
    4e96:	26ba                	jal	51e4 <verify_data+0xc84>
    4e98:	0b60                	mv	s6,s8
    4e9a:	26c6                	jal	520a <verify_data+0xcaa>
    4e9c:	a9e2                	lui	s3,0x18
    4e9e:	26d5                	srli	a3,a3,0x15
    4ea0:	ed86                	andi	s11,s11,1
    4ea2:	26d8                	srai	a3,a3,0x16
    4ea4:	ebc4                	0xebc4
    4ea6:	26dd                	srli	a3,a3,0x17
    4ea8:	e848                	0xe848
    4eaa:	26e2                	jal	5202 <verify_data+0xca2>
    4eac:	26ecc43f 26f58add 	0x26f58add26ecc43f
    4eb4:	2ad8                	srai	s5,s5,0x16
    4eb6:	2709                	srli	a4,a4,0x2
    4eb8:	9280                	0x9280
    4eba:	270d                	srli	a4,a4,0x3
    4ebc:	4fba                	beqz	a5,4f8a <verify_data+0xa2a>
    4ebe:	2711                	srli	a4,a4,0x4
    4ec0:	53c2                	beqz	a5,4dd0 <verify_data+0x870>
    4ec2:	2728                	srai	a4,a4,0xa
    4ec4:	272cdbc7          	0x272cdbc7
    4ec8:	ec5c                	0xec5c
    4eca:	276a                	jal	5264 <verify_data+0xd04>
    4ecc:	bfb6                	lui	t6,0xfffed
    4ece:	2799                	srli	a5,a5,0x6
    4ed0:	27ac473b          	0x27ac473b
    4ed4:	e2fd                	bgez	a3,4f12 <verify_data+0x9b2>
    4ed6:	dfd027bb          	0xdfd027bb
    4eda:	27f8                	srai	a5,a5,0x1e
    4edc:	280b98c7          	fmsub.s	fa7,fs7,ft0,ft5,rtz
    4ee0:	d6ad                	lw	a3,232(sp)
    4ee2:	2812                	jal	52e6 <verify_data+0xd86>
    4ee4:	281bbd27          	fsd	ft1,666(s7) # 347e779e <_gp+0x347e0a3e>
    4ee8:	fe11                	bgez	a2,4eac <verify_data+0x94c>
    4eea:	2828                	srai	a6,a6,0xa
    4eec:	49a5                	sw	s1,208(sp)
    4eee:	2835                	srli	a6,a6,0xd
    4ef0:	10f8                	add	ra,ra,t5
    4ef2:	2844                	srai	a6,a6,0x11
    4ef4:	2845d05b          	0x2845d05b
    4ef8:	9189                	addi	a0,a1,-4
    4efa:	285d                	srli	a6,a6,0x17
    4efc:	2870b66f          	jal	a2,10982 <_gp+0x9c22>
    4f00:	a34d                	addi	a1,sp,388
    4f02:	2880                	srai	a7,a7,0x0
    4f04:	9bfd                	andi	a5,a5,-2
    4f06:	288a                	jal	5348 <verify_data+0xde8>
    4f08:	c5f0                	lw	a2,76(a1)
    4f0a:	28a6                	jal	5372 <verify_data+0xe12>
    4f0c:	c1b4                	lw	a3,64(a1)
    4f0e:	f15328bb          	0xf15328bb
    4f12:	28bd                	srli	a7,a7,0xf
    4f14:	5d55                	sw	s5,184(sp)
    4f16:	28d4                	srai	a7,a7,0x15
    4f18:	b431                	addi	a2,sp,552
    4f1a:	25ea28ef          	jal	a7,a7178 <_gp+0xa0418>
    4f1e:	2901                	srli	s2,s2,0x0
    4f20:	290737e7          	0x290737e7
    4f24:	6c64                	sltu	s1,s0,s1
    4f26:	2909                	srli	s2,s2,0x2
    4f28:	292b6803          	0x292b6803
    4f2c:	de5d                	lw	t3,244(sp)
    4f2e:	292c                	srai	s2,s2,0xb
    4f30:	292dc637          	lui	a2,0x292dc
    4f34:	4190                	sw	a2,0(a1)
    4f36:	2931                	srli	s2,s2,0xc
    4f38:	fc5d                	bgez	s0,4f2e <verify_data+0x9ce>
    4f3a:	9857294b          	fnmsub.s	fs2,fa4,ft5,fs3,rdn
    4f3e:	2959                	srli	s2,s2,0x16
    4f40:	28ae                	jal	53aa <verify_data+0xe4a>
    4f42:	297c                	srai	s2,s2,0x1f
    4f44:	297efd5b          	0x297efd5b
    4f48:	f432                	andi	s0,s0,-20
    4f4a:	2982                	jal	540a <verify_data+0xeaa>
    4f4c:	d515                	lw	a0,100(sp)
    4f4e:	2995                	srli	s3,s3,0x5
    4f50:	daa0                	lw	s0,112(a3)
    4f52:	986b2997          	auipc	s3,0x986b2
    4f56:	2998                	srai	s3,s3,0x6
    4f58:	29a4b67b          	0x29a4b67b
    4f5c:	29c439a7          	fsd	ft8,659(s0)
    4f60:	29d70e33          	0x29d70e33
    4f64:	7a22                	bnez	a2,4eec <verify_data+0x98c>
    4f66:	29dd                	srli	s3,s3,0x17
    4f68:	eae5                	bgez	a3,5020 <verify_data+0xac0>
    4f6a:	29e8                	srai	s3,s3,0x1a
    4f6c:	35ba                	jal	4a3a <verify_data+0x4da>
    4f6e:	2a0d                	srli	s4,s4,0x3
    4f70:	2a12718f          	0x2a12718f
    4f74:	2885                	srli	a7,a7,0x1
    4f76:	2a1a                	jal	547c <verify_data+0xf1c>
    4f78:	4eda                	beqz	a3,504e <verify_data+0xaee>
    4f7a:	2a21                	srli	s4,s4,0x8
    4f7c:	2a22a5e3          	0x2a22a5e3
    4f80:	6ac2                	bnez	a3,5010 <verify_data+0xab0>
    4f82:	2a4c                	srai	s4,s4,0x13
    4f84:	2a8f6b6f          	jal	s6,fb22c <_gp+0xf44cc>
    4f88:	bc82                	lui	s9,0xfffe0
    4f8a:	2a95                	srli	s5,s5,0x5
    4f8c:	6351                	bltz	a4,4fa0 <verify_data+0xa40>
    4f8e:	2aac                	srai	s5,s5,0xb
    4f90:	74f2                	bnez	s1,4eec <verify_data+0x98c>
    4f92:	2aca                	jal	54e4 <verify_data+0xf84>
    4f94:	832c                	sub	t1,t1,a1
    4f96:	4d282aef          	jal	s5,87468 <_gp+0x80708>
    4f9a:	2afa                	jal	54f8 <verify_data+0xf98>
    4f9c:	9719                	addi	a4,a4,-3
    4f9e:	2b01                	srli	s6,s6,0x0
    4fa0:	2b0b5427          	0x2b0b5427
    4fa4:	d0ed                	lw	ra,248(sp)
    4fa6:	2b0c                	srai	s6,s6,0x3
    4fa8:	261f 2b0e deec      	0xdeec2b0e261f
    4fae:	2b16                	jal	5552 <verify_data+0xff2>
    4fb0:	0b2a                	j	553a <verify_data+0xfda>
    4fb2:	2b1d                	srli	s6,s6,0x7
    4fb4:	4dbe                	beqz	a1,50a2 <verify_data+0xb42>
    4fb6:	2b26                	jal	555e <verify_data+0xffe>
    4fb8:	0c12                	j	55bc <verify_data+0x105c>
    4fba:	2b48                	srai	s6,s6,0x12
    4fbc:	2488                	srai	s1,s1,0x2
    4fbe:	1c4b2b53          	fdiv.h	fs6,fs6,ft4,rdn
    4fc2:	2b5e                	jal	5578 <verify_data+0x1018>
    4fc4:	e58d                	bgez	a1,5026 <verify_data+0xac6>
    4fc6:	2b7a                	jal	5564 <verify_data+0x1004>
    4fc8:	6fa2                	bnez	a5,5090 <verify_data+0xb30>
    4fca:	4d812b7b          	0x4d812b7b
    4fce:	2b84                	srai	s7,s7,0x1
    4fd0:	70c8                	0x70c8
    4fd2:	5d0d2b87          	flw	fs7,1488(s10)
    4fd6:	2b89                	srli	s7,s7,0x2
    4fd8:	d1e1                	lw	gp,56(sp)
    4fda:	6ca02b8f          	0x6ca02b8f
    4fde:	d24e2b9b          	0xd24e2b9b
    4fe2:	2b9d                	srli	s7,s7,0x7
    4fe4:	5d49                	sw	s2,184(sp)
    4fe6:	35dc2ba7          	fsw	ft9,855(s8)
    4fea:	2ba8                	srai	s7,s7,0xa
    4fec:	6a49                	bltz	a2,507e <verify_data+0xb1e>
    4fee:	2be5                	srli	s7,s7,0x19
    4ff0:	7d20                	0x7d20
    4ff2:	a3052bf3          	csrrs	s7,0xa30,a0
    4ff6:	2bf5                	srli	s7,s7,0x1d
    4ff8:	64c0                	slt	s1,s1,s0
    4ffa:	58672c07          	flw	fs8,1414(a4)
    4ffe:	2c15                	srli	s8,s8,0x5
    5000:	aecc                	or	a1,a3,a1
    5002:	f5572c23          	sw	s5,-168(a4)
    5006:	94b82c2b          	0x94b82c2b
    500a:	2c2d                	srli	s8,s8,0xb
    500c:	2c3cdaab          	0x2c3cdaab
    5010:	0379                	slli	t1,t1,0x1e
    5012:	2c52                	jal	5626 <verify_data+0x10c6>
    5014:	2c54a803          	lw	a6,709(s1) # 65a82c5 <_gp+0x65a1565>
    5018:	983d                	xori	a5,s0,-2
    501a:	2c6a                	jal	5634 <verify_data+0x10d4>
    501c:	aaad                	addi	a1,sp,344
    501e:	5cab2c73          	csrrs	s8,0x5ca,s6
    5022:	9f222c8f          	0x9f222c8f
    5026:	2c9d                	srli	s9,s9,0x7
    5028:	2c45                	srli	s8,s8,0x11
    502a:	b88a2cab          	0xb88a2cab
    502e:	2cbd                	srli	s9,s9,0xf
    5030:	2cc21eab          	0x2cc21eab
    5034:	ddc4                	lw	s1,60(a1)
    5036:	2cd0                	srai	s9,s9,0x14
    5038:	8849                	ori	a0,s0,2
    503a:	2cd8                	srai	s9,s9,0x16
    503c:	2ce66627          	0x2ce66627
    5040:	6b72                	bnez	a4,50dc <verify_data+0xb7c>
    5042:	2cf4                	srai	s9,s9,0x1d
    5044:	e584                	0xe584
    5046:	2cf4                	srai	s9,s9,0x1d
    5048:	ceea                	addi	t4,t4,26
    504a:	2cfe                	jal	56c8 <verify_data+0x1168>
    504c:	d921                	lw	s2,40(sp)
    504e:	2d08                	srai	s10,s10,0x2
    5050:	9006                	0x9006
    5052:	2d0c                	srai	s10,s10,0x3
    5054:	2d2aea73          	csrrs	s4,0x2d2,21
    5058:	8c8c                	sub	s9,s9,gp
    505a:	2d2d                	srli	s10,s10,0xb
    505c:	d426                	addi	s0,s0,-23
    505e:	2d30                	srai	s10,s10,0xc
    5060:	eda1                	bgez	a1,5128 <verify_data+0xbc8>
    5062:	2d68                	srai	s10,s10,0x1a
    5064:	2d73d15b          	0x2d73d15b
    5068:	7cb6                	bnez	s1,5054 <verify_data+0xaf4>
    506a:	fe492d97          	auipc	s11,0xfe492
    506e:	ddde2d97          	auipc	s11,0xddde2
    5072:	2d9e                	jal	5758 <verify_data+0x11f8>
    5074:	ac55                	addi	a3,sp,532
    5076:	0f762da3          	sw	s7,251(a2) # 292dc0fb <_gp+0x292d539b>
    507a:	ec892dbb          	0xec892dbb
    507e:	2dc4                	srai	s11,s11,0x11
    5080:	95c4                	0x95c4
    5082:	2dc9                	srli	s11,s11,0x12
    5084:	17e0                	add	a5,a5,s8
    5086:	2dd6                	jal	577a <verify_data+0x121a>
    5088:	2deb91bf 2df3dfcb 	0x2df3dfcb2deb91bf
    5090:	2e04b247          	0x2e04b247
    5094:	9db6                	li	s11,-19
    5096:	77ef2e07          	flw	ft8,1918(t5)
    509a:	0dbb2e0b          	0xdbb2e0b
    509e:	2e16                	jal	57c2 <verify_data+0x1262>
    50a0:	b07f                	0xb07f
    50a2:	2e56                	jal	57d6 <verify_data+0x1276>
    50a4:	0f7c                	mv	t5,t6
    50a6:	2e6a                	jal	57c0 <verify_data+0x1260>
    50a8:	2e6c133b          	0x2e6c133b
    50ac:	078a                	j	546e <verify_data+0xf0e>
    50ae:	2e70                	srai	t3,t3,0x1c
    50b0:	26e2                	jal	5408 <verify_data+0xea8>
    50b2:	2eb2                	jal	57fe <verify_data+0x129e>
    50b4:	3bb4                	srai	s7,s7,0x2d
    50b6:	2ed0                	srai	t4,t4,0x14
    50b8:	4040                	sw	s0,4(s0)
    50ba:	2ed9                	srli	t4,t4,0x16
    50bc:	f2c1                	bgez	a3,4fcc <verify_data+0xa6c>
    50be:	2edd                	srli	t4,t4,0x17
    50c0:	0df8                	mv	s11,t5
    50c2:	2ee2                	jal	581a <verify_data+0x12ba>
    50c4:	2eea494b          	0x2eea494b
    50c8:	def5                	lw	t4,124(sp)
    50ca:	2ef0                	srai	t4,t4,0x1c
    50cc:	8746                	li	a4,17
    50ce:	2ef5                	srli	t4,t4,0x1d
    50d0:	9bd8                	0x9bd8
    50d2:	2ef6                	jal	584e <verify_data+0x12ee>
    50d4:	5b1f 2f1a 9f26      	0x9f262f1a5b1f
    50da:	2f24                	srai	t5,t5,0x9
    50dc:	9259                	ori	a4,a2,-4
    50de:	2f28                	srai	t5,t5,0xa
    50e0:	91a6                	li	gp,-23
    50e2:	ef642f2b          	0xef642f2b
    50e6:	b4642f4b          	fnmsub.h	ft10,fs0,ft6,fs6,rdn
    50ea:	2f70                	srai	t5,t5,0x1c
    50ec:	2c50                	srai	s8,s8,0x14
    50ee:	2f82                	jal	58ae <verify_data+0x134e>
    50f0:	5026                	beqz	s0,5018 <verify_data+0xab8>
    50f2:	d1cb2f97          	auipc	t6,0xd1cb2
    50f6:	b6d42fa7          	fsw	fa3,-1153(s0)
    50fa:	2faa                	jal	58c4 <verify_data+0x1364>
    50fc:	2fb80fd7          	0x2fb80fd7
    5100:	21dc                	srai	gp,gp,0x17
    5102:	2fb9                	srli	t6,t6,0xe
    5104:	2fbefe13          	andi	t3,t4,763
    5108:	2fc79aeb          	0x2fc79aeb
    510c:	2fcade4f          	0x2fcade4f
    5110:	b366                	lui	t1,0xffff9
    5112:	2fd8                	srai	t6,t6,0x16
    5114:	2ff1affb          	0x2ff1affb
    5118:	30107333          	0x30107333
    511c:	301453e7          	0x301453e7
    5120:	3014dbb7          	lui	s7,0x3014d
    5124:	94ee                	li	s1,-5
    5126:	3041                	0x3041
    5128:	86c8                	sub	a3,a3,s2
    512a:	304d                	0x304d
    512c:	81e5                	andi	s1,a1,0
    512e:	93fd304f          	fnmadd.d	ft0,fs10,ft11,fs2,rup
    5132:	89643067          	0x89643067
    5136:	306a                	jal	4950 <verify_data+0x3f0>
    5138:	2809                	srli	a6,a6,0x2
    513a:	3401306b          	0x3401306b
    513e:	307d                	0x307d
    5140:	46b2                	beqz	a3,518c <verify_data+0xc2c>
    5142:	3089                	srli	ra,ra,0x22
    5144:	9914                	0x9914
    5146:	3095                	srli	ra,ra,0x25
    5148:	cd5f 30b8 735e      	0x735e30b8cd5f
    514e:	30ee                	jal	49c8 <verify_data+0x468>
    5150:	d0d4                	lw	a3,36(s1)
    5152:	30f6                	jal	49ce <verify_data+0x46e>
    5154:	6af4                	0x6af4
    5156:	3108                	srai	sp,sp,0x22
    5158:	1d65                	slli	s10,s10,0x39
    515a:	3116                	jal	49fe <verify_data+0x49e>
    515c:	31529973          	csrrw	s2,0x315,t0
    5160:	3170694b          	fnmsub.s	fs2,ft0,fs7,ft6,unknown
    5164:	31766a3f 3181e05e 	0x3181e05e31766a3f
    516c:	318c2ea3          	sw	s8,797(s8)
    5170:	318c39e7          	0x318c39e7
    5174:	8c7a                	li	s8,30
    5176:	3198                	srai	gp,gp,0x26
    5178:	dfc5                	lw	t6,112(sp)
    517a:	31a6                	jal	4a62 <verify_data+0x502>
    517c:	31bc1683          	lh	a3,795(s8)
    5180:	0fec                	mv	t6,s11
    5182:	31c6                	jal	4a72 <verify_data+0x512>
    5184:	d196                	addi	gp,gp,-27
    5186:	31cc                	srai	gp,gp,0x33
    5188:	0a74                	mv	s4,t4
    518a:	31d9                	srli	gp,gp,0x36
    518c:	58ee                	beqz	s1,5146 <verify_data+0xbe6>
    518e:	fa4731e3          	0xfa4731e3
    5192:	100a31e3          	0x100a31e3
    5196:	31ec                	srai	gp,gp,0x3b
    5198:	de75                	lw	t3,124(sp)
    519a:	3209                	srli	tp,tp,0x22
    519c:	3213004b          	fnmsub.d	ft0,ft6,ft1,ft6,rne
    51a0:	6e71                	bltz	a2,527c <verify_data+0xd1c>
    51a2:	324a                	jal	4ab4 <verify_data+0x554>
    51a4:	324f49f7          	0x324f49f7
    51a8:	5676                	beqz	a2,5124 <verify_data+0xbc4>
    51aa:	3268                	srai	tp,tp,0x3a
    51ac:	e084                	0xe084
    51ae:	326e                	jal	4ae8 <verify_data+0x588>
    51b0:	dd86                	addi	s11,s11,-31
    51b2:	3276                	jal	4aee <verify_data+0x58e>
    51b4:	19a6                	j	4e9c <verify_data+0x93c>
    51b6:	3280                	srai	t0,t0,0x20
    51b8:	9e1e                	li	t3,-25
    51ba:	328d                	srli	t0,t0,0x23
    51bc:	32919983          	lh	s3,809(gp) # e9c70329 <_gp+0xe9c695c9>
    51c0:	2dde                	jal	58b6 <verify_data+0x1356>
    51c2:	32a2                	jal	4b0a <verify_data+0x5aa>
    51c4:	24ff                	0x24ff
    51c6:	32be                	jal	4b34 <verify_data+0x5d4>
    51c8:	29b6                	jal	56b4 <verify_data+0x1154>
    51ca:	32c4                	srai	t0,t0,0x31
    51cc:	a565                	addi	s1,sp,652
    51ce:	32cd                	srli	t0,t0,0x33
    51d0:	6a74                	0x6a74
    51d2:	32ce                	jal	4b44 <verify_data+0x5e4>
    51d4:	3d32                	jal	5060 <verify_data+0xb00>
    51d6:	32d5                	srli	t0,t0,0x35
    51d8:	127e                	j	4b16 <verify_data+0x5b6>
    51da:	32e0                	srai	t0,t0,0x38
    51dc:	32ee431b          	0x32ee431b
    51e0:	e815                	bgez	s0,5284 <verify_data+0xd24>
    51e2:	ffd432f7          	0xffd432f7
    51e6:	330e                	jal	4b88 <verify_data+0x628>
    51e8:	4b8a                	beqz	a5,526a <verify_data+0xd0a>
    51ea:	3312                	jal	4b6e <verify_data+0x60e>
    51ec:	33226d3b          	0x33226d3b
    51f0:	bb69                	addi	a0,sp,444
    51f2:	3324                	srai	t1,t1,0x29
    51f4:	57fc                	sw	a5,108(a5)
    51f6:	3326                	jal	4b9e <verify_data+0x63e>
    51f8:	3085                	srli	ra,ra,0x21
    51fa:	3339                	srli	t1,t1,0x2e
    51fc:	a3bc                	sub	s0,a5,a5
    51fe:	333c                	srai	t1,t1,0x2f
    5200:	3348100b          	0x3348100b
    5204:	bf5f 3378 37b1      	0x37b13378bf5f
    520a:	337a                	jal	4ba8 <verify_data+0x648>
    520c:	9944                	0x9944
    520e:	339f 69aa 33a5      	0x33a569aa339f
    5214:	26c9                	srli	a3,a3,0x12
    5216:	d57033ab          	0xd57033ab
    521a:	33ac                	srai	t2,t2,0x2b
    521c:	f61d                	bgez	a2,5182 <verify_data+0xc22>
    521e:	33b6                	jal	4c0a <verify_data+0x6aa>
    5220:	e796                	andi	a5,a5,5
    5222:	33d8                	srai	t2,t2,0x36
    5224:	33f842cb          	fnmsub.d	ft5,fa6,ft11,ft6,rmm
    5228:	34127047          	fmsub.h	ft0,ft4,ft1,ft6
    522c:	3417d43b          	0x3417d43b
    5230:	86a9                	xori	a0,a3,1
    5232:	341a                	jal	4c38 <verify_data+0x6d8>
    5234:	342ec987          	0x342ec987
    5238:	b01d                	addi	a5,sp,32
    523a:	3438                	srai	s0,s0,0x2e
    523c:	c77a                	addi	a4,a4,30
    523e:	345f 935e 3460      	0x3460935e345f
    5244:	b74e                	lui	a4,0xffff3
    5246:	3462                	jal	4c5e <verify_data+0x6fe>
    5248:	47ff                	0x47ff
    524a:	346a                	jal	4c64 <verify_data+0x704>
    524c:	e798                	0xe798
    524e:	346c                	srai	s0,s0,0x3b
    5250:	e0a8                	0xe0a8
    5252:	3471                	srli	s0,s0,0x3c
    5254:	b34e                	lui	t1,0xffff3
    5256:	347a                	jal	4c74 <verify_data+0x714>
    5258:	347e3b97          	auipc	s7,0x347e3
    525c:	3491fb3f 34968f93 	0x34968f933491fb3f
    5264:	3499a707          	flw	fa4,841(s3) # 986b729b <_gp+0x986b053b>
    5268:	5b28                	sw	a0,112(a4)
    526a:	34cd                	srli	s1,s1,0x33
    526c:	3644                	srai	a2,a2,0x31
    526e:	34de                	jal	4ce4 <verify_data+0x784>
    5270:	6341                	bltz	a4,5280 <verify_data+0xd20>
    5272:	5cce34eb          	0x5cce34eb
    5276:	6b953513          	sltiu	a0,a0,1721
    527a:	3526                	jal	4d22 <verify_data+0x7c2>
    527c:	99c5                	ori	s1,a1,-2
    527e:	2e883533          	0x2e883533
    5282:	3539                	srli	a0,a0,0x2e
    5284:	b79f 353e 36c6      	0x36c6353eb79f
    528a:	b68b3543          	0xb68b3543
    528e:	3548                	srai	a0,a0,0x32
    5290:	1a2c                	add	s4,s4,a1
    5292:	3555                	srli	a0,a0,0x35
    5294:	a8ed                	addi	a1,sp,92
    5296:	d7583557          	0xd7583557
    529a:	3559                	srli	a0,a0,0x36
    529c:	3150                	srai	sp,sp,0x34
    529e:	3561                	srli	a0,a0,0x38
    52a0:	05a2                	j	5568 <verify_data+0x1008>
    52a2:	3594                	srai	a1,a1,0x25
    52a4:	35ae                	jal	4d8e <verify_data+0x82e>
    52a6:	35c0                	srai	a1,a1,0x30
    52a8:	5411                	sw	tp,40(sp)
    52aa:	35e6                	jal	4da2 <verify_data+0x842>
    52ac:	360e2f13          	slti	t5,t3,864
    52b0:	3615d7bf 36182d7f 	0x36182d7f3615d7bf
    52b8:	69d9                	bltz	a1,534e <verify_data+0xdee>
    52ba:	3632                	jal	4dc6 <verify_data+0x866>
    52bc:	93c9                	ori	a0,a5,-4
    52be:	3634                	srai	a2,a2,0x2d
    52c0:	d420                	lw	s0,104(s0)
    52c2:	d5de3647          	fmsub.h	fa2,ft8,ft9,fs10,rup
    52c6:	3661                	srli	a2,a2,0x38
    52c8:	5b94                	sw	a3,48(a5)
    52ca:	3688                	srai	a3,a3,0x22
    52cc:	42ad                	sw	a1,68(sp)
    52ce:	3698                	srai	a3,a3,0x26
    52d0:	2b51                	srli	s6,s6,0x14
    52d2:	369a                	jal	4e18 <verify_data+0x8b8>
    52d4:	10ae                	j	4b3e <verify_data+0x5de>
    52d6:	36b0                	srai	a3,a3,0x2c
    52d8:	36bd5793          	0x36bd5793
    52dc:	36d21197          	auipc	gp,0x36d21
    52e0:	181a                	j	4ee6 <verify_data+0x986>
    52e2:	36ee                	jal	4e5c <verify_data+0x8fc>
    52e4:	712a                	bnez	a0,51ee <verify_data+0xc8e>
    52e6:	2af736f7          	0x2af736f7
    52ea:	953f370b          	0x953f370b
    52ee:	6219370f          	0x6219370f
    52f2:	99ac371b          	0x99ac371b
    52f6:	42b9372b          	0x42b9372b
    52fa:	3731                	srli	a4,a4,0x2c
    52fc:	b46e                	lui	s0,0xffffb
    52fe:	3734                	srai	a4,a4,0x2d
    5300:	f7b8                	0xf7b8
    5302:	98ff373f e5553741 	0xe555374198ff373f
    530a:	3748                	srai	a4,a4,0x32
    530c:	3752e6c7          	0x3752e6c7
    5310:	375ced43          	0x375ced43
    5314:	c88e                	addi	a7,a7,3
    5316:	3764                	srai	a4,a4,0x39
    5318:	3774479b          	0x3774479b
    531c:	a8b1                	addi	a2,sp,88
    531e:	a7273793          	sltiu	a5,a4,-1422
    5322:	37a5                	srli	a5,a5,0x29
    5324:	37a6bc03          	0x37a6bc03
    5328:	74e5                	bltz	s1,52a0 <verify_data+0xd40>
    532a:	37ac                	srai	a5,a5,0x2b
    532c:	66c0                	slt	a3,a3,s0
    532e:	37b6                	jal	4f1a <verify_data+0x9ba>
    5330:	7574                	0x7574
    5332:	37c2                	jal	4f02 <verify_data+0x9a2>
    5334:	37c3b8f7          	0x37c3b8f7
    5338:	7da5                	bltz	a1,5320 <verify_data+0xdc0>
    533a:	37c5                	srli	a5,a5,0x31
    533c:	37c94eb3          	0x37c94eb3
    5340:	b958                	or	a4,a0,a4
    5342:	37da                	jal	4f18 <verify_data+0x9b8>
    5344:	626c                	0x626c
    5346:	37e8                	srai	a5,a5,0x3a
    5348:	8c39                	xori	a4,s0,3
    534a:	37e8                	srai	a5,a5,0x3a
    534c:	9834                	0x9834
    534e:	37ff                	0x37ff
    5350:	b6ea                	lui	a3,0xffffa
    5352:	381d                	srli	a6,a6,0x27
    5354:	b3cd                	addi	a1,sp,484
    5356:	3834                	srai	a6,a6,0x2d
    5358:	578e                	beqz	a5,52ba <verify_data+0xd5a>
    535a:	3842                	jal	4f6a <verify_data+0xa0a>
    535c:	20f1                	srli	ra,ra,0x1c
    535e:	384a                	jal	4f70 <verify_data+0xa10>
    5360:	092d                	slli	s2,s2,0xb
    5362:	3862                	jal	4f7a <verify_data+0xa1a>
    5364:	38679167          	0x38679167
    5368:	4d02                	beqz	a0,5428 <verify_data+0xec8>
    536a:	3869                	srli	a6,a6,0x3a
    536c:	386a4a27          	0x386a4a27
    5370:	cfc9                	lw	t6,144(sp)
    5372:	c145388b          	0xc145388b
    5376:	3890                	srai	a7,a7,0x24
    5378:	3893fc2f          	0x3893fc2f
    537c:	ffda                	andi	t6,t6,-10
    537e:	389f 05d1 38b3      	0x38b305d1389f
    5384:	38b93c73          	csrrc	s8,0x38b,s2
    5388:	f23d                	bgez	a2,52b6 <verify_data+0xd56>
    538a:	38ca                	jal	4fdc <verify_data+0xa7c>
    538c:	7b46                	bnez	a4,533c <verify_data+0xddc>
    538e:	023138d3          	fadd.d	fa7,ft2,ft3,rup
    5392:	a07c38db          	vlsegstb	vx17,s8,t2,6
    5396:	db9c38e3          	0xdb9c38e3
    539a:	38ea                	jal	4ff4 <verify_data+0xa94>
    539c:	4292                	beqz	a3,53a0 <verify_data+0xe40>
    539e:	3b0338eb          	0x3b0338eb
    53a2:	bd26390b          	0xbd26390b
    53a6:	3925                	srli	s2,s2,0x29
    53a8:	9561                	andi	s0,a0,-3
    53aa:	392e                	jal	5054 <verify_data+0xaf4>
    53ac:	6cd4                	slt	a3,s1,a3
    53ae:	c9d63947          	fmsub.s	fs2,fa2,ft9,fs9,rup
    53b2:	397a                	jal	5050 <verify_data+0xaf0>
    53b4:	35c4                	srai	a1,a1,0x31
    53b6:	398c                	srai	s3,s3,0x23
    53b8:	398d5073          	csrwi	0x398,26
    53bc:	399987cf          	fnmadd.s	fa5,fs3,fs9,ft7,rne
    53c0:	737c                	0x737c
    53c2:	eec339bf 6d6839c2 	0x6d6839c2eec339bf
    53ca:	39c6                	jal	50ba <verify_data+0xb5a>
    53cc:	3b7f                	0x3b7f
    53ce:	674339c7          	0x674339c7
    53d2:	39c9                	srli	s3,s3,0x32
    53d4:	fdf6                	andi	s11,s11,-3
    53d6:	708e39d3          	0x708e39d3
    53da:	39f0                	srai	s3,s3,0x3c
    53dc:	6835                	bltz	s0,5488 <verify_data+0xf28>
    53de:	3a04                	srai	s4,s4,0x21
    53e0:	493e                	beqz	a0,548e <verify_data+0xf2e>
    53e2:	3a06                	jal	5102 <verify_data+0xba2>
    53e4:	56e2                	beqz	a3,533c <verify_data+0xddc>
    53e6:	3a06                	jal	5106 <verify_data+0xba6>
    53e8:	3a0a8c2b          	0x3a0a8c2b
    53ec:	cef4                	lw	a3,92(a3)
    53ee:	3a2c                	srai	s4,s4,0x2b
    53f0:	8a86                	li	s5,1
    53f2:	3a2d                	srli	s4,s4,0x2b
    53f4:	c658                	lw	a4,12(a2)
    53f6:	3a42                	jal	5106 <verify_data+0xba6>
    53f8:	3a49aebb          	0x3a49aebb
    53fc:	de5c                	lw	a5,60(a2)
    53fe:	3a4e                	jal	5130 <verify_data+0xbd0>
    5400:	56ec                	sw	a1,108(a3)
    5402:	3a74                	srai	s4,s4,0x3d
    5404:	c985                	lw	s3,64(sp)
    5406:	3a76                	jal	5142 <verify_data+0xbe2>
    5408:	3a980e8b          	0x3a980e8b
    540c:	3aba90eb          	0x3aba90eb
    5410:	3ac8d43b          	0x3ac8d43b
    5414:	0afe                	j	5992 <verify_data+0x1432>
    5416:	3ae0                	srai	s5,s5,0x38
    5418:	4361                	sw	s8,132(sp)
    541a:	3aea                	jal	5174 <verify_data+0xc14>
    541c:	3b13e5b7          	lui	a1,0x3b13e
    5420:	cef1                	lw	t4,28(sp)
    5422:	3b1e                	jal	51c8 <verify_data+0xc68>
    5424:	fafd                	bgez	a3,53e2 <verify_data+0xe82>
    5426:	3b26                	jal	51ce <verify_data+0xc6e>
    5428:	fdc5                	bgez	a1,5418 <verify_data+0xeb8>
    542a:	fc5c3b37          	lui	s6,0xfc5c3
    542e:	af763b3b          	0xaf763b3b
    5432:	ed023b43          	fmadd.h	fs6,ft4,fa6,ft9,rup
    5436:	3b76                	jal	51f2 <verify_data+0xc92>
    5438:	7cce                	bnez	s1,542a <verify_data+0xeca>
    543a:	3b8a                	jal	51fc <verify_data+0xc9c>
    543c:	07e4                	mv	a5,s9
    543e:	d0de3b8f          	0xd0de3b8f
    5442:	3b90                	srai	s7,s7,0x24
    5444:	3b99408f          	0x3b99408f
    5448:	3eb0                	srai	t4,t4,0x2c
    544a:	3c06                	jal	526a <verify_data+0xd0a>
    544c:	e4c1                	bgez	s1,549c <verify_data+0xf3c>
    544e:	3c39                	srli	s8,s8,0x2e
    5450:	02ec                	mv	t0,s11
    5452:	3c49                	srli	s8,s8,0x32
    5454:	de19                	lw	t3,164(sp)
    5456:	3c49                	srli	s8,s8,0x32
    5458:	bdbd                	addi	a5,sp,760
    545a:	3a763c4b          	fnmsub.d	fs8,fa2,ft7,ft7,rup
    545e:	e86b3c5b          	vlsegstbu	vx24,s6,t1,8
    5462:	3c6e                	jal	529c <verify_data+0xd3c>
    5464:	1752                	j	4ff8 <verify_data+0xa98>
    5466:	3c96                	jal	52ca <verify_data+0xd6a>
    5468:	3c985217          	auipc	tp,0x3c985
    546c:	8b6a                	li	s6,26
    546e:	3ccc                	srai	s9,s9,0x33
    5470:	71b9                	bltz	a1,537e <verify_data+0xe1e>
    5472:	a1413cdb          	vlsegstb	vx25,sp,s4,6
    5476:	0d013cf7          	0xd013cf7
    547a:	3d1a                	jal	5300 <verify_data+0xda0>
    547c:	bfe5                	addi	s1,sp,1020
    547e:	3d2c                	srai	s10,s10,0x2b
    5480:	54be                	beqz	s1,53ee <verify_data+0xe8e>
    5482:	3d2d                	srli	s10,s10,0x2b
    5484:	5ae1                	sw	s8,116(sp)
    5486:	3d42                	jal	5316 <verify_data+0xdb6>
    5488:	3d4262f7          	0x3d4262f7
    548c:	1d74                	add	s10,s10,t4
    548e:	3d4e                	jal	5340 <verify_data+0xde0>
    5490:	8d0c                	sub	s10,s10,gp
    5492:	3d52                	jal	5326 <verify_data+0xdc6>
    5494:	56d6                	beqz	a3,5408 <verify_data+0xea8>
    5496:	3d54                	srai	s10,s10,0x35
    5498:	fb3a                	andi	s6,s6,-18
    549a:	742a3d57          	0x742a3d57
    549e:	3d5a                	jal	5334 <verify_data+0xdd4>
    54a0:	00fc                	mv	ra,t6
    54a2:	3d62                	jal	533a <verify_data+0xdda>
    54a4:	592a                	beqz	a0,542e <verify_data+0xece>
    54a6:	3d7d                	srli	s10,s10,0x3f
    54a8:	7fc4                	0x7fc4
    54aa:	3d8e                	jal	538c <verify_data+0xe2c>
    54ac:	3d9105a3          	sb	s9,971(sp)
    54b0:	38e6                	jal	5128 <verify_data+0xbc8>
    54b2:	3da0                	srai	s11,s11,0x28
    54b4:	ffa0                	0xffa0
    54b6:	3db1                	srli	s11,s11,0x2c
    54b8:	3dbf7153          	0x3dbf7153
    54bc:	50ad                	sw	a1,96(sp)
    54be:	e9283dd7          	0xe9283dd7
    54c2:	3dde                	jal	53b8 <verify_data+0xe58>
    54c4:	4c2e                	beqz	s0,55ae <verify_data+0x104e>
    54c6:	b7773deb          	0xb7773deb
    54ca:	0a4d3e27          	fsd	ft4,188(s10)
    54ce:	3e2a                	jal	53d8 <verify_data+0xe78>
    54d0:	f67f                	0xf67f
    54d2:	3e38                	srai	t3,t3,0x2e
    54d4:	3e3b8743          	0x3e3b8743
    54d8:	3e5303f7          	0x3e5303f7
    54dc:	79d1                	bltz	a1,5470 <verify_data+0xf10>
    54de:	17143e53          	0x17143e53
    54e2:	3e6d                	srli	t3,t3,0x3b
    54e4:	99ec                	0x99ec
    54e6:	3e85                	srli	t4,t4,0x21
    54e8:	b8b0                	sub	a4,s1,a2
    54ea:	3e8d                	srli	t4,t4,0x23
    54ec:	6ce8                	sltu	a0,s1,a0
    54ee:	8b753e9b          	0x8b753e9b
    54f2:	3e9d                	srli	t4,t4,0x27
    54f4:	ccad                	lw	s9,200(sp)
    54f6:	c5723ea7          	fsd	fs7,-931(tp) # 3c98a0c5 <_gp+0x3c983365>
    54fa:	99263ed3          	0x99263ed3
    54fe:	3f00                	srai	t5,t5,0x20
    5500:	227f                	0x227f
    5502:	3f1a                	jal	5488 <verify_data+0xf28>
    5504:	1b75                	slli	s6,s6,0x3d
    5506:	3f1e                	jal	54ac <verify_data+0xf4c>
    5508:	c5ee                	addi	a1,a1,27
    550a:	3f4a                	jal	549c <verify_data+0xf3c>
    550c:	204c                	0x204c
    550e:	3f66                	jal	54c6 <verify_data+0xf66>
    5510:	7168                	0x7168
    5512:	d17c3f67          	0xd17c3f67
    5516:	e53c3f67          	0xe53c3f67
    551a:	3f68                	srai	t5,t5,0x3a
    551c:	b11e                	lui	sp,0xfffe7
    551e:	3f7c                	srai	t5,t5,0x3f
    5520:	f425                	bgez	s0,5488 <verify_data+0xf28>
    5522:	3f81                	srli	t6,t6,0x20
    5524:	156e                	j	4fde <verify_data+0xa7e>
    5526:	3f8a                	jal	54e8 <verify_data+0xf88>
    5528:	3f95e34b          	0x3f95e34b
    552c:	f67d                	bgez	a2,54aa <verify_data+0xf4a>
    552e:	3fa4                	srai	t6,t6,0x29
    5530:	5aa8                	sw	a0,112(a3)
    5532:	3fb1                	srli	t6,t6,0x2c
    5534:	91b1                	xori	a2,a1,-4
    5536:	3fb4                	srai	t6,t6,0x2d
    5538:	83ba                	li	t2,14
    553a:	3fbe                	jal	5528 <verify_data+0xfc8>
    553c:	4afd                	sw	t6,84(sp)
    553e:	3fff                	0x3fff
    5540:	fa46                	andi	s4,s4,-15
    5542:	4001                	sw	zero,0(sp)
    5544:	1229                	slli	tp,tp,0x2a
    5546:	d5c84007          	0xd5c84007
    554a:	401e                	beqz	s0,5570 <verify_data+0x1010>
    554c:	7e40                	0x7e40
    554e:	4025                	sw	s1,0(sp)
    5550:	4043fd5b          	0x4043fd5b
    5554:	405d5a9b          	0x405d5a9b
    5558:	a050                	or	s0,s0,a2
    555a:	4085                	sw	ra,64(sp)
    555c:	345c                	srai	s0,s0,0x37
    555e:	7651408b          	0x7651408b
    5562:	c4ff408b          	0xc4ff408b
    5566:	40b0                	sw	a2,64(s1)
    5568:	4885                	sw	ra,80(sp)
    556a:	40cd                	sw	s3,64(sp)
    556c:	0d2d                	slli	s10,s10,0xb
    556e:	40ce                	beqz	s1,55a0 <verify_data+0x1040>
    5570:	24f2                	jal	57cc <verify_data+0x126c>
    5572:	40ce                	beqz	s1,55a4 <verify_data+0x1044>
    5574:	cc41                	lw	s8,16(sp)
    5576:	40d2                	beqz	s1,558a <verify_data+0x102a>
    5578:	a17a                	lui	sp,0x1e
    557a:	40d5                	sw	s5,64(sp)
    557c:	0dea                	j	5c56 <verify_data+0x16f6>
    557e:	a95e40ef          	jal	fffea012 <_gp+0xfffe32b2>
    5582:	ad3840f3          	0xad3840f3
    5586:	40f9                	sw	t5,64(sp)
    5588:	f865                	bgez	s0,5540 <verify_data+0xfe0>
    558a:	40fd                	sw	t6,64(sp)
    558c:	40fed847          	fmsub.s	fa6,ft9,fa5,fs0,unknown
    5590:	411c6f63          	bltu	s8,a7,59ae <verify_data+0x144e>
    5594:	41240a87          	0x41240a87
    5598:	6f6a                	bnez	a4,5672 <verify_data+0x1112>
    559a:	4139                	sw	a4,128(sp)
    559c:	3ab2                	jal	52e8 <verify_data+0xd88>
    559e:	413d                	sw	a5,128(sp)
    55a0:	88ae                	li	a7,11
    55a2:	414a                	beqz	a0,55b4 <verify_data+0x1054>
    55a4:	58f0                	sw	a2,116(s1)
    55a6:	418e                	beqz	a1,55c8 <verify_data+0x1068>
    55a8:	4ba0                	sw	s0,80(a5)
    55aa:	4191                	sw	tp,192(sp)
    55ac:	07d4                	mv	a5,s5
    55ae:	4192                	beqz	a1,55b2 <verify_data+0x1052>
    55b0:	41aaf2ef          	jal	t0,b49ca <_gp+0xadc6a>
    55b4:	2be4                	srai	s7,s7,0x19
    55b6:	41ae                	beqz	a1,55e0 <verify_data+0x1080>
    55b8:	a764                	and	s1,a4,s1
    55ba:	41b5                	sw	a3,192(sp)
    55bc:	65ff                	0x65ff
    55be:	41b8                	sw	a4,64(a1)
    55c0:	a514                	add	s1,a0,a3
    55c2:	41be                	beqz	a1,55f0 <verify_data+0x1090>
    55c4:	94ba                	li	s1,-18
    55c6:	41f6                	beqz	a1,5602 <verify_data+0x10a2>
    55c8:	422f2997          	auipc	s3,0x422f2
    55cc:	c726                	addi	a4,a4,9
    55ce:	a0e2423b          	0xa0e2423b
    55d2:	4248                	sw	a0,4(a2)
    55d4:	f095                	bgez	s1,54f8 <verify_data+0xf98>
    55d6:	4252                	beqz	a2,55ea <verify_data+0x108a>
    55d8:	9e80                	0x9e80
    55da:	4261                	sw	s8,4(sp)
    55dc:	8d86                	li	s11,1
    55de:	42d0                	sw	a2,4(a3)
    55e0:	42d7b4a3          	0x42d7b4a3
    55e4:	42dd5013          	srai	zero,s10,0x2d
    55e8:	42dfc0af          	0x42dfc0af
    55ec:	1664                	add	a2,a2,s9
    55ee:	42ec                	sw	a1,68(a3)
    55f0:	aca1                	addi	s0,sp,600
    55f2:	42f4                	sw	a3,68(a3)
    55f4:	1936                	j	52a0 <verify_data+0xd40>
    55f6:	42f8                	sw	a4,68(a3)
    55f8:	430fbce7          	0x430fbce7
    55fc:	b1f5                	addi	a3,sp,236
    55fe:	431a                	beqz	a4,5604 <verify_data+0x10a4>
    5600:	aba4                	sub	a0,a5,s1
    5602:	431d                	sw	t2,132(sp)
    5604:	4d99                	sw	t1,216(sp)
    5606:	8fd1432f          	0x8fd1432f
    560a:	433a                	beqz	a4,5618 <verify_data+0x10b8>
    560c:	9488                	0x9488
    560e:	4349                	sw	s2,132(sp)
    5610:	6781                	bltz	a5,5650 <verify_data+0x10f0>
    5612:	c7ab4367          	0xc7ab4367
    5616:	0f3a4373          	0xf3a4373
    561a:	4382                	beqz	a5,561a <verify_data+0x10ba>
    561c:	7015                	bltz	s0,5540 <verify_data+0xfe0>
    561e:	19f2438f          	0x19f2438f
    5622:	4396                	beqz	a5,5646 <verify_data+0x10e6>
    5624:	4adc                	sw	a5,20(a3)
    5626:	439a                	beqz	a5,562c <verify_data+0x10cc>
    5628:	d65f 43b2 0354      	0x35443b2d65f
    562e:	43ba                	beqz	a5,563c <verify_data+0x10dc>
    5630:	6d74                	sltu	a3,a0,a3
    5632:	0be443bb          	0xbe443bb
    5636:	43cd                	sw	s3,196(sp)
    5638:	43e409b7          	lui	s3,0x43e40
    563c:	3234                	srai	tp,tp,0x2d
    563e:	43e6                	beqz	a5,5676 <verify_data+0x1116>
    5640:	247f                	0x247f
    5642:	22f943f3          	0x22f943f3
    5646:	43fe                	beqz	a5,5684 <verify_data+0x1124>
    5648:	5c12                	beqz	s0,560c <verify_data+0x10ac>
    564a:	99ca4423          	0x99ca4423
    564e:	4428                	sw	a0,72(s0)
    5650:	d032                	addi	sp,sp,-224
    5652:	442d                	sw	a1,8(sp)
    5654:	5118                	sw	a4,32(a0)
    5656:	4430                	sw	a2,72(s0)
    5658:	463a                	beqz	a2,56a6 <verify_data+0x1146>
    565a:	443a                	beqz	s0,56a8 <verify_data+0x1148>
    565c:	44630ba3          	sb	t1,1111(t1)
    5660:	ef61                	bgez	a4,5738 <verify_data+0x11d8>
    5662:	4469                	sw	s10,8(sp)
    5664:	4477c207          	0x4477c207
    5668:	1402                	j	5068 <verify_data+0xb08>
    566a:	447e                	beqz	s0,56e8 <verify_data+0x1188>
    566c:	82a8                	sub	t0,t0,a0
    566e:	3cf24497          	auipc	s1,0x3cf24
    5672:	79ab44af          	0x79ab44af
    5676:	44b0                	sw	a2,72(s1)
    5678:	7ed5                	bltz	a3,566c <verify_data+0x110c>
    567a:	44d5                	sw	s5,72(sp)
    567c:	e886                	andi	a7,a7,1
    567e:	44de                	beqz	s1,56f4 <verify_data+0x1194>
    5680:	44e034f3          	csrrc	s1,0x44e,zero
    5684:	be30                	sub	a5,a2,a2
    5686:	980f44f3          	0x980f44f3
    568a:	4500                	sw	s0,8(a0)
    568c:	3ef5                	srli	t4,t4,0x3d
    568e:	451f 4e25 4520      	0x45204e25451f
    5694:	a5a0                	sub	s1,a1,s0
    5696:	4522                	beqz	a0,56de <verify_data+0x117e>
    5698:	bf66                	lui	t5,0xffff9
    569a:	4524                	sw	s1,72(a0)
    569c:	452708a7          	0x452708a7
    56a0:	45288ea3          	sb	s2,1117(a7)
    56a4:	452947fb          	0x452947fb
    56a8:	6738                	srl	a4,a4,a4
    56aa:	452c                	sw	a1,72(a0)
    56ac:	4f90                	sw	a2,24(a5)
    56ae:	453c                	sw	a5,72(a0)
    56b0:	14c2                	j	5100 <verify_data+0xba0>
    56b2:	454d                	sw	s3,136(sp)
    56b4:	4f41                	sw	a6,156(sp)
    56b6:	39da4577          	0x39da4577
    56ba:	2dac4583          	lbu	a1,730(s8)
    56be:	4592                	beqz	a1,5702 <verify_data+0x11a2>
    56c0:	45a55e33          	0x45a55e33
    56c4:	8575                	andi	a3,a0,1
    56c6:	45b2                	beqz	a1,5712 <verify_data+0x11b2>
    56c8:	91ea                	li	gp,-6
    56ca:	45c4                	sw	s1,12(a1)
    56cc:	601e                	bnez	s0,56f2 <verify_data+0x1192>
    56ce:	45c8                	sw	a0,12(a1)
    56d0:	d378                	lw	a4,100(a4)
    56d2:	45cc                	sw	a1,12(a1)
    56d4:	45da2b4b          	fnmsub.h	fs6,fs4,ft9,fs0,rdn
    56d8:	45dfbae3          	0x45dfbae3
    56dc:	60d8                	0x60d8
    56de:	22c245f7          	0x22c245f7
    56e2:	45f8                	sw	a4,76(a1)
    56e4:	c688                	lw	a0,8(a3)
    56e6:	4602                	beqz	a2,5726 <verify_data+0x11c6>
    56e8:	2449                	srli	s0,s0,0x12
    56ea:	4609                	sw	sp,12(sp)
    56ec:	952d                	xori	a1,a0,-3
    56ee:	4616                	beqz	a2,5752 <verify_data+0x11f2>
    56f0:	2b82                	jal	5cb0 <verify_data+0x1750>
    56f2:	4638                	sw	a4,72(a2)
    56f4:	d58c                	lw	a1,40(a1)
    56f6:	463a                	beqz	a2,5744 <verify_data+0x11e4>
    56f8:	20ae                	jal	5762 <verify_data+0x1202>
    56fa:	464e                	beqz	a2,576c <verify_data+0x120c>
    56fc:	5558                	sw	a4,44(a0)
    56fe:	4656                	beqz	a2,5772 <verify_data+0x1212>
    5700:	465d649b          	0x465d649b
    5704:	8db4                	sub	s11,s11,a3
    5706:	3a7a4667          	0x3a7a4667
    570a:	468a                	beqz	a3,574c <verify_data+0x11ec>
    570c:	fa54                	0xfa54
    570e:	469a                	beqz	a3,5754 <verify_data+0x11f4>
    5710:	42ff                	0x42ff
    5712:	46ae                	beqz	a3,577c <verify_data+0x121c>
    5714:	46d09d13          	0x46d09d13
    5718:	46dadd13          	0x46dadd13
    571c:	db78                	lw	a4,116(a4)
    571e:	46e0                	sw	s0,76(a3)
    5720:	a1b8                	sub	s0,a1,a4
    5722:	8a9e46e3          	blt	t3,s1,4fce <verify_data+0xa6e>
    5726:	6c8346fb          	0x6c8346fb
    572a:	46fe                	beqz	a3,57a8 <verify_data+0x1248>
    572c:	0e38                	mv	t3,a4
    572e:	4705                	sw	ra,140(sp)
    5730:	dae5                	lw	s5,120(sp)
    5732:	470e                	beqz	a4,5794 <verify_data+0x1234>
    5734:	9f7d                	andi	a5,a4,-1
    5736:	d0aa472b          	0xd0aa472b
    573a:	4735                	sw	a3,140(sp)
    573c:	47c5                	sw	a7,204(sp)
    573e:	ead3476b          	0xead3476b
    5742:	1b49476b          	0x1b49476b
    5746:	4775                	sw	t4,140(sp)
    5748:	229c                	srai	t0,t0,0x7
    574a:	477c                	sw	a5,76(a4)
    574c:	4797b60f          	0x4797b60f
    5750:	479820a3          	sw	s9,1121(a6)
    5754:	ddb4                	lw	a3,120(a1)
    5756:	479f 3740 47a5      	0x47a53740479f
    575c:	8ad5                	ori	a3,a3,2
    575e:	155447a7          	0x155447a7
    5762:	47ba                	beqz	a5,57b0 <verify_data+0x1250>
    5764:	0524                	mv	a0,s1
    5766:	47c2                	beqz	a5,57b6 <verify_data+0x1256>
    5768:	b8f5                	addi	a3,sp,124
    576a:	47d2                	beqz	a5,57be <verify_data+0x125e>
    576c:	d05f 47da 8286      	0x828647dad05f
    5772:	47e0                	sw	s0,76(a5)
    5774:	b732                	lui	a4,0xfffec
    5776:	47e6                	beqz	a5,57ee <verify_data+0x128e>
    5778:	481bd9f3          	csrrw	s3,0x481,23
    577c:	0125                	slli	sp,sp,0x9
    577e:	481f 3db3 4847      	0x48473db3481f
    5784:	8551                	ori	a2,a0,1
    5786:	484c                	sw	a1,20(s0)
    5788:	f4ee                	andi	s1,s1,-5
    578a:	4861                	sw	s8,16(sp)
    578c:	adb0                	sub	a1,a1,a2
    578e:	486a                	beqz	s0,5828 <verify_data+0x12c8>
    5790:	6559                	bltz	a0,57e6 <verify_data+0x1286>
    5792:	486c                	sw	a1,84(s0)
    5794:	0341                	slli	t1,t1,0x10
    5796:	486d                	sw	s11,16(sp)
    5798:	4881f2b7          	lui	t0,0x4881f
    579c:	36f5                	srli	a3,a3,0x3d
    579e:	4896                	beqz	s1,5842 <verify_data+0x12e2>
    57a0:	2d61                	srli	s10,s10,0x18
    57a2:	48a1                	sw	s0,80(sp)
    57a4:	48bfb5ef          	jal	a1,10142e <_gp+0xfa6ce>
    57a8:	b06d                	addi	a1,sp,44
    57aa:	48c5                	sw	a7,80(sp)
    57ac:	a2c4                	or	s0,a3,s1
    57ae:	48c8                	sw	a0,20(s1)
    57b0:	48d2104f          	fnmadd.s	ft0,ft4,fa3,fs1,rtz
    57b4:	48deb2b3          	0x48deb2b3
    57b8:	c11e                	addi	sp,sp,7
    57ba:	48ec                	sw	a1,84(s1)
    57bc:	48ee3bd3          	0x48ee3bd3
    57c0:	662c                	srl	a2,a2,a1
    57c2:	48ee                	beqz	s1,587c <verify_data+0x131c>
    57c4:	493e456f          	jal	a0,ea456 <_gp+0xe36f6>
    57c8:	2b3c                	srai	s6,s6,0xf
    57ca:	44f24957          	0x44f24957
    57ce:	4961                	sw	s8,144(sp)
    57d0:	d92d                	lw	s2,232(sp)
    57d2:	4961                	sw	s8,144(sp)
    57d4:	49635f53          	0x49635f53
    57d8:	523d                	sw	a5,36(sp)
    57da:	4969                	sw	s10,144(sp)
    57dc:	ccf5                	lw	s9,92(sp)
    57de:	496d                	sw	s11,144(sp)
    57e0:	49777d6b          	0x49777d6b
    57e4:	f754                	0xf754
    57e6:	497d                	sw	t6,144(sp)
    57e8:	6fb9                	bltz	a5,58b6 <verify_data+0x1356>
    57ea:	497e                	beqz	a0,58a8 <verify_data+0x1348>
    57ec:	c139                	lw	sp,140(sp)
    57ee:	c342498f          	0xc342498f
    57f2:	cba1499b          	0xcba1499b
    57f6:	49b049e3          	bgtz	s11,6488 <verify_data+0x1f28>
    57fa:	49ed                	sw	s11,208(sp)
    57fc:	4a41b0ab          	0x4a41b0ab
    5800:	4a5ba023          	sw	t0,1184(s7) # 347e86f8 <_gp+0x347e1998>
    5804:	8c9f 4a73 0635      	0x6354a738c9f
    580a:	4a75                	sw	t4,20(sp)
    580c:	fd96                	andi	s11,s11,-27
    580e:	4a86                	beqz	a3,58ae <verify_data+0x134e>
    5810:	ca59                	lw	s4,148(sp)
    5812:	4ad5                	sw	s5,84(sp)
    5814:	4699                	sw	t1,76(sp)
    5816:	4add                	sw	s7,84(sp)
    5818:	5c10                	sw	a2,56(s0)
    581a:	4adf bad6 4ae2      	0x4ae2bad64adf
    5820:	0a4e                	j	5d52 <verify_data+0x17f2>
    5822:	4af4                	sw	a3,84(a3)
    5824:	4b27318b          	0x4b27318b
    5828:	af6d                	addi	a1,sp,924
    582a:	4b3e                	beqz	a4,58d8 <verify_data+0x1378>
    582c:	4b8786af          	0x4b8786af
    5830:	3372                	jal	51cc <verify_data+0xc6c>
    5832:	4bae                	beqz	a5,58dc <verify_data+0x137c>
    5834:	91ec                	0x91ec
    5836:	d9bb4bc7          	fmsub.s	fs7,fs6,fs11,fs11,rmm
    583a:	058c4be3          	blt	s8,s8,6090 <verify_data+0x1b30>
    583e:	9b834bef          	jal	s7,fff399f6 <_gp+0xfff32c96>
    5842:	4bf2                	beqz	a5,58de <verify_data+0x137e>
    5844:	5c1f 4bf6 040c      	0x40c4bf65c1f
    584a:	4c04                	sw	s1,24(s0)
    584c:	97d2                	li	a5,-12
    584e:	4c06                	beqz	s0,592e <verify_data+0x13ce>
    5850:	58c2                	beqz	s1,57e0 <verify_data+0x1280>
    5852:	4c11                	sw	tp,24(sp)
    5854:	8cce                	li	s9,19
    5856:	4c2d                	sw	a1,24(sp)
    5858:	4c38983f 4c38dab4 	0x4c38dab44c38983f
    5860:	4c3ceec7          	fmsub.h	ft9,fs9,ft3,fs1,unknown
    5864:	f69e                	andi	a3,a3,-25
    5866:	4c4a                	beqz	s0,5938 <verify_data+0x13d8>
    5868:	465f 4c61 7db2      	0x7db24c61465f
    586e:	e8004c9b          	0xe8004c9b
    5872:	4cb5                	sw	a3,88(sp)
    5874:	acda                	lui	s9,0x16
    5876:	4cb8                	sw	a4,88(s1)
    5878:	4cc2bb0b          	0x4cc2bb0b
    587c:	c236                	addi	tp,tp,13
    587e:	47684ccf          	0x47684ccf
    5882:	4cd9                	sw	s6,88(sp)
    5884:	4ced7143          	fmadd.h	ft2,fs10,fa4,fs1
    5888:	a049                	addi	a0,sp,4
    588a:	4cf2                	beqz	s1,5966 <verify_data+0x1406>
    588c:	7b64                	0x7b64
    588e:	2ba04cf3          	0x2ba04cf3
    5892:	4cf4                	sw	a3,92(s1)
    5894:	cad2                	addi	s5,s5,20
    5896:	4cf9                	sw	t5,88(sp)
    5898:	1e4c                	add	t3,t3,s3
    589a:	aadb4d03          	lbu	s10,-1363(s6) # fc5c2aad <_gp+0xfc5bbd4d>
    589e:	4d08                	sw	a0,24(a0)
    58a0:	4d130333          	0x4d130333
    58a4:	345f 4d2e 799b      	0x799b4d2e345f
    58aa:	4d4c                	sw	a1,28(a0)
    58ac:	f848                	0xf848
    58ae:	4d60                	sw	s0,92(a0)
    58b0:	5bb8                	sw	a4,112(a5)
    58b2:	1a904d77          	0x1a904d77
    58b6:	4d9f fe51 4da5      	0x4da5fe514d9f
    58bc:	6f29                	bltz	a4,5986 <verify_data+0x1426>
    58be:	4db5                	sw	a3,216(sp)
    58c0:	cec0                	lw	s0,28(a3)
    58c2:	4dc9                	sw	s2,216(sp)
    58c4:	4e03cf67          	0x4e03cf67
    58c8:	b8a4                	sub	a4,s1,s1
    58ca:	82044e17          	auipc	t3,0x82044
    58ce:	4e34                	sw	a3,88(a2)
    58d0:	b850                	or	a4,s0,a2
    58d2:	4e3a                	beqz	a2,59a0 <verify_data+0x1440>
    58d4:	4e448da7          	0x4e448da7
    58d8:	4e4c9107          	flh	ft2,1252(s9)
    58dc:	1808                	add	a6,a6,sp
    58de:	4e50                	sw	a2,28(a2)
    58e0:	6961                	bltz	a0,5978 <verify_data+0x1418>
    58e2:	4e72                	beqz	a2,59be <verify_data+0x145e>
    58e4:	0276                	j	5a20 <verify_data+0x14c0>
    58e6:	4e81                	sw	zero,92(sp)
    58e8:	e729                	bgez	a4,5932 <verify_data+0x13d2>
    58ea:	4e82                	beqz	a3,59aa <verify_data+0x144a>
    58ec:	94d2                	li	s1,-12
    58ee:	d2144e8f          	0xd2144e8f
    58f2:	4e9c                	sw	a5,24(a3)
    58f4:	4eaa874f          	0x4eaa874f
    58f8:	8f85                	addi	s1,a5,3
    58fa:	4eca                	beqz	a3,59cc <verify_data+0x146c>
    58fc:	687e                	bnez	s0,59ba <verify_data+0x145a>
    58fe:	4ed0                	sw	a2,28(a3)
    5900:	4ed6bee3          	0x4ed6bee3
    5904:	9124                	0x9124
    5906:	85ea4ee7          	0x85ea4ee7
    590a:	4eec                	sw	a1,92(a3)
    590c:	aeb6                	lui	t4,0xd
    590e:	4ef5                	sw	t4,92(sp)
    5910:	4efa053b          	0x4efa053b
    5914:	2d0a                	jal	5f96 <verify_data+0x1a36>
    5916:	6b084efb          	0x6b084efb
    591a:	4f09                	sw	sp,156(sp)
    591c:	d49f 4f2b 2e2c      	0x2e2c4f2bd49f
    5922:	4f35                	sw	a3,156(sp)
    5924:	4c14                	sw	a3,24(s0)
    5926:	82e34f5b          	0x82e34f5b
    592a:	4f5e                	beqz	a4,5a20 <verify_data+0x14c0>
    592c:	7e0c                	0x7e0c
    592e:	4f6a                	beqz	a4,5a08 <verify_data+0x14a8>
    5930:	d6f6                	addi	a3,a3,-3
    5932:	2e644f6b          	0x2e644f6b
    5936:	4f6e                	beqz	a4,5a30 <verify_data+0x14d0>
    5938:	4f730137          	lui	sp,0x4f730
    593c:	0661                	slli	a2,a2,0x18
    593e:	4f80                	sw	s0,24(a5)
    5940:	4e44                	sw	s1,28(a2)
    5942:	4f90                	sw	a2,24(a5)
    5944:	177e                	j	5502 <verify_data+0xfa2>
    5946:	4f96                	beqz	a5,5a2a <verify_data+0x14ca>
    5948:	08d9                	slli	a7,a7,0x16
    594a:	6eff4f97          	auipc	t6,0x6eff4
    594e:	4f9c                	sw	a5,24(a5)
    5950:	9f10                	0x9f10
    5952:	4f9f 6481 4fa3      	0x4fa364814f9f
    5958:	94c6                	li	s1,-15
    595a:	4fa9                	sw	a0,220(sp)
    595c:	3271                	srli	tp,tp,0x3c
    595e:	a3944fb7          	lui	t6,0xa3944
    5962:	4fc1                	sw	a6,220(sp)
    5964:	fda0                	0xfda0
    5966:	44314fd3          	0x44314fd3
    596a:	4fed                	sw	s11,220(sp)
    596c:	b9ad                	addi	a1,sp,248
    596e:	501d                	sw	t2,32(sp)
    5970:	495f 502b d8ac      	0xd8ac502b495f
    5976:	5030                	sw	a2,96(s0)
    5978:	503866b3          	0x503866b3
    597c:	259f 503a ed35      	0xed35503a259f
    5982:	504d                	sw	s3,32(sp)
    5984:	5c0d                	sw	gp,56(sp)
    5986:	505e                	beqz	s0,58bc <verify_data+0x135c>
    5988:	8da5                	xori	s1,a1,3
    598a:	505e                	beqz	s0,58c0 <verify_data+0x1360>
    598c:	5615                	sw	t0,44(sp)
    598e:	5081                	sw	zero,96(sp)
    5990:	9ad6                	li	s5,-11
    5992:	50a2                	beqz	s1,589a <verify_data+0x133a>
    5994:	5896                	beqz	s1,5938 <verify_data+0x13d8>
    5996:	636650a7          	0x636650a7
    599a:	50b4                	sw	a3,96(s1)
    599c:	fc05                	bgez	s0,597c <verify_data+0x141c>
    599e:	50c4                	sw	s1,36(s1)
    59a0:	a0ae                	lui	ra,0xb
    59a2:	50c9                	sw	s2,96(sp)
    59a4:	50dfdaef          	jal	s5,1036b0 <_gp+0xfc950>
    59a8:	67d5                	bltz	a5,5a1c <verify_data+0x14bc>
    59aa:	511f 6762 5120      	0x51206762511f
    59b0:	b562                	lui	a0,0xffff8
    59b2:	5162                	beqz	a0,58ca <verify_data+0x136a>
    59b4:	eb98                	0xeb98
    59b6:	5185                	sw	ra,224(sp)
    59b8:	518d9d7b          	0x518d9d7b
    59bc:	9932                	li	s2,-20
    59be:	51b0                	sw	a2,96(a1)
    59c0:	a63a                	lui	a2,0xe
    59c2:	51c9                	sw	s2,224(sp)
    59c4:	3fa1                	srli	t6,t6,0x28
    59c6:	51e5                	sw	s9,224(sp)
    59c8:	7c82                	bnez	s1,5988 <verify_data+0x1428>
    59ca:	049e51e7          	0x49e51e7
    59ce:	51fc                	sw	a5,100(a1)
    59d0:	8b7a                	li	s6,30
    59d2:	5222                	beqz	a2,58da <verify_data+0x137a>
    59d4:	5235d287          	0x5235d287
    59d8:	e641                	bgez	a2,5a28 <verify_data+0x14c8>
    59da:	5238                	sw	a4,96(a2)
    59dc:	10ed                	slli	ra,ra,0x3b
    59de:	5241                	sw	a6,36(sp)
    59e0:	34f5                	srli	s1,s1,0x3d
    59e2:	5266                	beqz	a2,591a <verify_data+0x13ba>
    59e4:	52670823          	sb	t1,1328(a4)
    59e8:	52680fd7          	0x52680fd7
    59ec:	4906                	beqz	a0,5a8c <verify_data+0x152c>
    59ee:	526d                	sw	s11,36(sp)
    59f0:	9a3e                	li	s4,-17
    59f2:	adf35273          	csrrw	tp,0xadf,6
    59f6:	5278                	sw	a4,100(a2)
    59f8:	5282f6af          	0x5282f6af
    59fc:	b9a9                	addi	a0,sp,248
    59fe:	9ede5297          	auipc	t0,0x9ede5
    5a02:	52a0                	sw	s0,96(a3)
    5a04:	47ea                	beqz	a5,5a5e <verify_data+0x14fe>
    5a06:	52a2                	beqz	a3,590e <verify_data+0x13ae>
    5a08:	8c68                	sub	s8,s8,s10
    5a0a:	52ac                	sw	a1,96(a3)
    5a0c:	2390                	srai	t2,t2,0x4
    5a0e:	52b9                	sw	a4,100(sp)
    5a10:	cb54                	lw	a3,20(a4)
    5a12:	52c6                	beqz	a3,5942 <verify_data+0x13e2>
    5a14:	52d6793b          	0x52d6793b
    5a18:	52d9061b          	0x52d9061b
    5a1c:	52da5463          	ble	a3,s4,5f44 <verify_data+0x19e4>
    5a20:	e6d4                	0xe6d4
    5a22:	52dd                	sw	s7,100(sp)
    5a24:	6649                	bltz	a2,5a76 <verify_data+0x1516>
    5a26:	52de                	beqz	a3,595c <verify_data+0x13fc>
    5a28:	02a1                	slli	t0,t0,0x8
    5a2a:	52e1                	sw	s8,100(sp)
    5a2c:	bc78                	and	a5,s0,a4
    5a2e:	70bb52e3          	ble	a1,s6,6932 <_end+0x332>
    5a32:	52ea                	beqz	a3,594c <verify_data+0x13ec>
    5a34:	9892                	li	a7,-28
    5a36:	52f5                	sw	t4,100(sp)
    5a38:	b766                	lui	a4,0xffff9
    5a3a:	52fa                	beqz	a3,5958 <verify_data+0x13f8>
    5a3c:	5324eef7          	0x5324eef7
    5a40:	5328610f          	0x5328610f
    5a44:	6e6c                	sltu	a1,a2,a1
    5a46:	532a                	beqz	a4,5950 <verify_data+0x13f0>
    5a48:	5f7c                	sw	a5,124(a4)
    5a4a:	50f6533f 167d536d 	0x167d536d50f6533f
    5a52:	5370                	sw	a2,100(a4)
    5a54:	537361cf          	fnmadd.d	ft3,ft6,fs7,fa0,unknown
    5a58:	53807c37          	lui	s8,0x53807
    5a5c:	538275d3          	0x538275d3
    5a60:	8780                	sub	a5,a5,zero
    5a62:	5390                	sw	a2,32(a5)
    5a64:	099e                	j	5f4a <verify_data+0x19ea>
    5a66:	539c                	sw	a5,32(a5)
    5a68:	53a33aef          	jal	s5,38fa2 <_gp+0x32242>
    5a6c:	da66                	addi	s4,s4,-7
    5a6e:	70b553ab          	0x70b553ab
    5a72:	53ba                	beqz	a5,5980 <verify_data+0x1420>
    5a74:	53c8cb9b          	0x53c8cb9b
    5a78:	53ca3e2f          	0x53ca3e2f
    5a7c:	8d40                	sub	s10,s10,a6
    5a7e:	53de                	beqz	a5,59b4 <verify_data+0x1454>
    5a80:	53f8a88b          	0x53f8a88b
    5a84:	a9d0                	or	a0,a1,a2
    5a86:	a88853fb          	0xa88853fb
    5a8a:	5431                	sw	a2,40(sp)
    5a8c:	ce4c                	lw	a1,28(a2)
    5a8e:	5445                	sw	a7,40(sp)
    5a90:	148d                	slli	s1,s1,0x23
    5a92:	544a                	beqz	s0,59e4 <verify_data+0x1484>
    5a94:	6075                	bltz	s0,5ad0 <verify_data+0x1570>
    5a96:	544a                	beqz	s0,59e8 <verify_data+0x1488>
    5a98:	2416                	jal	5cbc <verify_data+0x175c>
    5a9a:	545d                	sw	s7,40(sp)
    5a9c:	0c00                	li	s8,0
    5a9e:	547c                	sw	a5,108(s0)
    5aa0:	e13c                	0xe13c
    5aa2:	547e                	beqz	s0,5a20 <verify_data+0x14c0>
    5aa4:	d742                	addi	a4,a4,-16
    5aa6:	af9c54af          	0xaf9c54af
    5aaa:	54ec                	sw	a1,108(s1)
    5aac:	a2b4                	sub	s0,a3,a3
    5aae:	54ed                	sw	s11,104(sp)
    5ab0:	6adf 5506 fc8e      	0xfc8e55066adf
    5ab6:	5515                	sw	t0,168(sp)
    5ab8:	f601                	bgez	a2,59f8 <verify_data+0x1498>
    5aba:	5520                	sw	s0,104(a0)
    5abc:	9b08                	0x9b08
    5abe:	5548                	sw	a0,44(a0)
    5ac0:	5552d8af          	0x5552d8af
    5ac4:	5557c007          	0x5557c007
    5ac8:	5579cfa7          	0x5579cfa7
    5acc:	5582c697          	auipc	a3,0x5582c
    5ad0:	7b2e                	bnez	a4,5a7a <verify_data+0x151a>
    5ad2:	5595                	sw	t0,232(sp)
    5ad4:	1f9c                	add	t6,t6,t2
    5ad6:	55a9                	sw	a0,232(sp)
    5ad8:	e12a                	andi	sp,sp,10
    5ada:	55d6                	beqz	a1,5a4e <verify_data+0x14ee>
    5adc:	4c62                	beqz	s0,5bb4 <verify_data+0x1654>
    5ade:	55f0                	sw	a2,108(a1)
    5ae0:	56126e87          	0x56126e87
    5ae4:	ddb0                	lw	a2,120(a1)
    5ae6:	5612                	beqz	a2,5a2a <verify_data+0x14ca>
    5ae8:	657f                	0x657f
    5aea:	5624                	sw	s1,104(a2)
    5aec:	35e2                	jal	55c4 <verify_data+0x1064>
    5aee:	5625                	sw	s1,44(sp)
    5af0:	54c2                	beqz	s1,5a40 <verify_data+0x14e0>
    5af2:	5626                	beqz	a2,5a5a <verify_data+0x14fa>
    5af4:	5646a03f 564cd780 	0x564cd7805646a03f
    5afc:	dc38                	lw	a4,120(s0)
    5afe:	567a                	beqz	a2,5a5c <verify_data+0x14fc>
    5b00:	5680bd3f 56834290 	0x568342905680bd3f
    5b08:	17e6                	j	5700 <verify_data+0x11a0>
    5b0a:	56a1                	sw	s0,108(sp)
    5b0c:	56be5ff3          	csrrw	t6,0x56b,28
    5b10:	16b2                	j	565c <verify_data+0x10fc>
    5b12:	56c5                	sw	a7,108(sp)
    5b14:	263e                	jal	5e42 <verify_data+0x18e2>
    5b16:	56df 1c4d 56f8      	0x56f81c4d56df
    5b1c:	b0b9                	addi	a4,sp,104
    5b1e:	56f8                	sw	a4,108(a3)
    5b20:	3468                	srai	s0,s0,0x3a
    5b22:	56fe                	beqz	a3,5aa0 <verify_data+0x1540>
    5b24:	0bc1                	slli	s7,s7,0x10
    5b26:	5700                	sw	s0,40(a4)
    5b28:	4838                	sw	a4,80(s0)
    5b2a:	02115727          	0x2115727
    5b2e:	572c                	sw	a1,104(a4)
    5b30:	3a00                	srai	s4,s4,0x20
    5b32:	5730                	sw	a2,104(a4)
    5b34:	6a81                	bltz	a3,5bb4 <verify_data+0x1654>
    5b36:	5732                	beqz	a4,5a82 <verify_data+0x1522>
    5b38:	5737b9e3          	0x5737b9e3
    5b3c:	08ff                	0x8ff
    5b3e:	c149576b          	0xc149576b
    5b42:	6483576b          	0x6483576b
    5b46:	5776                	beqz	a4,5ac2 <verify_data+0x1562>
    5b48:	5511                	sw	tp,168(sp)
    5b4a:	c65d5787          	0xc65d5787
    5b4e:	57a2                	beqz	a5,5a96 <verify_data+0x1536>
    5b50:	b06e                	0xb06e
    5b52:	b82b57af          	0xb82b57af
    5b56:	57b4                	sw	a3,104(a5)
    5b58:	ceb2                	addi	t4,t4,12
    5b5a:	57b6                	beqz	a5,5ac6 <verify_data+0x1566>
    5b5c:	973c                	0x973c
    5b5e:	57c5                	sw	a7,236(sp)
    5b60:	57cebc73          	csrrc	s8,0x57c,t4
    5b64:	6a2e                	bnez	a2,5c0e <verify_data+0x16ae>
    5b66:	73e657d7          	0x73e657d7
    5b6a:	57f4                	sw	a3,108(a5)
    5b6c:	2e9a                	jal	62b2 <verify_data+0x1d52>
    5b6e:	f556583b          	0xf556583b
    5b72:	b0c8583b          	0xb0c8583b
    5b76:	583d                	sw	a5,48(sp)
    5b78:	86a0                	sub	a3,a3,s0
    5b7a:	5864                	sw	s1,116(s0)
    5b7c:	9850                	0x9850
    5b7e:	588e                	beqz	s1,5b20 <verify_data+0x15c0>
    5b80:	a0ea                	lui	ra,0x1a
    5b82:	4ae3589b          	0x4ae3589b
    5b86:	01ab58ab          	0x1ab58ab
    5b8a:	236f58cb          	fnmsub.d	fa7,ft10,fs6,ft4,unknown
    5b8e:	58e6                	beqz	s1,5b46 <verify_data+0x15e6>
    5b90:	3434                	srai	s0,s0,0x2d
    5b92:	917d58ef          	jal	a7,fffdb4a8 <_gp+0xfffd4748>
    5b96:	58f5                	sw	t4,112(sp)
    5b98:	592c584b          	fnmsub.s	fa6,fs8,fs2,fa1,unknown
    5b9c:	62d6                	bnez	a3,5bd0 <verify_data+0x1670>
    5b9e:	ca9b592f          	0xca9b592f
    5ba2:	5944                	sw	s1,52(a0)
    5ba4:	8add                	ori	a5,a3,2
    5ba6:	5948                	sw	a0,52(a0)
    5ba8:	1fe2                	j	5b80 <verify_data+0x1620>
    5baa:	5952                	beqz	a0,5b3e <verify_data+0x15de>
    5bac:	5969bfbf 597a35f0 	0x597a35f05969bfbf
    5bb4:	c412                	addi	s0,s0,4
    5bb6:	598a                	beqz	a1,5b38 <verify_data+0x15d8>
    5bb8:	09c4                	mv	s3,a7
    5bba:	598e                	beqz	a1,5b5c <verify_data+0x15fc>
    5bbc:	359a                	jal	5682 <verify_data+0x1122>
    5bbe:	930e598f          	0x930e598f
    5bc2:	59a5                	sw	s1,240(sp)
    5bc4:	d140                	lw	s0,36(a0)
    5bc6:	59b4                	sw	a3,112(a1)
    5bc8:	59bbba97          	auipc	s5,0x59bbb
    5bcc:	ad26                	lui	s10,0x9
    5bce:	59ce                	beqz	a1,5b80 <verify_data+0x1620>
    5bd0:	9a45                	ori	s1,a2,-2
    5bd2:	59d9                	sw	s6,240(sp)
    5bd4:	0492                	j	5e18 <verify_data+0x18b8>
    5bd6:	59ed                	sw	s11,240(sp)
    5bd8:	ce14                	lw	a3,24(a2)
    5bda:	5a02                	beqz	a2,5b5a <verify_data+0x15fa>
    5bdc:	5c31                	sw	a2,56(sp)
    5bde:	5a21                	sw	s0,52(sp)
    5be0:	ca46                	addi	s4,s4,17
    5be2:	5a21                	sw	s0,52(sp)
    5be4:	7271                	bltz	a2,5b00 <verify_data+0x15a0>
    5be6:	5a32                	beqz	a2,5b72 <verify_data+0x1612>
    5be8:	0f8e                	j	63ca <verify_data+0x1e6a>
    5bea:	5a42                	beqz	a2,5b7a <verify_data+0x161a>
    5bec:	5a46b2c3          	fmadd.d	ft5,fa3,ft4,fa1,rup
    5bf0:	e44c                	0xe44c
    5bf2:	5a49                	sw	s2,52(sp)
    5bf4:	11fa                	j	54d2 <verify_data+0xf72>
    5bf6:	5a51                	sw	s4,52(sp)
    5bf8:	2220                	srai	tp,tp,0x8
    5bfa:	5a55                	sw	s5,52(sp)
    5bfc:	50ec                	sw	a1,100(s1)
    5bfe:	5d345a5b          	0x5d345a5b
    5c02:	5a8a                	beqz	a3,5b84 <verify_data+0x1624>
    5c04:	8bfd                	andi	a5,a5,2
    5c06:	e4a25aa3          	0xe4a25aa3
    5c0a:	5aa6                	beqz	a3,5bb2 <verify_data+0x1652>
    5c0c:	5aadf643          	fmadd.d	fa2,fs11,fa0,fa1
    5c10:	b38c                	add	a2,a5,a1
    5c12:	5abc                	sw	a5,112(a3)
    5c14:	7ebd                	bltz	a3,5c02 <verify_data+0x16a2>
    5c16:	5ad6                	beqz	a3,5bca <verify_data+0x166a>
    5c18:	e652                	andi	a2,a2,20
    5c1a:	5add                	sw	s7,116(sp)
    5c1c:	8a1a                	li	s4,6
    5c1e:	5aec                	sw	a1,116(a3)
    5c20:	8572                	li	a0,28
    5c22:	5b04                	sw	s1,48(a4)
    5c24:	5b13e84b          	fnmsub.d	fa6,ft7,fa7,fa1,unknown
    5c28:	5b668c23          	sb	s6,1464(a3) # 55832084 <_gp+0x5582b324>
    5c2c:	4e8e                	beqz	a3,5d0e <verify_data+0x17ae>
    5c2e:	085b5b67          	0x85b5b67
    5c32:	5b74                	sw	a3,116(a4)
    5c34:	c33a                	addi	t1,t1,14
    5c36:	5b90                	sw	a2,48(a5)
    5c38:	c554                	lw	a3,12(a0)
    5c3a:	13985ba3          	0x13985ba3
    5c3e:	5bad                	sw	a1,244(sp)
    5c40:	fea1                	bgez	a3,5c08 <verify_data+0x16a8>
    5c42:	5bb1                	sw	a2,244(sp)
    5c44:	5bc3d43b          	0x5bc3d43b
    5c48:	5bdbb757          	0x5bdbb757
    5c4c:	d285                	lw	t0,96(sp)
    5c4e:	20625bdb          	0x20625bdb
    5c52:	5be2                	beqz	a5,5bea <verify_data+0x168a>
    5c54:	4fe1                	sw	s8,220(sp)
    5c56:	5c1f f7b7 5c26      	0x5c26f7b75c1f
    5c5c:	ae74                	and	a1,a2,a3
    5c5e:	754a5c27          	0x754a5c27
    5c62:	96b35c3f e1405c4d 	0xe1405c4d96b35c3f
    5c6a:	5c50                	sw	a2,60(s0)
    5c6c:	4f7e                	beqz	a4,5d6a <verify_data+0x180a>
    5c6e:	8f185c63          	ble	a7,a6,4d66 <verify_data+0x806>
    5c72:	5c65                	sw	s9,56(sp)
    5c74:	5c6b23e3          	0x5c6b23e3
    5c78:	21b4                	srai	gp,gp,0xd
    5c7a:	5c6e                	beqz	s0,5c74 <verify_data+0x1714>
    5c7c:	5c7c7ae7          	0x5c7c7ae7
    5c80:	4274                	sw	a3,68(a2)
    5c82:	5c99                	sw	t1,120(sp)
    5c84:	c924                	lw	s1,80(a0)
    5c86:	5ca1                	sw	s0,120(sp)
    5c88:	6251                	bltz	a2,5c9c <verify_data+0x173c>
    5c8a:	5cb4                	sw	a3,120(s1)
    5c8c:	7dfd                	bltz	a1,5c8a <verify_data+0x172a>
    5c8e:	5cb9                	sw	a4,120(sp)
    5c90:	ecf0                	0xecf0
    5c92:	5ce0                	sw	s0,124(s1)
    5c94:	cf1d                	lw	t5,196(sp)
    5c96:	e2f05ce7          	0xe2f05ce7
    5c9a:	5cfd                	sw	t6,120(sp)
    5c9c:	5d0e34db          	0x5d0e34db
    5ca0:	cf00                	lw	s0,24(a4)
    5ca2:	5d0e                	beqz	a0,5c84 <verify_data+0x1724>
    5ca4:	6bb9                	bltz	a5,5d32 <verify_data+0x17d2>
    5ca6:	5d11                	sw	tp,184(sp)
    5ca8:	5d161ea7          	fsh	fa7,1501(a2)
    5cac:	5d347033          	0x5d347033
    5cb0:	5d39ae3b          	0x5d39ae3b
    5cb4:	52b6                	beqz	a3,5be0 <verify_data+0x1680>
    5cb6:	5d51                	sw	s4,184(sp)
    5cb8:	5d52b08f          	0x5d52b08f
    5cbc:	acbd                	addi	a5,sp,600
    5cbe:	5d64                	sw	s1,124(a0)
    5cc0:	791e                	bnez	a0,5c66 <verify_data+0x1706>
    5cc2:	5d78                	sw	a4,124(a0)
    5cc4:	d049                	0xd049
    5cc6:	861e5d7b          	0x861e5d7b
    5cca:	5cf85d83          	lhu	s11,1487(a6)
    5cce:	5d8c                	sw	a1,56(a1)
    5cd0:	2534                	srai	a0,a0,0xd
    5cd2:	5d9e                	beqz	a1,5cb8 <verify_data+0x1758>
    5cd4:	af35                	addi	a3,sp,920
    5cd6:	5dac                	sw	a1,120(a1)
    5cd8:	107f                	0x107f
    5cda:	5db6                	beqz	a1,5cc6 <verify_data+0x1766>
    5cdc:	6704                	sll	a4,a4,s1
    5cde:	5de6                	beqz	a1,5cd6 <verify_data+0x1776>
    5ce0:	a3b2                	lui	t2,0xc
    5ce2:	5dff                	0x5dff
    5ce4:	b1aa                	lui	gp,0xfffea
    5ce6:	5e0d                	sw	gp,60(sp)
    5ce8:	b1a2                	lui	gp,0xfffe8
    5cea:	5e28                	sw	a0,120(a2)
    5cec:	1801                	slli	a6,a6,0x20
    5cee:	5e3d                	sw	a5,60(sp)
    5cf0:	f449                	bgez	s0,5c42 <verify_data+0x16e2>
    5cf2:	5e3d                	sw	a5,60(sp)
    5cf4:	5f29                	sw	a0,188(sp)
    5cf6:	5e48                	sw	a0,60(a2)
    5cf8:	2640                	srai	a2,a2,0x10
    5cfa:	5e70                	sw	a2,124(a2)
    5cfc:	f286                	andi	t0,t0,-31
    5cfe:	5e79                	sw	t5,60(sp)
    5d00:	58ce                	beqz	s1,5cb2 <verify_data+0x1752>
    5d02:	5eaa                	beqz	a3,5ccc <verify_data+0x176c>
    5d04:	5eb1deab          	0x5eb1deab
    5d08:	2f60                	srai	t5,t5,0x18
    5d0a:	5eb9                	sw	a4,124(sp)
    5d0c:	859f 5ecc 3d98      	0x3d985ecc859f
    5d12:	5ed1                	sw	s4,124(sp)
    5d14:	babe                	lui	s5,0xfffef
    5d16:	5ef8                	sw	a4,124(a3)
    5d18:	5f000727          	0x5f000727
    5d1c:	fee2                	andi	t4,t4,-8
    5d1e:	ae285f0b          	0xae285f0b
    5d22:	5f21                	sw	s0,188(sp)
    5d24:	5f2d8e87          	0x5f2d8e87
    5d28:	0230                	mv	tp,a2
    5d2a:	5f38                	sw	a4,120(a4)
    5d2c:	3635                	srli	a2,a2,0x2d
    5d2e:	5f46                	beqz	a4,5d1e <verify_data+0x17be>
    5d30:	5f5770ab          	0x5f5770ab
    5d34:	2df2                	jal	6410 <verify_data+0x1eb0>
    5d36:	5f5c                	sw	a5,60(a4)
    5d38:	6aa2                	bnez	a3,5dc0 <verify_data+0x1860>
    5d3a:	5f5e                	beqz	a4,5d30 <verify_data+0x17d0>
    5d3c:	9731                	xori	a2,a4,-3
    5d3e:	5f65                	sw	s9,188(sp)
    5d40:	5ea0                	sw	s0,120(a3)
    5d42:	183e5f6f          	jal	t5,eb6c4 <_gp+0xe4964>
    5d46:	5f71                	sw	t3,188(sp)
    5d48:	bf85                	addi	s1,sp,1008
    5d4a:	5f76                	beqz	a4,5d46 <verify_data+0x17e6>
    5d4c:	796a                	bnez	a0,5ce6 <verify_data+0x1786>
    5d4e:	5f84                	sw	s1,56(a5)
    5d50:	3495                	srli	s1,s1,0x25
    5d52:	5f89                	sw	sp,252(sp)
    5d54:	5f8b586b          	0x5f8b586b
    5d58:	5ed6                	beqz	a3,5d4c <verify_data+0x17ec>
    5d5a:	5f92                	beqz	a5,5d1e <verify_data+0x17be>
    5d5c:	25c2                	jal	602c <verify_data+0x1acc>
    5d5e:	5fa0                	sw	s0,120(a5)
    5d60:	8e1a                	li	t3,6
    5d62:	5fa0                	sw	s0,120(a5)
    5d64:	5faed877          	0x5faed877
    5d68:	5faffcaf          	0x5faffcaf
    5d6c:	fdc5                	bgez	a1,5d5c <verify_data+0x17fc>
    5d6e:	beb65fcb          	0xbeb65fcb
    5d72:	5fd0                	sw	a2,60(a5)
    5d74:	7672                	bnez	a2,5cd0 <verify_data+0x1770>
    5d76:	5fd2                	beqz	a5,5d4a <verify_data+0x17ea>
    5d78:	378e                	jal	595a <verify_data+0x13fa>
    5d7a:	f9555fd3          	0xf9555fd3
    5d7e:	5ff5                	sw	t4,252(sp)
    5d80:	5ffa6057          	0x5ffa6057
    5d84:	e246                	andi	tp,tp,17
    5d86:	5ffe                	beqz	a5,5d84 <verify_data+0x1824>
    5d88:	8c4e                	li	s8,19
    5d8a:	600d                	bltz	s0,5dac <verify_data+0x184c>
    5d8c:	6f54                	slt	a3,a4,a3
    5d8e:	600e                	bnez	s0,5db0 <verify_data+0x1850>
    5d90:	4a40                	sw	s0,20(a2)
    5d92:	6010                	xor	s0,s0,a2
    5d94:	3b49                	srli	s6,s6,0x32
    5d96:	601e                	bnez	s0,5dbc <verify_data+0x185c>
    5d98:	601e79bb          	0x601e79bb
    5d9c:	9910                	0x9910
    5d9e:	f51e603f 804f6064 	0x804f6064f51e603f
    5da6:	6076                	bnez	s0,5de2 <verify_data+0x1882>
    5da8:	1c78                	add	s8,s8,t5
    5daa:	6089                	bltz	s1,5dac <verify_data+0x184c>
    5dac:	c63a                	addi	a2,a2,14
    5dae:	6089                	bltz	s1,5db0 <verify_data+0x1850>
    5db0:	d200                	lw	s0,32(a2)
    5db2:	7ef86097          	auipc	ra,0x7ef86
    5db6:	540c609b          	0x540c609b
    5dba:	60b8                	sra	s1,s1,a4
    5dbc:	52a1                	sw	s0,100(sp)
    5dbe:	60b9                	bltz	s1,5dcc <verify_data+0x186c>
    5dc0:	3d99                	srli	s11,s11,0x26
    5dc2:	60d6                	bnez	s1,5df6 <verify_data+0x1896>
    5dc4:	7a9e                	bnez	a3,5d6a <verify_data+0x180a>
    5dc6:	60ff                	0x60ff
    5dc8:	3a28                	srai	s4,s4,0x2a
    5dca:	407d610f          	0x407d610f
    5dce:	3bea610f          	0x3bea610f
    5dd2:	6122                	bnez	a0,5dda <verify_data+0x187a>
    5dd4:	86e0                	sub	a3,a3,s8
    5dd6:	6126                	bnez	a0,5dfe <verify_data+0x189e>
    5dd8:	4ec4                	sw	s1,28(a3)
    5dda:	612c                	sra	a0,a0,a1
    5ddc:	6133ac8b          	0x6133ac8b
    5de0:	4569                	sw	s10,136(sp)
    5de2:	613d                	bltz	a0,5e10 <verify_data+0x18b0>
    5de4:	5b08                	sw	a0,48(a4)
    5de6:	6145                	bltz	a0,5e16 <verify_data+0x18b6>
    5de8:	6ca9                	bltz	s1,5eb2 <verify_data+0x1952>
    5dea:	615d                	bltz	a0,5e20 <verify_data+0x18c0>
    5dec:	a80d                	addi	a1,sp,16
    5dee:	a6ab616b          	0xa6ab616b
    5df2:	6182                	bnez	a1,5df2 <verify_data+0x1892>
    5df4:	7cc8                	0x7cc8
    5df6:	6186                	bnez	a1,5e16 <verify_data+0x18b6>
    5df8:	8322                	li	t1,8
    5dfa:	6190                	xor	a1,a1,a2
    5dfc:	f3c1                	bgez	a5,5d0c <verify_data+0x17ac>
    5dfe:	61ce                	bnez	a1,5e30 <verify_data+0x18d0>
    5e00:	19ad                	slli	s3,s3,0x2b
    5e02:	61e4                	0x61e4
    5e04:	6d64                	sltu	s1,a0,s1
    5e06:	61ec                	0x61ec
    5e08:	52ca                	beqz	a3,5d1a <verify_data+0x17ba>
    5e0a:	61fd                	bltz	a1,5e48 <verify_data+0x18e8>
    5e0c:	d948                	lw	a0,52(a0)
    5e0e:	6202                	bnez	a2,5e0e <verify_data+0x18ae>
    5e10:	800e                	0x800e
    5e12:	b61d621b          	0xb61d621b
    5e16:	6226                	bnez	a2,5e3e <verify_data+0x18de>
    5e18:	4380                	sw	s0,0(a5)
    5e1a:	fe036243          	0xfe036243
    5e1e:	624e                	bnez	a2,5e50 <verify_data+0x18f0>
    5e20:	b9e0                	and	a4,a1,s0
    5e22:	bb78624f          	fnmadd.d	ft4,fa6,fs7,fs7,unknown
    5e26:	6266                	bnez	a2,5e5e <verify_data+0x18fe>
    5e28:	2af9                	srli	s5,s5,0x1e
    5e2a:	6279                	bltz	a2,5e48 <verify_data+0x18e8>
    5e2c:	628bd913          	0x628bd913
    5e30:	62a986eb          	0x62a986eb
    5e34:	9932                	li	s2,-20
    5e36:	62bc                	sra	a3,a3,a5
    5e38:	62c3d607          	0x62c3d607
    5e3c:	a545                	addi	s1,sp,644
    5e3e:	8bab62d3          	0x8bab62d3
    5e42:	6d6f62e3          	bltu	t5,s6,6d06 <_end+0x706>
    5e46:	62e4                	0x62e4
    5e48:	f09c                	0xf09c
    5e4a:	e6d262fb          	0xe6d262fb
    5e4e:	6320                	sra	a4,a4,s0
    5e50:	632cf297          	auipc	t0,0x632cf
    5e54:	d69d                	lw	a3,228(sp)
    5e56:	463a634b          	0x463a634b
    5e5a:	634e                	bnez	a4,5e8c <verify_data+0x192c>
    5e5c:	f658                	0xf658
    5e5e:	635d                	bltz	a4,5e94 <verify_data+0x1934>
    5e60:	c3dd                	lw	t2,212(sp)
    5e62:	6366                	bnez	a4,5e9a <verify_data+0x193a>
    5e64:	a131                	addi	a2,sp,136
    5e66:	c12363ab          	0xc12363ab
    5e6a:	63bc                	sra	a5,a5,a5
    5e6c:	e759                	bgez	a4,5ec2 <verify_data+0x1962>
    5e6e:	0cb163c7          	fmsub.h	ft7,ft2,fa1,ft1,unknown
    5e72:	032663db          	0x32663db
    5e76:	63de                	bnez	a5,5eac <verify_data+0x194c>
    5e78:	da45                	lw	s4,112(sp)
    5e7a:	036f63fb          	0x36f63fb
    5e7e:	748b6413          	ori	s0,s6,1864
    5e82:	6418                	sll	s0,s0,a4
    5e84:	5eb2                	beqz	a3,5e50 <verify_data+0x18f0>
    5e86:	641f 9a25 6426      	0x64269a25641f
    5e8c:	4216                	beqz	a2,5eb0 <verify_data+0x1950>
    5e8e:	3fdd6427          	0x3fdd6427
    5e92:	f9ef643f 83b4644b 	0x83b4644bf9ef643f
    5e9a:	645e                	bnez	s0,5f10 <verify_data+0x19b0>
    5e9c:	1629                	slli	a2,a2,0x2a
    5e9e:	6460                	sltu	s0,s0,s0
    5ea0:	6941                	bltz	a0,5f30 <verify_data+0x19d0>
    5ea2:	6474                	sltu	s0,s0,a3
    5ea4:	7cc8                	0x7cc8
    5ea6:	647c                	sltu	s0,s0,a5
    5ea8:	9cdc                	0x9cdc
    5eaa:	6481                	bltz	s1,5eea <verify_data+0x198a>
    5eac:	a0ff                	0xa0ff
    5eae:	6485                	bltz	s1,5f0e <verify_data+0x19ae>
    5eb0:	071f 6487 d2ea      	0xd2ea6487071f
    5eb6:	6495                	bltz	s1,5f1a <verify_data+0x19ba>
    5eb8:	f0a0                	0xf0a0
    5eba:	c97d649b          	0xc97d649b
    5ebe:	64a6                	bnez	s1,5f26 <verify_data+0x19c6>
    5ec0:	8b6a                	li	s6,26
    5ec2:	64ba                	bnez	s1,5f10 <verify_data+0x19b0>
    5ec4:	e9f0                	0xe9f0
    5ec6:	64bd                	bltz	s1,5f34 <verify_data+0x19d4>
    5ec8:	0924                	mv	s2,s1
    5eca:	64d2                	bnez	s1,5f1e <verify_data+0x19be>
    5ecc:	ef6e                	andi	t5,t5,27
    5ece:	64d4                	slt	s1,s1,a3
    5ed0:	938e                	li	t2,-29
    5ed2:	650a                	bnez	a0,5f14 <verify_data+0x19b4>
    5ed4:	1121                	slli	sp,sp,0x28
    5ed6:	6511                	bltz	a0,5f1a <verify_data+0x19ba>
    5ed8:	a2b8                	sub	s0,a3,a4
    5eda:	6530                	srl	a0,a0,a2
    5edc:	f2a1                	bgez	a3,5de4 <verify_data+0x1884>
    5ede:	6578                	sltu	a0,a0,a4
    5ee0:	8ac2                	li	s5,16
    5ee2:	6599                	bltz	a1,5f28 <verify_data+0x19c8>
    5ee4:	65a60287          	0x65a60287
    5ee8:	0f15                	slli	t5,t5,0x5
    5eea:	65ae                	bnez	a1,5f54 <verify_data+0x19f4>
    5eec:	8f02                	jr	t5
    5eee:	0e4c65b7          	lui	a1,0xe4c6
    5ef2:	65ce                	bnez	a1,5f64 <verify_data+0x1a04>
    5ef4:	a371                	addi	a2,sp,396
    5ef6:	ef3e65cf          	0xef3e65cf
    5efa:	924f65cf          	fnmadd.d	fa1,ft10,ft4,fs2,unknown
    5efe:	65dd                	bltz	a1,5f74 <verify_data+0x1a14>
    5f00:	eb55                	bgez	a4,5fb4 <verify_data+0x1a54>
    5f02:	d54865e7          	0xd54865e7
    5f06:	65e9                	bltz	a1,5f60 <verify_data+0x1a00>
    5f08:	31f2                	jal	57e4 <verify_data+0x1284>
    5f0a:	65f1                	bltz	a1,5f66 <verify_data+0x1a06>
    5f0c:	660479c3          	0x660479c3
    5f10:	c086                	addi	ra,ra,1
    5f12:	6606                	bnez	a2,5f72 <verify_data+0x1a12>
    5f14:	66076677          	0x66076677
    5f18:	77b2                	bnez	a5,5e64 <verify_data+0x1904>
    5f1a:	27536607          	0x27536607
    5f1e:	436d660f          	0x436d660f
    5f22:	6610                	sll	a2,a2,a2
    5f24:	661d2f27          	fsw	ft1,1662(s10)
    5f28:	8e36                	li	t3,13
    5f2a:	6621                	bltz	a2,5f72 <verify_data+0x1a12>
    5f2c:	12f4                	add	t0,t0,t4
    5f2e:	662e                	bnez	a2,5f98 <verify_data+0x1a38>
    5f30:	160e                	j	5a52 <verify_data+0x14f2>
    5f32:	663d                	bltz	a2,5fa0 <verify_data+0x1a40>
    5f34:	9be5                	andi	s1,a5,-2
    5f36:	663e                	bnez	a2,5fa4 <verify_data+0x1a44>
    5f38:	663ef68b          	0x663ef68b
    5f3c:	192a                	j	5bc6 <verify_data+0x1666>
    5f3e:	6655                	bltz	a2,5fb2 <verify_data+0x1a52>
    5f40:	02a2                	j	6088 <verify_data+0x1b28>
    5f42:	6676                	bnez	a2,5fbe <verify_data+0x1a5e>
    5f44:	667e9cb3          	0x667e9cb3
    5f48:	66a01657          	0x66a01657
    5f4c:	152e                	j	59f6 <verify_data+0x1496>
    5f4e:	66b5                	bltz	a3,5fba <verify_data+0x1a5a>
    5f50:	ac6e                	lui	s8,0x1b
    5f52:	66d9                	bltz	a3,5fa8 <verify_data+0x1a48>
    5f54:	bcfc                	and	a5,s1,a5
    5f56:	d44c66ef          	jal	a3,fffcc49a <_gp+0xfffc573a>
    5f5a:	66f8                	sltu	a3,a3,a4
    5f5c:	ca7a                	addi	s4,s4,30
    5f5e:	6722                	bnez	a4,5fa6 <verify_data+0x1a46>
    5f60:	b5d9                	addi	a4,sp,740
    5f62:	6728                	srl	a4,a4,a0
    5f64:	72c2                	bnez	a3,5e74 <verify_data+0x1914>
    5f66:	a6b0673b          	0xa6b0673b
    5f6a:	673c                	srl	a4,a4,a5
    5f6c:	1266                	j	58a4 <verify_data+0x1344>
    5f6e:	6751                	bltz	a4,5fc2 <verify_data+0x1a62>
    5f70:	79cd                	bltz	a1,5f22 <verify_data+0x19c2>
    5f72:	675a                	bnez	a4,5fc8 <verify_data+0x1a68>
    5f74:	6796bc67          	0x6796bc67
    5f78:	2ace                	jal	64ea <verify_data+0x1f8a>
    5f7a:	679d                	bltz	a5,5fe0 <verify_data+0x1a80>
    5f7c:	67b7ceef          	jal	t4,82df6 <_gp+0x7c096>
    5f80:	2ddd                	srli	s11,s11,0x17
    5f82:	67c2                	bnez	a5,5fd2 <verify_data+0x1a72>
    5f84:	3ffd                	srli	t6,t6,0x3f
    5f86:	67c2                	bnez	a5,5fd6 <verify_data+0x1a76>
    5f88:	67d54dcb          	0x67d54dcb
    5f8c:	6f8c                	sll	a1,a5,a1
    5f8e:	5d2467db          	0x5d2467db
    5f92:	6806                	bnez	s0,6032 <verify_data+0x1ad2>
    5f94:	96cd                	ori	a1,a3,-3
    5f96:	6808                	0x6808
    5f98:	680ae06b          	0x680ae06b
    5f9c:	68160343          	fmadd.s	ft6,fa2,ft1,fa3,rne
    5fa0:	1e9a                	j	5ee6 <verify_data+0x1986>
    5fa2:	6819                	bltz	s0,6028 <verify_data+0x1ac8>
    5fa4:	a664                	and	s1,a2,s1
    5fa6:	681f 3f29 682e      	0x682e3f29681f
    5fac:	778c                	0x778c
    5fae:	684e                	bnez	s0,6060 <verify_data+0x1b00>
    5fb0:	e6c8                	0xe6c8
    5fb2:	6851                	bltz	s0,6046 <verify_data+0x1ae6>
    5fb4:	a4ba                	lui	s1,0xe
    5fb6:	6855                	bltz	s0,606a <verify_data+0x1b0a>
    5fb8:	685d77c3          	fmadd.s	fa5,fs10,ft5,fa3
    5fbc:	686ebe97          	auipc	t4,0x686eb
    5fc0:	42d6                	beqz	a3,5ff4 <verify_data+0x1a94>
    5fc2:	6872                	bnez	s0,605e <verify_data+0x1afe>
    5fc4:	86aa                	li	a3,10
    5fc6:	6876                	bnez	s0,6082 <verify_data+0x1b22>
    5fc8:	9209                	addi	a0,a2,-4
    5fca:	687e                	bnez	s0,6088 <verify_data+0x1b28>
    5fcc:	6892be83          	0x6892be83
    5fd0:	4cb0                	sw	a2,88(s1)
    5fd2:	689e                	bnez	s1,6078 <verify_data+0x1b18>
    5fd4:	1f5a                	j	5f6a <verify_data+0x1a0a>
    5fd6:	68ba                	bnez	s1,6064 <verify_data+0x1b04>
    5fd8:	6041                	bltz	s0,5fe8 <verify_data+0x1a88>
    5fda:	68d4                	0x68d4
    5fdc:	68f47697          	auipc	a3,0x68f47
    5fe0:	24b9                	srli	s1,s1,0xe
    5fe2:	3a4f68fb          	0x3a4f68fb
    5fe6:	6921                	bltz	a0,606e <verify_data+0x1b0e>
    5fe8:	29f1                	srli	s3,s3,0x1c
    5fea:	2dd1692b          	0x2dd1692b
    5fee:	6939                	bltz	a0,607c <verify_data+0x1b1c>
    5ff0:	6e7e                	bnez	a2,60ee <verify_data+0x1b8e>
    5ff2:	6940                	0x6940
    5ff4:	1426                	j	5a1c <verify_data+0x14bc>
    5ff6:	6958                	0x6958
    5ff8:	ac82                	jalr	s9
    5ffa:	696d                	bltz	a0,60b4 <verify_data+0x1b54>
    5ffc:	a53a                	lui	a0,0xe
    5ffe:	b03a6987          	0xb03a6987
    6002:	6998                	0x6998
    6004:	6b32                	bnez	a4,6090 <verify_data+0x1b30>
    6006:	699d                	bltz	a1,60ac <verify_data+0x1b4c>
    6008:	2da4                	srai	s11,s11,0x9
    600a:	69aa                	bnez	a1,6094 <verify_data+0x1b34>
    600c:	69c06c73          	csrrs	s8,0x69c,0
    6010:	0ac0                	mv	s5,a6
    6012:	404869c7          	fmsub.s	fs3,fa6,ft4,fs0,unknown
    6016:	69c9                	bltz	a1,60a8 <verify_data+0x1b48>
    6018:	679c                	sll	a5,a5,a5
    601a:	69d1                	bltz	a1,60ae <verify_data+0x1b4e>
    601c:	a229                	addi	a0,sp,264
    601e:	69d5                	bltz	a1,60d2 <verify_data+0x1b72>
    6020:	a2f9                	addi	a4,sp,332
    6022:	69d8                	0x69d8
    6024:	cf72                	addi	t5,t5,28
    6026:	69e2                	bnez	a1,60be <verify_data+0x1b5e>
    6028:	bb2a                	lui	s6,0xfffea
    602a:	6e2669e7          	0x6e2669e7
    602e:	6a02                	bnez	a2,60ae <verify_data+0x1b4e>
    6030:	7850                	0x7850
    6032:	809e6a2b          	0x809e6a2b
    6036:	6a35                	bltz	a2,60e2 <verify_data+0x1b82>
    6038:	fa95                	bgez	a3,5fdc <verify_data+0x1a7c>
    603a:	6a49                	bltz	a2,60cc <verify_data+0x1b6c>
    603c:	cfe1                	lw	t6,24(sp)
    603e:	6a54                	0x6a54
    6040:	182e                	j	5c6a <verify_data+0x170a>
    6042:	6a60                	0x6a60
    6044:	9f9f 6a88 6f2a      	0x6f2a6a889f9f
    604a:	6a89                	bltz	a3,60cc <verify_data+0x1b6c>
    604c:	6a98a6bb          	0x6a98a6bb
    6050:	bdbc                	sub	a5,a1,a5
    6052:	6ab9                	bltz	a3,60e0 <verify_data+0x1b80>
    6054:	4a64                	sw	s1,84(a2)
    6056:	ec2c6adb          	0xec2c6adb
    605a:	6ae1                	bltz	a3,60f2 <verify_data+0x1b92>
    605c:	6a98                	0x6a98
    605e:	6aea                	bnez	a3,60f8 <verify_data+0x1b98>
    6060:	d36e                	addi	t1,t1,-5
    6062:	6b25                	bltz	a4,610a <verify_data+0x1baa>
    6064:	c5fc                	lw	a5,76(a1)
    6066:	6b3d                	bltz	a4,6114 <verify_data+0x1bb4>
    6068:	a94d                	addi	a1,sp,148
    606a:	6b4c                	0x6b4c
    606c:	6b51cb4f          	fnmadd.d	fs6,ft3,fs5,fa3,rmm
    6070:	6b6b5947          	fmsub.d	fs2,fs6,fs6,fa3,unknown
    6074:	56e2                	beqz	a3,5fcc <verify_data+0x1a6c>
    6076:	6b6d                	bltz	a4,6130 <verify_data+0x1bd0>
    6078:	6522                	bnez	a0,60c0 <verify_data+0x1b60>
    607a:	6b7a                	bnez	a4,6118 <verify_data+0x1bb8>
    607c:	5071                	sw	t3,32(sp)
    607e:	6ba6                	bnez	a5,6126 <verify_data+0x1bc6>
    6080:	f150                	0xf150
    6082:	6bb5                	bltz	a5,612e <verify_data+0x1bce>
    6084:	6bb744cb          	fnmsub.d	fs1,fa4,fs11,fa3,rmm
    6088:	845e                	li	s0,23
    608a:	02a06bc7          	fmsub.d	fs7,ft0,fa0,ft0,unknown
    608e:	f0ee6bf3          	csrrs	s7,0xf0e,28
    6092:	6c34                	srl	a3,s0,a3
    6094:	6c47c04b          	fnmsub.h	ft0,fa5,ft4,fa3,rmm
    6098:	9a26                	li	s4,-23
    609a:	4a886c4f          	fnmadd.d	fs8,fa6,fs0,fs1,unknown
    609e:	6c7f                	0x6c7f
    60a0:	9de8                	0x9de8
    60a2:	6c91                	bltz	s1,6166 <verify_data+0x1c06>
    60a4:	cb9d                	lw	s7,196(sp)
    60a6:	6c92                	bnez	s1,616a <verify_data+0x1c0a>
    60a8:	c854                	lw	a3,20(s0)
    60aa:	6c9d                	bltz	s1,6190 <verify_data+0x1c30>
    60ac:	da28                	lw	a0,112(a2)
    60ae:	6ca2                	bnez	s1,6176 <verify_data+0x1c16>
    60b0:	9502                	li	a0,-32
    60b2:	6ca9                	bltz	s1,617c <verify_data+0x1c1c>
    60b4:	8e32                	li	t3,12
    60b6:	6cdf 2228 6ce0      	0x6ce022286cdf
    60bc:	6ce3fc13          	andi	s8,t2,1742
    60c0:	c129                	lw	sp,136(sp)
    60c2:	a8146cef          	jal	s9,fff4cb42 <_gp+0xfff45de2>
    60c6:	6d49                	bltz	a0,6198 <verify_data+0x1c38>
    60c8:	929f 6d4a 14f7      	0x14f76d4a929f
    60ce:	82826d53          	0x82826d53
    60d2:	6d54                	slt	a3,a0,a3
    60d4:	6d54fafb          	0x6d54fafb
    60d8:	7909                	bltz	a0,605a <verify_data+0x1afa>
    60da:	6d55                	bltz	a0,61ce <verify_data+0x1c6e>
    60dc:	8b9f 6d56 a105      	0xa1056d568b9f
    60e2:	6d5d                	bltz	a0,61d8 <verify_data+0x1c78>
    60e4:	fa38                	0xfa38
    60e6:	6d62                	bnez	a0,61be <verify_data+0x1c5e>
    60e8:	003e                	j	6116 <verify_data+0x1bb6>
    60ea:	6d6d                	bltz	a0,61e4 <verify_data+0x1c84>
    60ec:	ccb2                	addi	s9,s9,12
    60ee:	6d6e                	bnez	a0,61e8 <verify_data+0x1c88>
    60f0:	f5ee                	andi	a1,a1,-5
    60f2:	6d70                	sltu	a2,a0,a2
    60f4:	ac1f 6d82 fbd7      	0xfbd76d82ac1f
    60fa:	6d90                	sll	a2,a1,a2
    60fc:	6d9de20f          	0x6d9de20f
    6100:	6db9d8c7          	fmsub.h	fa7,fs3,fs11,fa3,unknown
    6104:	f7a0                	0xf7a0
    6106:	6e10                	sll	a2,a2,a2
    6108:	6e24d8eb          	0x6e24d8eb
    610c:	a2ea                	lui	t0,0x1a
    610e:	6e30                	srl	a2,a2,a2
    6110:	6e3d0eeb          	0x6e3d0eeb
    6114:	6e3f8a0b          	0x6e3f8a0b
    6118:	d051                	0xd051
    611a:	0dc06e3f 89186e66 	0x89186e660dc06e3f
    6122:	6e96                	bnez	a3,6206 <verify_data+0x1ca6>
    6124:	8f2e                	li	t5,11
    6126:	6ec8                	slt	a0,a3,a0
    6128:	1281                	slli	t0,t0,0x20
    612a:	6ecd                	bltz	a3,621c <verify_data+0x1cbc>
    612c:	82f5                	andi	a3,a3,0
    612e:	6ed8                	slt	a4,a3,a4
    6130:	fea4                	0xfea4
    6132:	28036ee3          	bltu	t1,zero,6bce <_end+0x5ce>
    6136:	6eea                	bnez	a3,6210 <verify_data+0x1cb0>
    6138:	3c64                	srai	s8,s8,0x39
    613a:	6f09                	bltz	a4,61fc <verify_data+0x1c9c>
    613c:	ec4e                	andi	s8,s8,19
    613e:	6f28                	srl	a0,a4,a0
    6140:	6f3a5657          	0x6f3a5657
    6144:	bc8d                	addi	a1,sp,624
    6146:	6f59                	bltz	a4,621c <verify_data+0x1cbc>
    6148:	d541                	lw	a0,48(sp)
    614a:	b5926f5b          	0xb5926f5b
    614e:	6f6a                	bnez	a4,6228 <verify_data+0x1cc8>
    6150:	6f793433          	0x6f793433
    6154:	0ec2                	j	68a4 <_end+0x2a4>
    6156:	1d7a6f83          	0x1d7a6f83
    615a:	6f86                	bnez	a5,623a <verify_data+0x1cda>
    615c:	a3d2                	lui	t2,0x14
    615e:	73bb6f8f          	0x73bb6f8f
    6162:	6fb1                	bltz	a5,622e <verify_data+0x1cce>
    6164:	6fb360db          	0x6fb360db
    6168:	6fc00817          	auipc	a6,0x6fc00
    616c:	6241                	bltz	a2,617c <verify_data+0x1c1c>
    616e:	6fd5                	bltz	a5,6262 <verify_data+0x1d02>
    6170:	e188                	0xe188
    6172:	a4ac6ff3          	csrrs	t6,0xa4a,24
    6176:	6ff6                	bnez	a5,6272 <verify_data+0x1d12>
    6178:	7008f7cb          	fnmsub.s	fa5,fa7,ft0,fa4
    617c:	e7fa                	andi	a5,a5,30
    617e:	7015                	bltz	s0,60a2 <verify_data+0x1b42>
    6180:	701755cb          	fnmsub.s	fa1,fa4,ft1,fa4,unknown
    6184:	a7de                	lui	a5,0x17
    6186:	7021                	bltz	s0,608e <verify_data+0x1b2e>
    6188:	e0a1                	bgez	s1,6190 <verify_data+0x1c30>
    618a:	703e                	bnez	s0,60b8 <verify_data+0x1b58>
    618c:	8c1c                	sub	s8,s8,t2
    618e:	ed6c704b          	fnmsub.h	ft0,fs8,fs6,ft9
    6192:	706e                	bnez	s0,60cc <verify_data+0x1b6c>
    6194:	70b4af37          	lui	t5,0x70b4a
    6198:	6f0e                	bnez	a4,627a <verify_data+0x1d1a>
    619a:	70b5                	bltz	s1,60c6 <verify_data+0x1b66>
    619c:	fc69                	bgez	s0,6176 <verify_data+0x1c16>
    619e:	2dc170bf 482e70c4 	0x482e70c42dc170bf
    61a6:	584070cb          	fnmsub.s	ft1,ft0,ft4,fa1
    61aa:	70d6                	bnez	s1,60de <verify_data+0x1b7e>
    61ac:	3381                	srli	t2,t2,0x20
    61ae:	7111                	bltz	a0,60b2 <verify_data+0x1b52>
    61b0:	711c785b          	0x711c785b
    61b4:	c500                	lw	s0,8(a0)
    61b6:	711f 12ec 712a      	0x712a12ec711f
    61bc:	71422f0f          	0x71422f0f
    61c0:	71490dbf 7157291f 	0x7157291f71490dbf
    61c8:	df4c                	lw	a1,60(a4)
    61ca:	7165                	bltz	a0,6102 <verify_data+0x1ba2>
    61cc:	4d82                	beqz	a1,628c <verify_data+0x1d2c>
    61ce:	74f47167          	0x74f47167
    61d2:	7180                	0x7180
    61d4:	94e1                	andi	s0,s1,-3
    61d6:	7184                	0x7184
    61d8:	88e1                	andi	s0,s1,2
    61da:	7185                	bltz	a1,60fa <verify_data+0x1b9a>
    61dc:	7f30                	0x7f30
    61de:	7188                	0x7188
    61e0:	420c                	sw	a1,0(a2)
    61e2:	7190                	0x7190
    61e4:	86fc                	sub	a3,a3,t6
    61e6:	71a0                	0x71a0
    61e8:	9e52                	li	t3,-12
    61ea:	71b6                	bnez	a1,6116 <verify_data+0x1bb6>
    61ec:	328d                	srli	t0,t0,0x23
    61ee:	6c2a71bb          	0x6c2a71bb
    61f2:	364471d3          	0x364471d3
    61f6:	ceae71e7          	0xceae71e7
    61fa:	887a71f7          	0x887a71f7
    61fe:	720d                	bltz	a2,6120 <verify_data+0x1bc0>
    6200:	ee24                	0xee24
    6202:	720e                	bnez	a2,6124 <verify_data+0x1bc4>
    6204:	32b5                	srli	t0,t0,0x2d
    6206:	7214                	0x7214
    6208:	7220fd73          	csrrc	s10,0x722,1
    620c:	adc9                	addi	a0,sp,724
    620e:	7221                	bltz	a2,6116 <verify_data+0x1bb6>
    6210:	3950                	srai	s2,s2,0x34
    6212:	06f2722b          	0x6f2722b
    6216:	723d                	bltz	a2,6144 <verify_data+0x1be4>
    6218:	c58d                	lw	a1,192(sp)
    621a:	a9257257          	0xa9257257
    621e:	1f647273          	csrrc	tp,0x1f6,8
    6222:	5fea72b7          	lui	t0,0x5fea7
    6226:	496172d7          	0x496172d7
    622a:	72e1                	bltz	a3,6142 <verify_data+0x1be2>
    622c:	ac02                	jalr	s8
    622e:	58a272ef          	jal	t0,2d7b8 <_gp+0x26a58>
    6232:	90f072f3          	csrrc	t0,0x90f,0
    6236:	e6287313          	andi	t1,a6,-414
    623a:	7316                	bnez	a4,615e <verify_data+0x1bfe>
    623c:	0655                	slli	a2,a2,0x15
    623e:	731d                	bltz	a4,6164 <verify_data+0x1c04>
    6240:	4038                	sw	a4,64(s0)
    6242:	7320                	0x7320
    6244:	a425                	addi	s1,sp,520
    6246:	7329                	bltz	a4,6150 <verify_data+0x1bf0>
    6248:	5cd4                	sw	a3,60(s1)
    624a:	53ad733f e6707345 	0xe670734553ad733f
    6252:	7359                	bltz	a4,6168 <verify_data+0x1c08>
    6254:	736f35b7          	lui	a1,0x736f3
    6258:	73877afb          	0x73877afb
    625c:	739d378b          	0x739d378b
    6260:	eeb2                	andi	t4,t4,12
    6262:	73c1                	bltz	a5,6172 <verify_data+0x1c12>
    6264:	ee10                	0xee10
    6266:	73d1                	bltz	a5,617a <verify_data+0x1c1a>
    6268:	73d9c2c7          	fmsub.d	ft5,fs3,ft9,fa4,rmm
    626c:	73e9750b          	0x73e9750b
    6270:	0760                	mv	a4,s8
    6272:	73f0                	0x73f0
    6274:	aae2                	lui	s5,0x18
    6276:	73fd                	bltz	a5,61b4 <verify_data+0x1c54>
    6278:	fa75                	bgez	a2,6234 <verify_data+0x1cd4>
    627a:	741d                	bltz	s0,61e0 <verify_data+0x1c80>
    627c:	1086                	j	5adc <verify_data+0x157c>
    627e:	7439                	bltz	s0,61cc <verify_data+0x1c6c>
    6280:	8909                	addi	a0,a0,2
    6282:	743c                	0x743c
    6284:	744d6397          	auipc	t2,0x744d6
    6288:	dd6a                	addi	s10,s10,-6
    628a:	b729745b          	0xb729745b
    628e:	745e                	bnez	s0,6204 <verify_data+0x1ca4>
    6290:	7465                	bltz	s0,6208 <verify_data+0x1ca8>
    6292:	7465                	bltz	s0,620a <verify_data+0x1caa>
    6294:	4bc0                	sw	s0,20(a5)
    6296:	7398746f          	jal	s0,8e1ce <_gp+0x8746e>
    629a:	7476                	bnez	s0,6216 <verify_data+0x1cb6>
    629c:	748d9613          	0x748d9613
    62a0:	8ffa                	li	t6,30
    62a2:	74b0                	0x74b0
    62a4:	d7c8                	lw	a0,44(a5)
    62a6:	74b2                	bnez	s1,61f2 <verify_data+0x1c92>
    62a8:	74bac3d7          	0x74bac3d7
    62ac:	5bd8                	sw	a4,52(a5)
    62ae:	6dec74c7          	fmsub.h	fs1,fs8,ft10,fa3
    62b2:	74c8                	0x74c8
    62b4:	f214                	0xf214
    62b6:	5c8374eb          	0x5c8374eb
    62ba:	74ec                	0x74ec
    62bc:	43cd                	sw	s3,196(sp)
    62be:	74fc                	0x74fc
    62c0:	d010                	lw	a2,32(s0)
    62c2:	7501                	bltz	a0,6202 <verify_data+0x1ca2>
    62c4:	ff5d                	bgez	a4,62ba <verify_data+0x1d5a>
    62c6:	7524                	0x7524
    62c8:	91ec                	0x91ec
    62ca:	752c                	0x752c
    62cc:	cea2                	addi	t4,t4,8
    62ce:	7548                	0x7548
    62d0:	7556939b          	0x7556939b
    62d4:	ce81                	lw	t4,0(sp)
    62d6:	7556                	bnez	a0,624a <verify_data+0x1cea>
    62d8:	ae6e                	lui	t3,0x1b
    62da:	fa5f7567          	0xfa5f7567
    62de:	76de7577          	0x76de7577
    62e2:	7582                	bnez	a1,6222 <verify_data+0x1cc2>
    62e4:	10d0                	add	ra,ra,s4
    62e6:	7585                	bltz	a1,6246 <verify_data+0x1ce6>
    62e8:	d4b4                	lw	a3,104(s1)
    62ea:	803b75e3          	bleu	gp,s6,5af4 <verify_data+0x1594>
    62ee:	7612                	bnez	a2,6232 <verify_data+0x1cd2>
    62f0:	01e6                	j	63e8 <verify_data+0x1e88>
    62f2:	f891761b          	0xf891761b
    62f6:	a0507637          	lui	a2,0xa0507
    62fa:	c41b7643          	fmadd.h	fa2,fs6,ft1,fs8
    62fe:	5c327643          	fmadd.h	fa2,ft4,ft3,fa1
    6302:	765e                	bnez	a2,6278 <verify_data+0x1d18>
    6304:	039c                	mv	t2,t2
    6306:	766e                	bnez	a2,6280 <verify_data+0x1d20>
    6308:	66c4                	slt	a3,a3,s1
    630a:	7691                	bltz	a3,624e <verify_data+0x1cee>
    630c:	76c9de3b          	0x76c9de3b
    6310:	76e02b87          	flw	fs7,1902(zero)
    6314:	770d9d97          	auipc	s11,0x770d9
    6318:	b4d1                	addi	a2,sp,612
    631a:	7745                	bltz	a4,628a <verify_data+0x1d2a>
    631c:	8a60                	sub	s4,s4,s8
    631e:	7761                	bltz	a4,6276 <verify_data+0x1d16>
    6320:	c005                	0xc005
    6322:	777c                	0x777c
    6324:	5dbc                	sw	a5,120(a1)
    6326:	777e                	bnez	a4,62a4 <verify_data+0x1d44>
    6328:	3159                	srli	sp,sp,0x36
    632a:	7782                	bnez	a5,626a <verify_data+0x1d0a>
    632c:	d711                	lw	a4,36(sp)
    632e:	56c3778b          	0x56c3778b
    6332:	778e                	bnez	a5,6294 <verify_data+0x1d34>
    6334:	0736                	j	66e0 <_end+0xe0>
    6336:	7796                	bnez	a5,629a <verify_data+0x1d3a>
    6338:	779e33eb          	0x779e33eb
    633c:	a4f9                	addi	a4,sp,588
    633e:	77c2                	bnez	a5,628e <verify_data+0x1d2e>
    6340:	8b1a                	li	s6,6
    6342:	77d6                	bnez	a5,62b6 <verify_data+0x1d56>
    6344:	0db6                	j	6a30 <_end+0x430>
    6346:	77ea                	bnez	a5,62a0 <verify_data+0x1d40>
    6348:	96b1                	xori	a2,a3,-3
    634a:	780c                	0x780c
    634c:	2c8c                	srai	s9,s9,0x3
    634e:	780d                	bltz	s0,62f0 <verify_data+0x1d90>
    6350:	78276307          	0x78276307
    6354:	3012                	jal	5b58 <verify_data+0x15f8>
    6356:	782c                	0x782c
    6358:	d041                	0xd041
    635a:	7830                	0x7830
    635c:	783be667          	0x783be667
    6360:	5ebc                	sw	a5,120(a3)
    6362:	784d                	bltz	s0,6314 <verify_data+0x1db4>
    6364:	b865                	addi	s1,sp,60
    6366:	7889                	bltz	s1,62e8 <verify_data+0x1d88>
    6368:	1f55                	slli	t5,t5,0x35
    636a:	7894                	0x7894
    636c:	23fa                	jal	654a <verify_data+0x1fea>
    636e:	789c                	0x789c
    6370:	d08a                	addi	ra,ra,-30
    6372:	78b0                	0x78b0
    6374:	5dae                	beqz	a1,635e <verify_data+0x1dfe>
    6376:	78d8                	0x78d8
    6378:	fd24                	0xfd24
    637a:	78dd                	bltz	s1,6330 <verify_data+0x1dd0>
    637c:	35aa                	jal	5e46 <verify_data+0x18e6>
    637e:	78de                	bnez	s1,6334 <verify_data+0x1dd4>
    6380:	7171                	bltz	a0,629c <verify_data+0x1d3c>
    6382:	78df 9a07 78e2      	0x78e29a0778df
    6388:	78f220af          	0x78f220af
    638c:	f786                	andi	a5,a5,-31
    638e:	78fd                	bltz	s1,634c <verify_data+0x1dec>
    6390:	2c44                	srai	s8,s8,0x11
    6392:	792d                	bltz	a0,633c <verify_data+0x1ddc>
    6394:	c459                	lw	s0,148(sp)
    6396:	7939                	bltz	a0,6324 <verify_data+0x1dc4>
    6398:	1798                	add	a5,a5,t1
    639a:	7948                	0x7948
    639c:	d530                	lw	a2,104(a0)
    639e:	574d795b          	0x574d795b
    63a2:	7966                	bnez	a0,635a <verify_data+0x1dfa>
    63a4:	ee36                	andi	t3,t3,13
    63a6:	796c                	0x796c
    63a8:	89e9                	andi	a0,a1,2
    63aa:	de277987          	0xde277987
    63ae:	7988                	0x7988
    63b0:	79b5933b          	0x79b5933b
    63b4:	79c39977          	0x79c39977
    63b8:	35d0                	srai	a1,a1,0x34
    63ba:	79d5                	bltz	a1,636e <verify_data+0x1e0e>
    63bc:	79ea714f          	fnmadd.s	ft2,fs4,ft10,fa5
    63c0:	c122                	addi	sp,sp,8
    63c2:	79f0                	0x79f0
    63c4:	135a                	j	5d5a <verify_data+0x17fa>
    63c6:	79ff                	0x79ff
    63c8:	d7ff                	0xd7ff
    63ca:	7a02                	bnez	a2,634a <verify_data+0x1dea>
    63cc:	7a0e7c57          	0x7a0e7c57
    63d0:	2399                	srli	t2,t2,0x6
    63d2:	7a15                	bltz	a2,6376 <verify_data+0x1e16>
    63d4:	8d0d                	addi	a1,a0,3
    63d6:	7a1a                	bnez	a2,635c <verify_data+0x1dfc>
    63d8:	ec61                	bgez	s0,64b0 <verify_data+0x1f50>
    63da:	f0f97a2b          	0xf0f97a2b
    63de:	0e127a53          	0xe127a53
    63e2:	7a54                	0x7a54
    63e4:	7a54488b          	0x7a54488b
    63e8:	039a                	j	65ae <counter_names+0x2>
    63ea:	7a6c                	0x7a6c
    63ec:	cbd4                	lw	a3,20(a5)
    63ee:	7a70                	0x7a70
    63f0:	c442                	addi	s0,s0,16
    63f2:	7a88                	0x7a88
    63f4:	e546                	andi	a0,a0,17
    63f6:	939c7ad7          	0x939c7ad7
    63fa:	7ada                	bnez	a3,6390 <verify_data+0x1e30>
    63fc:	7afd1cd3          	0x7afd1cd3
    6400:	5c90                	sw	a2,56(s1)
    6402:	7b08                	0x7b08
    6404:	d916                	addi	s2,s2,-27
    6406:	7b0a                	bnez	a4,6388 <verify_data+0x1e28>
    6408:	7b2b5f8b          	0x7b2b5f8b
    640c:	de31                	lw	t3,44(sp)
    640e:	7b31                	bltz	a4,639a <verify_data+0x1e3a>
    6410:	7b35733f 7b3b8ae9 	0x7b3b8ae97b35733f
    6418:	69d2                	bnez	a1,64ac <verify_data+0x1f4c>
    641a:	7b48                	0x7b48
    641c:	84c1                	ori	s0,s1,1
    641e:	7b4e                	bnez	a4,63d0 <verify_data+0x1e70>
    6420:	26e9                	srli	a3,a3,0x1a
    6422:	7b55                	bltz	a4,63d6 <verify_data+0x1e76>
    6424:	d215                	lw	tp,100(sp)
    6426:	7b68                	0x7b68
    6428:	7b86eff3          	csrrs	t6,0x7b8,13
    642c:	d676                	addi	a2,a2,-3
    642e:	7b96                	bnez	a5,63d2 <verify_data+0x1e72>
    6430:	8d3a                	li	s10,14
    6432:	678e7bab          	0x678e7bab
    6436:	7bac                	0x7bac
    6438:	7bc697fb          	0x7bc697fb
    643c:	b108                	add	a2,a0,a0
    643e:	7bd6                	bnez	a5,63f2 <verify_data+0x1e92>
    6440:	7be3d2d7          	0x7be3d2d7
    6444:	8a2c                	sub	s4,s4,a1
    6446:	7bf2                	bnez	a5,63e2 <verify_data+0x1e82>
    6448:	80f5                	andi	a3,s1,0
    644a:	7c05                	bltz	s0,642a <verify_data+0x1eca>
    644c:	da01                	lw	s4,32(sp)
    644e:	7c11                	bltz	s0,6412 <verify_data+0x1eb2>
    6450:	67a4                	srl	a5,a5,s1
    6452:	7c24                	0x7c24
    6454:	7c45df3b          	0x7c45df3b
    6458:	8234                	sub	tp,tp,a3
    645a:	2dab7c4b          	fnmsub.h	fs8,fs6,fs10,ft5
    645e:	27d67c6f          	jal	s8,6deda <_gp+0x6717a>
    6462:	7c7d                	bltz	s0,6460 <verify_data+0x1f00>
    6464:	5be8                	sw	a0,116(a5)
    6466:	7c80                	0x7c80
    6468:	ee66                	andi	t3,t3,25
    646a:	7c82                	bnez	s1,642a <verify_data+0x1eca>
    646c:	7c9296e3          	bne	t0,s1,7438 <_gp+0x6d8>
    6470:	7c93425b          	0x7c93425b
    6474:	29ad                	srli	s3,s3,0xb
    6476:	91207c9b          	0x91207c9b
    647a:	4ee17c9b          	0x4ee17c9b
    647e:	7c9d                	bltz	s1,6464 <verify_data+0x1f04>
    6480:	ae2c                	sub	a1,a2,a1
    6482:	da267cab          	0xda267cab
    6486:	35837cc7          	fmsub.h	fs9,ft6,fs8,ft6
    648a:	7cd1                	bltz	s1,645e <verify_data+0x1efe>
    648c:	5531                	sw	a2,168(sp)
    648e:	7cd2                	bnez	s1,6462 <verify_data+0x1f02>
    6490:	ed64                	0xed64
    6492:	7cd8                	0x7cd8
    6494:	172d                	slli	a4,a4,0x2b
    6496:	7cdd                	bltz	s1,648c <verify_data+0x1f2c>
    6498:	8ed0                	sub	t4,t4,s4
    649a:	7cfe                	bnez	s1,6498 <verify_data+0x1f38>
    649c:	7d199933          	0x7d199933
    64a0:	0d94                	mv	s11,t0
    64a2:	d9767d33          	0xd9767d33
    64a6:	7d5c                	0x7d5c
    64a8:	a826                	lui	a6,0x9
    64aa:	7d7c                	0x7d7c
    64ac:	7dc1                	bltz	a1,647c <verify_data+0x1f1c>
    64ae:	7d81                	bltz	a1,646e <verify_data+0x1f0e>
    64b0:	b7c8                	or	a3,a5,a0
    64b2:	7d82                	bnez	a1,6472 <verify_data+0x1f12>
    64b4:	2f96                	jal	6c98 <_end+0x698>
    64b6:	7d84                	0x7d84
    64b8:	3b66                	jal	6270 <verify_data+0x1d10>
    64ba:	7dac                	0x7dac
    64bc:	97d6                	li	a5,-11
    64be:	7db5                	bltz	a1,64aa <verify_data+0x1f4a>
    64c0:	7dbce1f7          	0x7dbce1f7
    64c4:	c751                	lw	a4,20(sp)
    64c6:	7dc1                	bltz	a1,6496 <verify_data+0x1f36>
    64c8:	7558                	0x7558
    64ca:	7df8                	0x7df8
    64cc:	7e0a0b8f          	0x7e0a0b8f
    64d0:	7e1723f7          	0x7e1723f7
    64d4:	287c                	srai	a6,a6,0x1f
    64d6:	48c77e27          	0x48c77e27
    64da:	7e3c                	0x7e3c
    64dc:	3888                	srai	a7,a7,0x22
    64de:	7e41                	bltz	a2,64ae <verify_data+0x1f4e>
    64e0:	b8ee                	lui	a7,0xffffb
    64e2:	7e44                	0x7e44
    64e4:	69c4                	0x69c4
    64e6:	7e4a                	bnez	a2,64b8 <verify_data+0x1f58>
    64e8:	a6bd                	addi	a5,sp,840
    64ea:	7e4a                	bnez	a2,64bc <verify_data+0x1f5c>
    64ec:	de88                	lw	a0,56(a3)
    64ee:	282b7e53          	0x282b7e53
    64f2:	7e7f                	0x7e7f
    64f4:	2a5f 7e88 3314      	0x33147e882a5f
    64fa:	7e90                	0x7e90
    64fc:	1b69                	slli	s6,s6,0x3a
    64fe:	7ea5                	bltz	a3,64e6 <verify_data+0x1f86>
    6500:	8eb9                	xori	a4,a3,3
    6502:	a1f87eb7          	lui	t4,0xa1f87
    6506:	7eb8                	0x7eb8
    6508:	8b3e                	li	s6,15
    650a:	7ec6                	bnez	a3,64fa <verify_data+0x1f9a>
    650c:	7ec6e397          	auipc	t2,0x7ec6e
    6510:	e55e                	andi	a0,a0,23
    6512:	50687ed7          	0x50687ed7
    6516:	cc317ee3          	bleu	gp,sp,61f2 <verify_data+0x1c92>
    651a:	7eed                	bltz	a3,6514 <verify_data+0x1fb4>
    651c:	2954                	srai	s2,s2,0x15
    651e:	7ef4                	0x7ef4
    6520:	7ef912b7          	lui	t0,0x7ef91
    6524:	a5cd                	addi	a1,sp,708
    6526:	7f02                	bnez	a4,64e6 <verify_data+0x1f86>
    6528:	1831                	slli	a6,a6,0x2c
    652a:	7f10                	0x7f10
    652c:	a605                	addi	s1,sp,768
    652e:	7f10                	0x7f10
    6530:	0434                	mv	s0,a3
    6532:	7f24                	0x7f24
    6534:	c95e                	addi	s2,s2,23
    6536:	731f7f4b          	fnmsub.d	ft10,ft10,fa7,fa4
    653a:	7f8d                	bltz	a5,651c <verify_data+0x1fbc>
    653c:	3385                	srli	t2,t2,0x21
    653e:	58997f8f          	0x58997f8f
    6542:	7f99                	bltz	a5,6508 <verify_data+0x1fa8>
    6544:	1715                	slli	a4,a4,0x25
    6546:	7fa6                	bnez	a5,652e <verify_data+0x1fce>
    6548:	c8f2                	addi	a7,a7,28
    654a:	7fb1                	bltz	a5,6516 <verify_data+0x1fb6>
    654c:	8976                	li	s2,29
    654e:	7fc0                	0x7fc0
    6550:	d2d0                	lw	a2,36(a3)
    6552:	7fc0                	0x7fc0
    6554:	5d7f                	0x5d7f
    6556:	7fca                	bnez	a5,6528 <verify_data+0x1fc8>
    6558:	3900                	srai	s2,s2,0x20
    655a:	4e467fdb          	0x4e467fdb
    655e:	7fe8                	0x7fe8
