
qsort.riscv:     file format elf32-littleriscv


Disassembly of section .text:

00002000 <_start>:
    2000:	00000093          	li	ra,0
    2004:	00000113          	li	sp,0
    2008:	00000193          	li	gp,0
    200c:	00000213          	li	tp,0
    2010:	00000293          	li	t0,0
    2014:	00000313          	li	t1,0
    2018:	00000393          	li	t2,0
    201c:	00000413          	li	s0,0
    2020:	00000493          	li	s1,0
    2024:	00000513          	li	a0,0
    2028:	00000593          	li	a1,0
    202c:	00000613          	li	a2,0
    2030:	00000693          	li	a3,0
    2034:	00000713          	li	a4,0
    2038:	00000793          	li	a5,0
    203c:	00000813          	li	a6,0
    2040:	00000893          	li	a7,0
    2044:	00000913          	li	s2,0
    2048:	00000993          	li	s3,0
    204c:	00000a13          	li	s4,0
    2050:	00000a93          	li	s5,0
    2054:	00000b13          	li	s6,0
    2058:	00000b93          	li	s7,0
    205c:	00000c13          	li	s8,0
    2060:	00000c93          	li	s9,0
    2064:	00000d13          	li	s10,0
    2068:	00000d93          	li	s11,0
    206c:	00000e13          	li	t3,0
    2070:	00000e93          	li	t4,0
    2074:	00000f13          	li	t5,0
    2078:	00000f93          	li	t6,0
    207c:	50b02573          	csrr	a0,hartid
    2080:	fe051ee3          	bnez	a0,207c <_start+0x7c>
    2084:	00021117          	auipc	sp,0x21
    2088:	b8c10113          	addi	sp,sp,-1140 # 22c10 <stacktop>
    208c:	314000ef          	jal	23a0 <main>
    2090:	00000013          	nop
    2094:	00000013          	nop
    2098:	00000063          	b	2098 <_start+0x98>

0000209c <barrier>:
    209c:	0330000f          	fence	rw,rw
    20a0:	00022683          	lw	a3,0(tp) # 0 <threadsense.1375>
    20a4:	00023737          	lui	a4,0x23
    20a8:	c1470593          	addi	a1,a4,-1004 # 22c14 <count.1374>
    20ac:	0016b693          	seqz	a3,a3
    20b0:	00d22023          	sw	a3,0(tp) # 0 <threadsense.1375>
    20b4:	00100693          	li	a3,1
    20b8:	06d5a62f          	amoadd.w.sc	a2,a3,(a1)
    20bc:	000036b7          	lui	a3,0x3
    20c0:	c086a683          	lw	a3,-1016(a3) # 2c08 <_end>
    20c4:	fff68693          	addi	a3,a3,-1
    20c8:	00d60e63          	beq	a2,a3,20e4 <barrier+0x48>
    20cc:	00022683          	lw	a3,0(tp) # 0 <threadsense.1375>
    20d0:	00023737          	lui	a4,0x23
    20d4:	c1072783          	lw	a5,-1008(a4) # 22c10 <stacktop>
    20d8:	fed79ee3          	bne	a5,a3,20d4 <barrier+0x38>
    20dc:	0330000f          	fence	rw,rw
    20e0:	00008067          	ret
    20e4:	00022683          	lw	a3,0(tp) # 0 <threadsense.1375>
    20e8:	000237b7          	lui	a5,0x23
    20ec:	c0072a23          	sw	zero,-1004(a4)
    20f0:	c0d7a823          	sw	a3,-1008(a5) # 22c10 <stacktop>
    20f4:	0330000f          	fence	rw,rw
    20f8:	00008067          	ret

000020fc <finishTest>:
    20fc:	51e51073          	csrw	tohost,a0
    2100:	00008067          	ret

00002104 <setStats>:
    2104:	0c051073          	csrw	stats,a0
    2108:	00008067          	ret

0000210c <verify>:
    210c:	02a05e63          	blez	a0,2148 <verify+0x3c>
    2110:	0005a703          	lw	a4,0(a1)
    2114:	00062783          	lw	a5,0(a2)
    2118:	02f71c63          	bne	a4,a5,2150 <verify+0x44>
    211c:	00458593          	addi	a1,a1,4
    2120:	00460613          	addi	a2,a2,4
    2124:	00000793          	li	a5,0
    2128:	0180006f          	j	2140 <verify+0x34>
    212c:	0005a683          	lw	a3,0(a1)
    2130:	00062703          	lw	a4,0(a2)
    2134:	00458593          	addi	a1,a1,4
    2138:	00460613          	addi	a2,a2,4
    213c:	00e69a63          	bne	a3,a4,2150 <verify+0x44>
    2140:	00178793          	addi	a5,a5,1
    2144:	fea794e3          	bne	a5,a0,212c <verify+0x20>
    2148:	00100513          	li	a0,1
    214c:	00008067          	ret
    2150:	00200513          	li	a0,2
    2154:	00008067          	ret

00002158 <sort>:
    2158:	f2010113          	addi	sp,sp,-224
    215c:	400003b7          	lui	t2,0x40000
    2160:	0c812e23          	sw	s0,220(sp)
    2164:	fff38e13          	addi	t3,t2,-1 # 3fffffff <count.1374+0x3ffdd3eb>
    2168:	0c912c23          	sw	s1,216(sp)
    216c:	00050413          	mv	s0,a0
    2170:	00000f13          	li	t5,0
    2174:	00100293          	li	t0,1
    2178:	00600e93          	li	t4,6
    217c:	ffe38393          	addi	t2,t2,-2
    2180:	405407b3          	sub	a5,s0,t0
    2184:	08fecc63          	blt	t4,a5,221c <sort+0xc4>
    2188:	0682d263          	ble	s0,t0,21ec <sort+0x94>
    218c:	00229513          	slli	a0,t0,0x2
    2190:	00241893          	slli	a7,s0,0x2
    2194:	00a58533          	add	a0,a1,a0
    2198:	011588b3          	add	a7,a1,a7
    219c:	00028813          	mv	a6,t0
    21a0:	00052603          	lw	a2,0(a0)
    21a4:	00080713          	mv	a4,a6
    21a8:	02584663          	blt	a6,t0,21d4 <sort+0x7c>
    21ac:	ffc52683          	lw	a3,-4(a0)
    21b0:	1cd65063          	ble	a3,a2,2370 <sort+0x218>
    21b4:	00050793          	mv	a5,a0
    21b8:	00c0006f          	j	21c4 <sort+0x6c>
    21bc:	ffc7a683          	lw	a3,-4(a5)
    21c0:	00d65a63          	ble	a3,a2,21d4 <sort+0x7c>
    21c4:	ffc78793          	addi	a5,a5,-4
    21c8:	fff70713          	addi	a4,a4,-1
    21cc:	00d7a223          	sw	a3,4(a5)
    21d0:	fe5756e3          	ble	t0,a4,21bc <sort+0x64>
    21d4:	00271793          	slli	a5,a4,0x2
    21d8:	00f587b3          	add	a5,a1,a5
    21dc:	00450513          	addi	a0,a0,4
    21e0:	00c7a023          	sw	a2,0(a5)
    21e4:	00180813          	addi	a6,a6,1
    21e8:	fb151ce3          	bne	a0,a7,21a0 <sort+0x48>
    21ec:	1a0f0263          	beqz	t5,2390 <sort+0x238>
    21f0:	ffff0793          	addi	a5,t5,-1
    21f4:	002f1713          	slli	a4,t5,0x2
    21f8:	0d010513          	addi	a0,sp,208
    21fc:	00279793          	slli	a5,a5,0x2
    2200:	00f507b3          	add	a5,a0,a5
    2204:	00e50733          	add	a4,a0,a4
    2208:	f3872403          	lw	s0,-200(a4)
    220c:	f387a283          	lw	t0,-200(a5)
    2210:	ffef0f13          	addi	t5,t5,-2
    2214:	405407b3          	sub	a5,s0,t0
    2218:	f6fed8e3          	ble	a5,t4,2188 <sort+0x30>
    221c:	00828733          	add	a4,t0,s0
    2220:	40175713          	srai	a4,a4,0x1
    2224:	01c70733          	add	a4,a4,t3
    2228:	00229793          	slli	a5,t0,0x2
    222c:	00271713          	slli	a4,a4,0x2
    2230:	00e58733          	add	a4,a1,a4
    2234:	00f584b3          	add	s1,a1,a5
    2238:	00072803          	lw	a6,0(a4)
    223c:	0004a503          	lw	a0,0(s1)
    2240:	01c406b3          	add	a3,s0,t3
    2244:	00269693          	slli	a3,a3,0x2
    2248:	ffc78613          	addi	a2,a5,-4
    224c:	00a72023          	sw	a0,0(a4)
    2250:	00c58633          	add	a2,a1,a2
    2254:	0104a023          	sw	a6,0(s1)
    2258:	00d58733          	add	a4,a1,a3
    225c:	00062503          	lw	a0,0(a2)
    2260:	00072683          	lw	a3,0(a4)
    2264:	00a6da63          	ble	a0,a3,2278 <sort+0x120>
    2268:	00d62023          	sw	a3,0(a2)
    226c:	00a72023          	sw	a0,0(a4)
    2270:	0004a803          	lw	a6,0(s1)
    2274:	00050693          	mv	a3,a0
    2278:	0106d863          	ble	a6,a3,2288 <sort+0x130>
    227c:	00d4a023          	sw	a3,0(s1)
    2280:	01072023          	sw	a6,0(a4)
    2284:	0004a803          	lw	a6,0(s1)
    2288:	00062703          	lw	a4,0(a2)
    228c:	00e85863          	ble	a4,a6,229c <sort+0x144>
    2290:	01062023          	sw	a6,0(a2)
    2294:	00e4a023          	sw	a4,0(s1)
    2298:	00070813          	mv	a6,a4
    229c:	00478793          	addi	a5,a5,4
    22a0:	00128f93          	addi	t6,t0,1
    22a4:	00f58333          	add	t1,a1,a5
    22a8:	00040713          	mv	a4,s0
    22ac:	00032503          	lw	a0,0(t1)
    22b0:	001f8f93          	addi	t6,t6,1
    22b4:	03054e63          	blt	a0,a6,22f0 <sort+0x198>
    22b8:	007707b3          	add	a5,a4,t2
    22bc:	00279793          	slli	a5,a5,0x2
    22c0:	00f587b3          	add	a5,a1,a5
    22c4:	0080006f          	j	22cc <sort+0x174>
    22c8:	00068713          	mv	a4,a3
    22cc:	00078893          	mv	a7,a5
    22d0:	ffc78793          	addi	a5,a5,-4
    22d4:	0047a603          	lw	a2,4(a5)
    22d8:	fff70693          	addi	a3,a4,-1
    22dc:	fec846e3          	blt	a6,a2,22c8 <sort+0x170>
    22e0:	01f6cc63          	blt	a3,t6,22f8 <sort+0x1a0>
    22e4:	00c32023          	sw	a2,0(t1)
    22e8:	00068713          	mv	a4,a3
    22ec:	00a8a023          	sw	a0,0(a7)
    22f0:	00430313          	addi	t1,t1,4
    22f4:	fb9ff06f          	j	22ac <sort+0x154>
    22f8:	41f407b3          	sub	a5,s0,t6
    22fc:	00178793          	addi	a5,a5,1
    2300:	405686b3          	sub	a3,a3,t0
    2304:	00c4a023          	sw	a2,0(s1)
    2308:	002f0613          	addi	a2,t5,2
    230c:	0108a023          	sw	a6,0(a7)
    2310:	02d7c863          	blt	a5,a3,2340 <sort+0x1e8>
    2314:	001f0793          	addi	a5,t5,1
    2318:	0d010513          	addi	a0,sp,208
    231c:	00261693          	slli	a3,a2,0x2
    2320:	00279793          	slli	a5,a5,0x2
    2324:	00d506b3          	add	a3,a0,a3
    2328:	00f507b3          	add	a5,a0,a5
    232c:	f286ac23          	sw	s0,-200(a3)
    2330:	00060f13          	mv	t5,a2
    2334:	f3f7ac23          	sw	t6,-200(a5)
    2338:	ffe70413          	addi	s0,a4,-2
    233c:	e45ff06f          	j	2180 <sort+0x28>
    2340:	001f0793          	addi	a5,t5,1
    2344:	0d010513          	addi	a0,sp,208
    2348:	00261693          	slli	a3,a2,0x2
    234c:	00279793          	slli	a5,a5,0x2
    2350:	00d506b3          	add	a3,a0,a3
    2354:	ffe70713          	addi	a4,a4,-2
    2358:	00f507b3          	add	a5,a0,a5
    235c:	f2e6ac23          	sw	a4,-200(a3)
    2360:	00060f13          	mv	t5,a2
    2364:	f257ac23          	sw	t0,-200(a5)
    2368:	000f8293          	mv	t0,t6
    236c:	e15ff06f          	j	2180 <sort+0x28>
    2370:	00080713          	mv	a4,a6
    2374:	00271793          	slli	a5,a4,0x2
    2378:	00f587b3          	add	a5,a1,a5
    237c:	00450513          	addi	a0,a0,4
    2380:	00c7a023          	sw	a2,0(a5)
    2384:	00180813          	addi	a6,a6,1
    2388:	e1151ce3          	bne	a0,a7,21a0 <sort+0x48>
    238c:	e61ff06f          	j	21ec <sort+0x94>
    2390:	0dc12403          	lw	s0,220(sp)
    2394:	0d812483          	lw	s1,216(sp)
    2398:	0e010113          	addi	sp,sp,224
    239c:	00008067          	ret

Disassembly of section .text.startup:

000023a0 <main>:
    23a0:	ff010113          	addi	sp,sp,-16
    23a4:	00812423          	sw	s0,8(sp)
    23a8:	00002437          	lui	s0,0x2
    23ac:	43040413          	addi	s0,s0,1072 # 2430 <input_data>
    23b0:	0fa00513          	li	a0,250
    23b4:	00040593          	mv	a1,s0
    23b8:	00112623          	sw	ra,12(sp)
    23bc:	d9dff0ef          	jal	2158 <sort>
    23c0:	00100793          	li	a5,1
    23c4:	0c079073          	csrw	stats,a5
    23c8:	0fa00513          	li	a0,250
    23cc:	00040593          	mv	a1,s0
    23d0:	d89ff0ef          	jal	2158 <sort>
    23d4:	00000793          	li	a5,0
    23d8:	0c079073          	csrw	stats,a5
    23dc:	00003637          	lui	a2,0x3
    23e0:	00000793          	li	a5,0
    23e4:	81860613          	addi	a2,a2,-2024 # 2818 <verify_data>
    23e8:	3e800593          	li	a1,1000
    23ec:	0080006f          	j	23f4 <main+0x54>
    23f0:	02b78c63          	beq	a5,a1,2428 <main+0x88>
    23f4:	00f406b3          	add	a3,s0,a5
    23f8:	00f60733          	add	a4,a2,a5
    23fc:	0006a683          	lw	a3,0(a3)
    2400:	00072703          	lw	a4,0(a4)
    2404:	00478793          	addi	a5,a5,4
    2408:	fee684e3          	beq	a3,a4,23f0 <main+0x50>
    240c:	00200793          	li	a5,2
    2410:	51e79073          	csrw	tohost,a5
    2414:	00c12083          	lw	ra,12(sp)
    2418:	00000513          	li	a0,0
    241c:	00812403          	lw	s0,8(sp)
    2420:	01010113          	addi	sp,sp,16
    2424:	00008067          	ret
    2428:	00100793          	li	a5,1
    242c:	fe5ff06f          	j	2410 <main+0x70>

Disassembly of section .data:

00002430 <input_data>:
    2430:	0029                	0x29
    2432:	0000                	unimp
    2434:	01c6                	0x1c6
    2436:	0000                	unimp
    2438:	0341                	0x341
    243a:	0000                	unimp
    243c:	0000014f          	fnmadd.s	ft2,ft0,ft0,ft0,rne
    2440:	0234                	0x234
    2442:	0000                	unimp
    2444:	0001                	0x1
    2446:	0000                	unimp
    2448:	000000bb          	addw	ra,zero,zero
    244c:	03dd                	0x3dd
    244e:	0000                	unimp
    2450:	02ed                	0x2ed
    2452:	0000                	unimp
    2454:	016d                	0x16d
    2456:	0000                	unimp
    2458:	015e                	0x15e
    245a:	0000                	unimp
    245c:	023c                	0x23c
    245e:	0000                	unimp
    2460:	0084                	0x84
    2462:	0000                	unimp
    2464:	0040                	0x40
    2466:	0000                	unimp
    2468:	03b5                	0x3b5
    246a:	0000                	unimp
    246c:	0099                	0x99
    246e:	0000                	unimp
    2470:	0248                	0x248
    2472:	0000                	unimp
    2474:	00d8                	0xd8
    2476:	0000                	unimp
    2478:	0325                	0x325
    247a:	0000                	unimp
    247c:	008c                	0x8c
    247e:	0000                	unimp
    2480:	026d                	0x26d
    2482:	0000                	unimp
    2484:	00d2                	0xd2
    2486:	0000                	unimp
    2488:	0006                	0x6
    248a:	0000                	unimp
    248c:	023c                	0x23c
    248e:	0000                	unimp
    2490:	000003a3          	sb	zero,7(zero)
    2494:	00000153          	fadd.s	ft2,ft0,ft0,rne
    2498:	037a                	0x37a
    249a:	0000                	unimp
    249c:	0251                	0x251
    249e:	0000                	unimp
    24a0:	0188                	0x188
    24a2:	0000                	unimp
    24a4:	0382                	0x382
    24a6:	0000                	unimp
    24a8:	02b6                	0x2b6
    24aa:	0000                	unimp
    24ac:	00e4                	0xe4
    24ae:	0000                	unimp
    24b0:	03c1                	0x3c1
    24b2:	0000                	unimp
    24b4:	000c                	0xc
    24b6:	0000                	unimp
    24b8:	006e                	0x6e
    24ba:	0000                	unimp
    24bc:	00000373          	0x373
    24c0:	0074                	0x74
    24c2:	0000                	unimp
    24c4:	02ee                	0x2ee
    24c6:	0000                	unimp
    24c8:	0128                	0x128
    24ca:	0000                	unimp
    24cc:	0286                	0x286
    24ce:	0000                	unimp
    24d0:	01aa                	0x1aa
    24d2:	0000                	unimp
    24d4:	01f4                	0x1f4
    24d6:	0000                	unimp
    24d8:	013a                	0x13a
    24da:	0000                	unimp
    24dc:	01b4                	0x1b4
    24de:	0000                	unimp
    24e0:	00000293          	li	t0,0
    24e4:	02bd                	0x2bd
    24e6:	0000                	unimp
    24e8:	0306                	0x306
    24ea:	0000                	unimp
    24ec:	032c                	0x32c
    24ee:	0000                	unimp
    24f0:	0000013f 000003d5 	0x3d50000013f
    24f8:	02a6                	0x2a6
    24fa:	0000                	unimp
    24fc:	0096                	0x96
    24fe:	0000                	unimp
    2500:	0000036b          	0x36b
    2504:	02b8                	0x2b8
    2506:	0000                	unimp
    2508:	0178                	0x178
    250a:	0000                	unimp
    250c:	0234                	0x234
    250e:	0000                	unimp
    2510:	01da                	0x1da
    2512:	0000                	unimp
    2514:	0110                	0x110
    2516:	0000                	unimp
    2518:	03aa                	0x3aa
    251a:	0000                	unimp
    251c:	0102                	0x102
    251e:	0000                	unimp
    2520:	0000021b          	sext.w	tp,zero
    2524:	00000287          	0x287
    2528:	0239                	0x239
    252a:	0000                	unimp
    252c:	01fd                	0x1fd
    252e:	0000                	unimp
    2530:	000000cb          	fnmsub.s	ft1,ft0,ft0,ft0,rne
    2534:	0058                	0x58
    2536:	0000                	unimp
    2538:	0118                	0x118
    253a:	0000                	unimp
    253c:	000002bf 000002f7 	0x2f7000002bf
    2544:	029d                	0x29d
    2546:	0000                	unimp
    2548:	025e                	0x25e
    254a:	0000                	unimp
    254c:	00000177          	0x177
    2550:	01ff                	0x1ff
    2552:	0000                	unimp
    2554:	00000227          	0x227
    2558:	0291                	0x291
    255a:	0000                	unimp
    255c:	03a8                	0x3a8
    255e:	0000                	unimp
    2560:	000000c3          	fmadd.s	ft1,ft0,ft0,ft0,rne
    2564:	0250                	0x250
    2566:	0000                	unimp
    2568:	0051                	0x51
    256a:	0000                	unimp
    256c:	0239                	0x239
    256e:	0000                	unimp
    2570:	0000010b          	custom0	2,0,0,0
    2574:	03b8                	0x3b8
    2576:	0000                	unimp
    2578:	00e5                	0xe5
    257a:	0000                	unimp
    257c:	0320                	0x320
    257e:	0000                	unimp
    2580:	0151                	0x151
    2582:	0000                	unimp
    2584:	0248                	0x248
    2586:	0000                	unimp
    2588:	03b0                	0x3b0
    258a:	0000                	unimp
    258c:	00000283          	lb	t0,0(zero)
    2590:	0386                	0x386
    2592:	0000                	unimp
    2594:	0170                	0x170
    2596:	0000                	unimp
    2598:	00f1                	0xf1
    259a:	0000                	unimp
    259c:	01e9                	0x1e9
    259e:	0000                	unimp
    25a0:	0391                	0x391
    25a2:	0000                	unimp
    25a4:	0148                	0x148
    25a6:	0000                	unimp
    25a8:	033a                	0x33a
    25aa:	0000                	unimp
    25ac:	0139                	0x139
    25ae:	0000                	unimp
    25b0:	03a5                	0x3a5
    25b2:	0000                	unimp
    25b4:	0250                	0x250
    25b6:	0000                	unimp
    25b8:	03d9                	0x3d9
    25ba:	0000                	unimp
    25bc:	0184                	0x184
    25be:	0000                	unimp
    25c0:	000000c3          	fmadd.s	ft1,ft0,ft0,ft0,rne
    25c4:	021f 0000 03c0      	0x3c00000021f
    25ca:	0000                	unimp
    25cc:	0289                	0x289
    25ce:	0000                	unimp
    25d0:	0236                	0x236
    25d2:	0000                	unimp
    25d4:	000003d3          	fadd.s	ft7,ft0,ft0,rne
    25d8:	015e                	0x15e
    25da:	0000                	unimp
    25dc:	03e5                	0x3e5
    25de:	0000                	unimp
    25e0:	0289                	0x289
    25e2:	0000                	unimp
    25e4:	032e                	0x32e
    25e6:	0000                	unimp
    25e8:	0291                	0x291
    25ea:	0000                	unimp
    25ec:	0000004f          	fnmadd.s	ft0,ft0,ft0,ft0,rne
    25f0:	00b5                	0xb5
    25f2:	0000                	unimp
    25f4:	00d0                	0xd0
    25f6:	0000                	unimp
    25f8:	0000006f          	j	25f8 <input_data+0x1c8>
    25fc:	03e6                	0x3e6
    25fe:	0000                	unimp
    2600:	0000035b          	custom2	6,0,0,0
    2604:	0275                	0x275
    2606:	0000                	unimp
    2608:	0041                	0x41
    260a:	0000                	unimp
    260c:	0000034f          	fnmadd.s	ft6,ft0,ft0,ft0,rne
    2610:	0120                	0x120
    2612:	0000                	unimp
    2614:	02c0                	0x2c0
    2616:	0000                	unimp
    2618:	015d                	0x15d
    261a:	0000                	unimp
    261c:	03e5                	0x3e5
    261e:	0000                	unimp
    2620:	008d                	0x8d
    2622:	0000                	unimp
    2624:	00fd                	0xfd
    2626:	0000                	unimp
    2628:	0389                	0x389
    262a:	0000                	unimp
    262c:	000002cb          	fnmsub.s	ft5,ft0,ft0,ft0,rne
    2630:	0376                	0x376
    2632:	0000                	unimp
    2634:	01ae                	0x1ae
    2636:	0000                	unimp
    2638:	0108                	0x108
    263a:	0000                	unimp
    263c:	019f 0000 0240      	0x2400000019f
    2642:	0000                	unimp
    2644:	021a                	0x21a
    2646:	0000                	unimp
    2648:	000003d3          	fadd.s	ft7,ft0,ft0,rne
    264c:	02bc                	0x2bc
    264e:	0000                	unimp
    2650:	02f9                	0x2f9
    2652:	0000                	unimp
    2654:	0004                	0x4
    2656:	0000                	unimp
    2658:	00f1                	0xf1
    265a:	0000                	unimp
    265c:	01ee                	0x1ee
    265e:	0000                	unimp
    2660:	01de                	0x1de
    2662:	0000                	unimp
    2664:	0064                	0x64
    2666:	0000                	unimp
    2668:	000001f3          	0x1f3
    266c:	0360                	0x360
    266e:	0000                	unimp
    2670:	00000193          	li	gp,0
    2674:	02b5                	0x2b5
    2676:	0000                	unimp
    2678:	00de                	0xde
    267a:	0000                	unimp
    267c:	01a0                	0x1a0
    267e:	0000                	unimp
    2680:	01bc                	0x1bc
    2682:	0000                	unimp
    2684:	0128                	0x128
    2686:	0000                	unimp
    2688:	02d1                	0x2d1
    268a:	0000                	unimp
    268c:	011d                	0x11d
    268e:	0000                	unimp
    2690:	02a4                	0x2a4
    2692:	0000                	unimp
    2694:	026c                	0x26c
    2696:	0000                	unimp
    2698:	013d                	0x13d
    269a:	0000                	unimp
    269c:	004e                	0x4e
    269e:	0000                	unimp
    26a0:	00e0                	0xe0
    26a2:	0000                	unimp
    26a4:	015f 0000 03a9      	0x3a90000015f
    26aa:	0000                	unimp
    26ac:	021c                	0x21c
    26ae:	0000                	unimp
    26b0:	0120                	0x120
    26b2:	0000                	unimp
    26b4:	0286                	0x286
    26b6:	0000                	unimp
    26b8:	00000077          	0x77
    26bc:	00a9                	0xa9
    26be:	0000                	unimp
    26c0:	00000267          	jalr	tp,zero
    26c4:	0000020f          	0x20f
    26c8:	025e                	0x25e
    26ca:	0000                	unimp
    26cc:	0121                	0x121
    26ce:	0000                	unimp
    26d0:	0185                	0x185
    26d2:	0000                	unimp
    26d4:	031c                	0x31c
    26d6:	0000                	unimp
    26d8:	015f 0000 0321      	0x3210000015f
    26de:	0000                	unimp
    26e0:	000001c7          	fmsub.s	ft3,ft0,ft0,ft0,rne
    26e4:	02d0                	0x2d0
    26e6:	0000                	unimp
    26e8:	0116                	0x116
    26ea:	0000                	unimp
    26ec:	02f6                	0x2f6
    26ee:	0000                	unimp
    26f0:	0000016f          	jal	sp,26f0 <input_data+0x2c0>
    26f4:	02e9                	0x2e9
    26f6:	0000                	unimp
    26f8:	0166                	0x166
    26fa:	0000                	unimp
    26fc:	005c                	0x5c
    26fe:	0000                	unimp
    2700:	0248                	0x248
    2702:	0000                	unimp
    2704:	03dd                	0x3dd
    2706:	0000                	unimp
    2708:	003e                	0x3e
    270a:	0000                	unimp
    270c:	0000010f          	0x10f
    2710:	03d9                	0x3d9
    2712:	0000                	unimp
    2714:	0355                	0x355
    2716:	0000                	unimp
    2718:	00000193          	li	gp,0
    271c:	0314                	0x314
    271e:	0000                	unimp
    2720:	015a                	0x15a
    2722:	0000                	unimp
    2724:	00000213          	li	tp,0
    2728:	0205                	0x205
    272a:	0000                	unimp
    272c:	00de                	0xde
    272e:	0000                	unimp
    2730:	0000022f          	0x22f
    2734:	01cd                	0x1cd
    2736:	0000                	unimp
    2738:	038c                	0x38c
    273a:	0000                	unimp
    273c:	00f1                	0xf1
    273e:	0000                	unimp
    2740:	00000307          	0x307
    2744:	0166                	0x166
    2746:	0000                	unimp
    2748:	00ff                	0xff
    274a:	0000                	unimp
    274c:	014c                	0x14c
    274e:	0000                	unimp
    2750:	030a                	0x30a
    2752:	0000                	unimp
    2754:	02ac                	0x2ac
    2756:	0000                	unimp
    2758:	0256                	0x256
    275a:	0000                	unimp
    275c:	02e4                	0x2e4
    275e:	0000                	unimp
    2760:	0000008f          	0x8f
    2764:	01be                	0x1be
    2766:	0000                	unimp
    2768:	0021                	0x21
    276a:	0000                	unimp
    276c:	00000137          	lui	sp,0x0
    2770:	007d                	0x7d
    2772:	0000                	unimp
    2774:	000002e7          	jalr	t0,zero
    2778:	03ad                	0x3ad
    277a:	0000                	unimp
    277c:	022d                	0x22d
    277e:	0000                	unimp
    2780:	03a5                	0x3a5
    2782:	0000                	unimp
    2784:	01df 0000 031f      	0x31f000001df
    278a:	0000                	unimp
    278c:	022d                	0x22d
    278e:	0000                	unimp
    2790:	0229                	0x229
    2792:	0000                	unimp
    2794:	039d                	0x39d
    2796:	0000                	unimp
    2798:	000001af          	0x1af
    279c:	031c                	0x31c
    279e:	0000                	unimp
    27a0:	0288                	0x288
    27a2:	0000                	unimp
    27a4:	0165                	0x165
    27a6:	0000                	unimp
    27a8:	03b8                	0x3b8
    27aa:	0000                	unimp
    27ac:	0000037b          	custom3	6,0,0,0
    27b0:	011f 0000 029a      	0x29a0000011f
    27b6:	0000                	unimp
    27b8:	00000013          	nop
    27bc:	0202                	0x202
    27be:	0000                	unimp
    27c0:	0031                	0x31
    27c2:	0000                	unimp
    27c4:	022d                	0x22d
    27c6:	0000                	unimp
    27c8:	0056                	0x56
    27ca:	0000                	unimp
    27cc:	0366                	0x366
    27ce:	0000                	unimp
    27d0:	005f 0000 0355      	0x3550000005f
    27d6:	0000                	unimp
    27d8:	01b9                	0x1b9
    27da:	0000                	unimp
    27dc:	01b8                	0x1b8
    27de:	0000                	unimp
    27e0:	0000024b          	fnmsub.s	ft4,ft0,ft0,ft0,rne
    27e4:	003d                	0x3d
    27e6:	0000                	unimp
    27e8:	0266                	0x266
    27ea:	0000                	unimp
    27ec:	02a6                	0x2a6
    27ee:	0000                	unimp
    27f0:	017e                	0x17e
    27f2:	0000                	unimp
    27f4:	018c                	0x18c
    27f6:	0000                	unimp
    27f8:	0118                	0x118
    27fa:	0000                	unimp
    27fc:	0009                	0x9
    27fe:	0000                	unimp
    2800:	0328                	0x328
    2802:	0000                	unimp
    2804:	0011                	0x11
    2806:	0000                	unimp
    2808:	000003cb          	fnmsub.s	ft7,ft0,ft0,ft0,rne
    280c:	00aa                	0xaa
    280e:	0000                	unimp
    2810:	00000333          	add	t1,zero,zero
    2814:	00000123          	sb	zero,2(zero)

00002818 <verify_data>:
    2818:	0001                	0x1
    281a:	0000                	unimp
    281c:	0004                	0x4
    281e:	0000                	unimp
    2820:	0006                	0x6
    2822:	0000                	unimp
    2824:	0009                	0x9
    2826:	0000                	unimp
    2828:	000c                	0xc
    282a:	0000                	unimp
    282c:	0011                	0x11
    282e:	0000                	unimp
    2830:	00000013          	nop
    2834:	0021                	0x21
    2836:	0000                	unimp
    2838:	0029                	0x29
    283a:	0000                	unimp
    283c:	0031                	0x31
    283e:	0000                	unimp
    2840:	003d                	0x3d
    2842:	0000                	unimp
    2844:	003e                	0x3e
    2846:	0000                	unimp
    2848:	0040                	0x40
    284a:	0000                	unimp
    284c:	0041                	0x41
    284e:	0000                	unimp
    2850:	004e                	0x4e
    2852:	0000                	unimp
    2854:	0000004f          	fnmadd.s	ft0,ft0,ft0,ft0,rne
    2858:	0051                	0x51
    285a:	0000                	unimp
    285c:	0056                	0x56
    285e:	0000                	unimp
    2860:	0058                	0x58
    2862:	0000                	unimp
    2864:	005c                	0x5c
    2866:	0000                	unimp
    2868:	005f 0000 0064      	0x640000005f
    286e:	0000                	unimp
    2870:	006e                	0x6e
    2872:	0000                	unimp
    2874:	0000006f          	j	2874 <verify_data+0x5c>
    2878:	0074                	0x74
    287a:	0000                	unimp
    287c:	00000077          	0x77
    2880:	007d                	0x7d
    2882:	0000                	unimp
    2884:	0084                	0x84
    2886:	0000                	unimp
    2888:	008c                	0x8c
    288a:	0000                	unimp
    288c:	008d                	0x8d
    288e:	0000                	unimp
    2890:	0000008f          	0x8f
    2894:	0096                	0x96
    2896:	0000                	unimp
    2898:	0099                	0x99
    289a:	0000                	unimp
    289c:	00a9                	0xa9
    289e:	0000                	unimp
    28a0:	00aa                	0xaa
    28a2:	0000                	unimp
    28a4:	00b5                	0xb5
    28a6:	0000                	unimp
    28a8:	000000bb          	addw	ra,zero,zero
    28ac:	000000c3          	fmadd.s	ft1,ft0,ft0,ft0,rne
    28b0:	000000c3          	fmadd.s	ft1,ft0,ft0,ft0,rne
    28b4:	000000cb          	fnmsub.s	ft1,ft0,ft0,ft0,rne
    28b8:	00d0                	0xd0
    28ba:	0000                	unimp
    28bc:	00d2                	0xd2
    28be:	0000                	unimp
    28c0:	00d8                	0xd8
    28c2:	0000                	unimp
    28c4:	00de                	0xde
    28c6:	0000                	unimp
    28c8:	00de                	0xde
    28ca:	0000                	unimp
    28cc:	00e0                	0xe0
    28ce:	0000                	unimp
    28d0:	00e4                	0xe4
    28d2:	0000                	unimp
    28d4:	00e5                	0xe5
    28d6:	0000                	unimp
    28d8:	00f1                	0xf1
    28da:	0000                	unimp
    28dc:	00f1                	0xf1
    28de:	0000                	unimp
    28e0:	00f1                	0xf1
    28e2:	0000                	unimp
    28e4:	00fd                	0xfd
    28e6:	0000                	unimp
    28e8:	00ff                	0xff
    28ea:	0000                	unimp
    28ec:	0102                	0x102
    28ee:	0000                	unimp
    28f0:	0108                	0x108
    28f2:	0000                	unimp
    28f4:	0000010b          	custom0	2,0,0,0
    28f8:	0000010f          	0x10f
    28fc:	0110                	0x110
    28fe:	0000                	unimp
    2900:	0116                	0x116
    2902:	0000                	unimp
    2904:	0118                	0x118
    2906:	0000                	unimp
    2908:	0118                	0x118
    290a:	0000                	unimp
    290c:	011d                	0x11d
    290e:	0000                	unimp
    2910:	011f 0000 0120      	0x1200000011f
    2916:	0000                	unimp
    2918:	0120                	0x120
    291a:	0000                	unimp
    291c:	0121                	0x121
    291e:	0000                	unimp
    2920:	00000123          	sb	zero,2(zero)
    2924:	0128                	0x128
    2926:	0000                	unimp
    2928:	0128                	0x128
    292a:	0000                	unimp
    292c:	00000137          	lui	sp,0x0
    2930:	0139                	0x139
    2932:	0000                	unimp
    2934:	013a                	0x13a
    2936:	0000                	unimp
    2938:	013d                	0x13d
    293a:	0000                	unimp
    293c:	0000013f 00000148 	0x1480000013f
    2944:	014c                	0x14c
    2946:	0000                	unimp
    2948:	0000014f          	fnmadd.s	ft2,ft0,ft0,ft0,rne
    294c:	0151                	0x151
    294e:	0000                	unimp
    2950:	00000153          	fadd.s	ft2,ft0,ft0,rne
    2954:	015a                	0x15a
    2956:	0000                	unimp
    2958:	015d                	0x15d
    295a:	0000                	unimp
    295c:	015e                	0x15e
    295e:	0000                	unimp
    2960:	015e                	0x15e
    2962:	0000                	unimp
    2964:	015f 0000 015f      	0x15f0000015f
    296a:	0000                	unimp
    296c:	0165                	0x165
    296e:	0000                	unimp
    2970:	0166                	0x166
    2972:	0000                	unimp
    2974:	0166                	0x166
    2976:	0000                	unimp
    2978:	016d                	0x16d
    297a:	0000                	unimp
    297c:	0000016f          	jal	sp,297c <verify_data+0x164>
    2980:	0170                	0x170
    2982:	0000                	unimp
    2984:	00000177          	0x177
    2988:	0178                	0x178
    298a:	0000                	unimp
    298c:	017e                	0x17e
    298e:	0000                	unimp
    2990:	0184                	0x184
    2992:	0000                	unimp
    2994:	0185                	0x185
    2996:	0000                	unimp
    2998:	0188                	0x188
    299a:	0000                	unimp
    299c:	018c                	0x18c
    299e:	0000                	unimp
    29a0:	00000193          	li	gp,0
    29a4:	00000193          	li	gp,0
    29a8:	019f 0000 01a0      	0x1a00000019f
    29ae:	0000                	unimp
    29b0:	01aa                	0x1aa
    29b2:	0000                	unimp
    29b4:	01ae                	0x1ae
    29b6:	0000                	unimp
    29b8:	000001af          	0x1af
    29bc:	01b4                	0x1b4
    29be:	0000                	unimp
    29c0:	01b8                	0x1b8
    29c2:	0000                	unimp
    29c4:	01b9                	0x1b9
    29c6:	0000                	unimp
    29c8:	01bc                	0x1bc
    29ca:	0000                	unimp
    29cc:	01be                	0x1be
    29ce:	0000                	unimp
    29d0:	01c6                	0x1c6
    29d2:	0000                	unimp
    29d4:	000001c7          	fmsub.s	ft3,ft0,ft0,ft0,rne
    29d8:	01cd                	0x1cd
    29da:	0000                	unimp
    29dc:	01da                	0x1da
    29de:	0000                	unimp
    29e0:	01de                	0x1de
    29e2:	0000                	unimp
    29e4:	01df 0000 01e9      	0x1e9000001df
    29ea:	0000                	unimp
    29ec:	01ee                	0x1ee
    29ee:	0000                	unimp
    29f0:	000001f3          	0x1f3
    29f4:	01f4                	0x1f4
    29f6:	0000                	unimp
    29f8:	01fd                	0x1fd
    29fa:	0000                	unimp
    29fc:	01ff                	0x1ff
    29fe:	0000                	unimp
    2a00:	0202                	0x202
    2a02:	0000                	unimp
    2a04:	0205                	0x205
    2a06:	0000                	unimp
    2a08:	0000020f          	0x20f
    2a0c:	00000213          	li	tp,0
    2a10:	021a                	0x21a
    2a12:	0000                	unimp
    2a14:	0000021b          	sext.w	tp,zero
    2a18:	021c                	0x21c
    2a1a:	0000                	unimp
    2a1c:	021f 0000 0227      	0x2270000021f
    2a22:	0000                	unimp
    2a24:	0229                	0x229
    2a26:	0000                	unimp
    2a28:	022d                	0x22d
    2a2a:	0000                	unimp
    2a2c:	022d                	0x22d
    2a2e:	0000                	unimp
    2a30:	022d                	0x22d
    2a32:	0000                	unimp
    2a34:	0000022f          	0x22f
    2a38:	0234                	0x234
    2a3a:	0000                	unimp
    2a3c:	0234                	0x234
    2a3e:	0000                	unimp
    2a40:	0236                	0x236
    2a42:	0000                	unimp
    2a44:	0239                	0x239
    2a46:	0000                	unimp
    2a48:	0239                	0x239
    2a4a:	0000                	unimp
    2a4c:	023c                	0x23c
    2a4e:	0000                	unimp
    2a50:	023c                	0x23c
    2a52:	0000                	unimp
    2a54:	0240                	0x240
    2a56:	0000                	unimp
    2a58:	0248                	0x248
    2a5a:	0000                	unimp
    2a5c:	0248                	0x248
    2a5e:	0000                	unimp
    2a60:	0248                	0x248
    2a62:	0000                	unimp
    2a64:	0000024b          	fnmsub.s	ft4,ft0,ft0,ft0,rne
    2a68:	0250                	0x250
    2a6a:	0000                	unimp
    2a6c:	0250                	0x250
    2a6e:	0000                	unimp
    2a70:	0251                	0x251
    2a72:	0000                	unimp
    2a74:	0256                	0x256
    2a76:	0000                	unimp
    2a78:	025e                	0x25e
    2a7a:	0000                	unimp
    2a7c:	025e                	0x25e
    2a7e:	0000                	unimp
    2a80:	0266                	0x266
    2a82:	0000                	unimp
    2a84:	00000267          	jalr	tp,zero
    2a88:	026c                	0x26c
    2a8a:	0000                	unimp
    2a8c:	026d                	0x26d
    2a8e:	0000                	unimp
    2a90:	0275                	0x275
    2a92:	0000                	unimp
    2a94:	00000283          	lb	t0,0(zero)
    2a98:	0286                	0x286
    2a9a:	0000                	unimp
    2a9c:	0286                	0x286
    2a9e:	0000                	unimp
    2aa0:	00000287          	0x287
    2aa4:	0288                	0x288
    2aa6:	0000                	unimp
    2aa8:	0289                	0x289
    2aaa:	0000                	unimp
    2aac:	0289                	0x289
    2aae:	0000                	unimp
    2ab0:	0291                	0x291
    2ab2:	0000                	unimp
    2ab4:	0291                	0x291
    2ab6:	0000                	unimp
    2ab8:	00000293          	li	t0,0
    2abc:	029a                	0x29a
    2abe:	0000                	unimp
    2ac0:	029d                	0x29d
    2ac2:	0000                	unimp
    2ac4:	02a4                	0x2a4
    2ac6:	0000                	unimp
    2ac8:	02a6                	0x2a6
    2aca:	0000                	unimp
    2acc:	02a6                	0x2a6
    2ace:	0000                	unimp
    2ad0:	02ac                	0x2ac
    2ad2:	0000                	unimp
    2ad4:	02b5                	0x2b5
    2ad6:	0000                	unimp
    2ad8:	02b6                	0x2b6
    2ada:	0000                	unimp
    2adc:	02b8                	0x2b8
    2ade:	0000                	unimp
    2ae0:	02bc                	0x2bc
    2ae2:	0000                	unimp
    2ae4:	02bd                	0x2bd
    2ae6:	0000                	unimp
    2ae8:	000002bf 000002c0 	0x2c0000002bf
    2af0:	000002cb          	fnmsub.s	ft5,ft0,ft0,ft0,rne
    2af4:	02d0                	0x2d0
    2af6:	0000                	unimp
    2af8:	02d1                	0x2d1
    2afa:	0000                	unimp
    2afc:	02e4                	0x2e4
    2afe:	0000                	unimp
    2b00:	000002e7          	jalr	t0,zero
    2b04:	02e9                	0x2e9
    2b06:	0000                	unimp
    2b08:	02ed                	0x2ed
    2b0a:	0000                	unimp
    2b0c:	02ee                	0x2ee
    2b0e:	0000                	unimp
    2b10:	02f6                	0x2f6
    2b12:	0000                	unimp
    2b14:	000002f7          	0x2f7
    2b18:	02f9                	0x2f9
    2b1a:	0000                	unimp
    2b1c:	0306                	0x306
    2b1e:	0000                	unimp
    2b20:	00000307          	0x307
    2b24:	030a                	0x30a
    2b26:	0000                	unimp
    2b28:	0314                	0x314
    2b2a:	0000                	unimp
    2b2c:	031c                	0x31c
    2b2e:	0000                	unimp
    2b30:	031c                	0x31c
    2b32:	0000                	unimp
    2b34:	031f 0000 0320      	0x3200000031f
    2b3a:	0000                	unimp
    2b3c:	0321                	0x321
    2b3e:	0000                	unimp
    2b40:	0325                	0x325
    2b42:	0000                	unimp
    2b44:	0328                	0x328
    2b46:	0000                	unimp
    2b48:	032c                	0x32c
    2b4a:	0000                	unimp
    2b4c:	032e                	0x32e
    2b4e:	0000                	unimp
    2b50:	00000333          	add	t1,zero,zero
    2b54:	033a                	0x33a
    2b56:	0000                	unimp
    2b58:	0341                	0x341
    2b5a:	0000                	unimp
    2b5c:	0000034f          	fnmadd.s	ft6,ft0,ft0,ft0,rne
    2b60:	0355                	0x355
    2b62:	0000                	unimp
    2b64:	0355                	0x355
    2b66:	0000                	unimp
    2b68:	0000035b          	custom2	6,0,0,0
    2b6c:	0360                	0x360
    2b6e:	0000                	unimp
    2b70:	0366                	0x366
    2b72:	0000                	unimp
    2b74:	0000036b          	0x36b
    2b78:	00000373          	0x373
    2b7c:	0376                	0x376
    2b7e:	0000                	unimp
    2b80:	037a                	0x37a
    2b82:	0000                	unimp
    2b84:	0000037b          	custom3	6,0,0,0
    2b88:	0382                	0x382
    2b8a:	0000                	unimp
    2b8c:	0386                	0x386
    2b8e:	0000                	unimp
    2b90:	0389                	0x389
    2b92:	0000                	unimp
    2b94:	038c                	0x38c
    2b96:	0000                	unimp
    2b98:	0391                	0x391
    2b9a:	0000                	unimp
    2b9c:	039d                	0x39d
    2b9e:	0000                	unimp
    2ba0:	000003a3          	sb	zero,7(zero)
    2ba4:	03a5                	0x3a5
    2ba6:	0000                	unimp
    2ba8:	03a5                	0x3a5
    2baa:	0000                	unimp
    2bac:	03a8                	0x3a8
    2bae:	0000                	unimp
    2bb0:	03a9                	0x3a9
    2bb2:	0000                	unimp
    2bb4:	03aa                	0x3aa
    2bb6:	0000                	unimp
    2bb8:	03ad                	0x3ad
    2bba:	0000                	unimp
    2bbc:	03b0                	0x3b0
    2bbe:	0000                	unimp
    2bc0:	03b5                	0x3b5
    2bc2:	0000                	unimp
    2bc4:	03b8                	0x3b8
    2bc6:	0000                	unimp
    2bc8:	03b8                	0x3b8
    2bca:	0000                	unimp
    2bcc:	03c0                	0x3c0
    2bce:	0000                	unimp
    2bd0:	03c1                	0x3c1
    2bd2:	0000                	unimp
    2bd4:	000003cb          	fnmsub.s	ft7,ft0,ft0,ft0,rne
    2bd8:	000003d3          	fadd.s	ft7,ft0,ft0,rne
    2bdc:	000003d3          	fadd.s	ft7,ft0,ft0,rne
    2be0:	03d5                	0x3d5
    2be2:	0000                	unimp
    2be4:	03d9                	0x3d9
    2be6:	0000                	unimp
    2be8:	03d9                	0x3d9
    2bea:	0000                	unimp
    2bec:	03dd                	0x3dd
    2bee:	0000                	unimp
    2bf0:	03dd                	0x3dd
    2bf2:	0000                	unimp
    2bf4:	03e5                	0x3e5
    2bf6:	0000                	unimp
    2bf8:	03e5                	0x3e5
    2bfa:	0000                	unimp
    2bfc:	03e6                	0x3e6
    2bfe:	0000                	unimp

00002c00 <_heapend>:
    2c00:	0000                	unimp
    2c02:	0000                	unimp

00002c04 <environ>:
    2c04:	0000                	unimp
    2c06:	0000                	unimp
