
towers.riscv:     file format elf32-littleriscv


Disassembly of section .text:

80001048 <towers_verify.part.0>:
80001048:	01852603          	lw	a2,24(a0)
8000104c:	00052783          	lw	a5,0(a0)
80001050:	04f61a63          	bne	a2,a5,800010a4 <towers_verify.part.0+0x5c>
80001054:	01c52783          	lw	a5,28(a0)
80001058:	02078463          	beqz	a5,80001080 <towers_verify.part.0+0x38>
8000105c:	0007a703          	lw	a4,0(a5)
80001060:	00100693          	li	a3,1
80001064:	00d70863          	beq	a4,a3,80001074 <towers_verify.part.0+0x2c>
80001068:	0440006f          	j	800010ac <towers_verify.part.0+0x64>
8000106c:	0007a683          	lw	a3,0(a5)
80001070:	02d71e63          	bne	a4,a3,800010ac <towers_verify.part.0+0x64>
80001074:	0047a783          	lw	a5,4(a5)
80001078:	00170713          	addi	a4,a4,1
8000107c:	fe0798e3          	bnez	a5,8000106c <towers_verify.part.0+0x24>
80001080:	00452503          	lw	a0,4(a0)
80001084:	00100793          	li	a5,1
80001088:	00c79633          	sll	a2,a5,a2
8000108c:	fff60613          	addi	a2,a2,-1
80001090:	40c50533          	sub	a0,a0,a2
80001094:	00a03533          	snez	a0,a0
80001098:	40a00533          	neg	a0,a0
8000109c:	00657513          	andi	a0,a0,6
800010a0:	00008067          	ret
800010a4:	00400513          	li	a0,4
800010a8:	00008067          	ret
800010ac:	00500513          	li	a0,5
800010b0:	00008067          	ret

800010b4 <list_getSize>:
800010b4:	00052503          	lw	a0,0(a0)
800010b8:	00008067          	ret

800010bc <list_init>:
800010bc:	00052023          	sw	zero,0(a0)
800010c0:	00052223          	sw	zero,4(a0)
800010c4:	00008067          	ret

800010c8 <list_push>:
800010c8:	00001697          	auipc	a3,0x1
800010cc:	05c68693          	addi	a3,a3,92 # 80002124 <g_nodeFreeList>
800010d0:	0046a783          	lw	a5,4(a3)
800010d4:	00052703          	lw	a4,0(a0)
800010d8:	0047a603          	lw	a2,4(a5)
800010dc:	00170713          	addi	a4,a4,1
800010e0:	00c6a223          	sw	a2,4(a3)
800010e4:	00452683          	lw	a3,4(a0)
800010e8:	00d7a223          	sw	a3,4(a5)
800010ec:	00f52223          	sw	a5,4(a0)
800010f0:	00b7a023          	sw	a1,0(a5)
800010f4:	00e52023          	sw	a4,0(a0)
800010f8:	00008067          	ret

800010fc <list_pop>:
800010fc:	00452703          	lw	a4,4(a0)
80001100:	00050793          	mv	a5,a0
80001104:	00052683          	lw	a3,0(a0)
80001108:	00472583          	lw	a1,4(a4)
8000110c:	00072503          	lw	a0,0(a4)
80001110:	00001617          	auipc	a2,0x1
80001114:	01460613          	addi	a2,a2,20 # 80002124 <g_nodeFreeList>
80001118:	00b7a223          	sw	a1,4(a5)
8000111c:	00462583          	lw	a1,4(a2)
80001120:	fff68693          	addi	a3,a3,-1
80001124:	00b72223          	sw	a1,4(a4)
80001128:	00e62223          	sw	a4,4(a2)
8000112c:	00d7a023          	sw	a3,0(a5)
80001130:	00008067          	ret

80001134 <list_clear>:
80001134:	00052703          	lw	a4,0(a0)
80001138:	02e05a63          	blez	a4,8000116c <list_clear+0x38>
8000113c:	00001617          	auipc	a2,0x1
80001140:	fe860613          	addi	a2,a2,-24 # 80002124 <g_nodeFreeList>
80001144:	00452783          	lw	a5,4(a0)
80001148:	fff70713          	addi	a4,a4,-1
8000114c:	0047a683          	lw	a3,4(a5)
80001150:	00d52223          	sw	a3,4(a0)
80001154:	00462683          	lw	a3,4(a2)
80001158:	00d7a223          	sw	a3,4(a5)
8000115c:	00001697          	auipc	a3,0x1
80001160:	fcf6a623          	sw	a5,-52(a3) # 80002128 <g_nodeFreeList+0x4>
80001164:	fe0710e3          	bnez	a4,80001144 <list_clear+0x10>
80001168:	00052023          	sw	zero,0(a0)
8000116c:	00008067          	ret

80001170 <towers_init>:
80001170:	00b52023          	sw	a1,0(a0)
80001174:	00052223          	sw	zero,4(a0)
80001178:	00052423          	sw	zero,8(a0)
8000117c:	00052623          	sw	zero,12(a0)
80001180:	00052823          	sw	zero,16(a0)
80001184:	00052a23          	sw	zero,20(a0)
80001188:	00052c23          	sw	zero,24(a0)
8000118c:	00052e23          	sw	zero,28(a0)
80001190:	04b05463          	blez	a1,800011d8 <towers_init+0x68>
80001194:	00001797          	auipc	a5,0x1
80001198:	f9078793          	addi	a5,a5,-112 # 80002124 <g_nodeFreeList>
8000119c:	0047a783          	lw	a5,4(a5)
800011a0:	00058713          	mv	a4,a1
800011a4:	00000693          	li	a3,0
800011a8:	0080006f          	j	800011b0 <towers_init+0x40>
800011ac:	00060793          	mv	a5,a2
800011b0:	0047a603          	lw	a2,4(a5)
800011b4:	00e7a023          	sw	a4,0(a5)
800011b8:	00d7a223          	sw	a3,4(a5)
800011bc:	fff70713          	addi	a4,a4,-1
800011c0:	00078693          	mv	a3,a5
800011c4:	fe0714e3          	bnez	a4,800011ac <towers_init+0x3c>
800011c8:	00001717          	auipc	a4,0x1
800011cc:	f6c72023          	sw	a2,-160(a4) # 80002128 <g_nodeFreeList+0x4>
800011d0:	00f52623          	sw	a5,12(a0)
800011d4:	00b52423          	sw	a1,8(a0)
800011d8:	00008067          	ret

800011dc <towers_clear>:
800011dc:	00852703          	lw	a4,8(a0)
800011e0:	04e05063          	blez	a4,80001220 <towers_clear+0x44>
800011e4:	00001697          	auipc	a3,0x1
800011e8:	f4068693          	addi	a3,a3,-192 # 80002124 <g_nodeFreeList>
800011ec:	00c52783          	lw	a5,12(a0)
800011f0:	0046a683          	lw	a3,4(a3)
800011f4:	0080006f          	j	800011fc <towers_clear+0x20>
800011f8:	00060793          	mv	a5,a2
800011fc:	0047a603          	lw	a2,4(a5)
80001200:	fff70713          	addi	a4,a4,-1
80001204:	00d7a223          	sw	a3,4(a5)
80001208:	00078693          	mv	a3,a5
8000120c:	fe0716e3          	bnez	a4,800011f8 <towers_clear+0x1c>
80001210:	00001717          	auipc	a4,0x1
80001214:	f0f72c23          	sw	a5,-232(a4) # 80002128 <g_nodeFreeList+0x4>
80001218:	00c52623          	sw	a2,12(a0)
8000121c:	00052423          	sw	zero,8(a0)
80001220:	01052703          	lw	a4,16(a0)
80001224:	04e05063          	blez	a4,80001264 <towers_clear+0x88>
80001228:	00001697          	auipc	a3,0x1
8000122c:	efc68693          	addi	a3,a3,-260 # 80002124 <g_nodeFreeList>
80001230:	01452783          	lw	a5,20(a0)
80001234:	0046a683          	lw	a3,4(a3)
80001238:	0080006f          	j	80001240 <towers_clear+0x64>
8000123c:	00060793          	mv	a5,a2
80001240:	0047a603          	lw	a2,4(a5)
80001244:	fff70713          	addi	a4,a4,-1
80001248:	00d7a223          	sw	a3,4(a5)
8000124c:	00078693          	mv	a3,a5
80001250:	fe0716e3          	bnez	a4,8000123c <towers_clear+0x60>
80001254:	00001717          	auipc	a4,0x1
80001258:	ecf72a23          	sw	a5,-300(a4) # 80002128 <g_nodeFreeList+0x4>
8000125c:	00c52a23          	sw	a2,20(a0)
80001260:	00052823          	sw	zero,16(a0)
80001264:	01852703          	lw	a4,24(a0)
80001268:	02e05c63          	blez	a4,800012a0 <towers_clear+0xc4>
8000126c:	00001697          	auipc	a3,0x1
80001270:	eb868693          	addi	a3,a3,-328 # 80002124 <g_nodeFreeList>
80001274:	01c52783          	lw	a5,28(a0)
80001278:	0046a683          	lw	a3,4(a3)
8000127c:	0080006f          	j	80001284 <towers_clear+0xa8>
80001280:	00060793          	mv	a5,a2
80001284:	0047a603          	lw	a2,4(a5)
80001288:	fff70713          	addi	a4,a4,-1
8000128c:	00d7a223          	sw	a3,4(a5)
80001290:	00078693          	mv	a3,a5
80001294:	fe0716e3          	bnez	a4,80001280 <towers_clear+0xa4>
80001298:	00001717          	auipc	a4,0x1
8000129c:	e8f72823          	sw	a5,-368(a4) # 80002128 <g_nodeFreeList+0x4>
800012a0:	00052583          	lw	a1,0(a0)
800012a4:	00052223          	sw	zero,4(a0)
800012a8:	00052423          	sw	zero,8(a0)
800012ac:	00052623          	sw	zero,12(a0)
800012b0:	00052823          	sw	zero,16(a0)
800012b4:	00052a23          	sw	zero,20(a0)
800012b8:	00052c23          	sw	zero,24(a0)
800012bc:	00052e23          	sw	zero,28(a0)
800012c0:	04b05463          	blez	a1,80001308 <towers_clear+0x12c>
800012c4:	00001797          	auipc	a5,0x1
800012c8:	e6078793          	addi	a5,a5,-416 # 80002124 <g_nodeFreeList>
800012cc:	0047a783          	lw	a5,4(a5)
800012d0:	00058713          	mv	a4,a1
800012d4:	00000693          	li	a3,0
800012d8:	0080006f          	j	800012e0 <towers_clear+0x104>
800012dc:	00060793          	mv	a5,a2
800012e0:	0047a603          	lw	a2,4(a5)
800012e4:	00e7a023          	sw	a4,0(a5)
800012e8:	00d7a223          	sw	a3,4(a5)
800012ec:	fff70713          	addi	a4,a4,-1
800012f0:	00078693          	mv	a3,a5
800012f4:	fe0714e3          	bnez	a4,800012dc <towers_clear+0x100>
800012f8:	00001717          	auipc	a4,0x1
800012fc:	e2c72823          	sw	a2,-464(a4) # 80002128 <g_nodeFreeList+0x4>
80001300:	00f52623          	sw	a5,12(a0)
80001304:	00b52423          	sw	a1,8(a0)
80001308:	00008067          	ret

8000130c <towers_solve_h>:
8000130c:	fe010113          	addi	sp,sp,-32
80001310:	00812c23          	sw	s0,24(sp)
80001314:	00912a23          	sw	s1,20(sp)
80001318:	01212823          	sw	s2,16(sp)
8000131c:	01312623          	sw	s3,12(sp)
80001320:	01412423          	sw	s4,8(sp)
80001324:	00112e23          	sw	ra,28(sp)
80001328:	00100793          	li	a5,1
8000132c:	00050a13          	mv	s4,a0
80001330:	00060913          	mv	s2,a2
80001334:	00070993          	mv	s3,a4
80001338:	00058493          	mv	s1,a1
8000133c:	00068413          	mv	s0,a3
80001340:	04f58863          	beq	a1,a5,80001390 <towers_solve_h+0x84>
80001344:	fff48493          	addi	s1,s1,-1
80001348:	00048593          	mv	a1,s1
8000134c:	000a0513          	mv	a0,s4
80001350:	00040713          	mv	a4,s0
80001354:	00098693          	mv	a3,s3
80001358:	00090613          	mv	a2,s2
8000135c:	fb1ff0ef          	jal	ra,8000130c <towers_solve_h>
80001360:	00098713          	mv	a4,s3
80001364:	00040693          	mv	a3,s0
80001368:	00090613          	mv	a2,s2
8000136c:	00100593          	li	a1,1
80001370:	000a0513          	mv	a0,s4
80001374:	f99ff0ef          	jal	ra,8000130c <towers_solve_h>
80001378:	00100793          	li	a5,1
8000137c:	00090713          	mv	a4,s2
80001380:	00f48a63          	beq	s1,a5,80001394 <towers_solve_h+0x88>
80001384:	00040913          	mv	s2,s0
80001388:	00070413          	mv	s0,a4
8000138c:	fb9ff06f          	j	80001344 <towers_solve_h+0x38>
80001390:	00060413          	mv	s0,a2
80001394:	00442783          	lw	a5,4(s0)
80001398:	00042683          	lw	a3,0(s0)
8000139c:	004a2703          	lw	a4,4(s4)
800013a0:	0047a583          	lw	a1,4(a5)
800013a4:	0007a603          	lw	a2,0(a5)
800013a8:	fff68693          	addi	a3,a3,-1
800013ac:	00b42223          	sw	a1,4(s0)
800013b0:	0049a583          	lw	a1,4(s3)
800013b4:	00d42023          	sw	a3,0(s0)
800013b8:	0009a683          	lw	a3,0(s3)
800013bc:	00b7a223          	sw	a1,4(a5)
800013c0:	00f9a223          	sw	a5,4(s3)
800013c4:	00c7a023          	sw	a2,0(a5)
800013c8:	01c12083          	lw	ra,28(sp)
800013cc:	00168793          	addi	a5,a3,1
800013d0:	01812403          	lw	s0,24(sp)
800013d4:	00f9a023          	sw	a5,0(s3)
800013d8:	00170793          	addi	a5,a4,1
800013dc:	00fa2223          	sw	a5,4(s4)
800013e0:	01412483          	lw	s1,20(sp)
800013e4:	01012903          	lw	s2,16(sp)
800013e8:	00c12983          	lw	s3,12(sp)
800013ec:	00812a03          	lw	s4,8(sp)
800013f0:	02010113          	addi	sp,sp,32
800013f4:	00008067          	ret

800013f8 <towers_solve>:
800013f8:	00052583          	lw	a1,0(a0)
800013fc:	01850713          	addi	a4,a0,24
80001400:	01050693          	addi	a3,a0,16
80001404:	00850613          	addi	a2,a0,8
80001408:	f05ff06f          	j	8000130c <towers_solve_h>

8000140c <towers_verify>:
8000140c:	00852703          	lw	a4,8(a0)
80001410:	00071c63          	bnez	a4,80001428 <towers_verify+0x1c>
80001414:	01052783          	lw	a5,16(a0)
80001418:	00079463          	bnez	a5,80001420 <towers_verify+0x14>
8000141c:	c2dff06f          	j	80001048 <towers_verify.part.0>
80001420:	00300513          	li	a0,3
80001424:	00008067          	ret
80001428:	00200513          	li	a0,2
8000142c:	00008067          	ret

80001430 <vprintfmt>:
80001430:	fd010113          	addi	sp,sp,-48
80001434:	02812423          	sw	s0,40(sp)
80001438:	02912223          	sw	s1,36(sp)
8000143c:	03212023          	sw	s2,32(sp)
80001440:	01312e23          	sw	s3,28(sp)
80001444:	01412c23          	sw	s4,24(sp)
80001448:	01512a23          	sw	s5,20(sp)
8000144c:	01612823          	sw	s6,16(sp)
80001450:	02112623          	sw	ra,44(sp)
80001454:	01712623          	sw	s7,12(sp)
80001458:	01812423          	sw	s8,8(sp)
8000145c:	01912223          	sw	s9,4(sp)
80001460:	01a12023          	sw	s10,0(sp)
80001464:	00050913          	mv	s2,a0
80001468:	00058493          	mv	s1,a1
8000146c:	00060413          	mv	s0,a2
80001470:	00068a13          	mv	s4,a3
80001474:	00001997          	auipc	s3,0x1
80001478:	b1898993          	addi	s3,s3,-1256 # 80001f8c <main+0x1cc>
8000147c:	00900a93          	li	s5,9
80001480:	fff00b13          	li	s6,-1
80001484:	00044503          	lbu	a0,0(s0)
80001488:	02500793          	li	a5,37
8000148c:	02f50463          	beq	a0,a5,800014b4 <vprintfmt+0x84>
80001490:	06050463          	beqz	a0,800014f8 <vprintfmt+0xc8>
80001494:	02500b93          	li	s7,37
80001498:	0080006f          	j	800014a0 <vprintfmt+0x70>
8000149c:	04050e63          	beqz	a0,800014f8 <vprintfmt+0xc8>
800014a0:	00048593          	mv	a1,s1
800014a4:	00140413          	addi	s0,s0,1
800014a8:	000900e7          	jalr	s2
800014ac:	00044503          	lbu	a0,0(s0)
800014b0:	ff7516e3          	bne	a0,s7,8000149c <vprintfmt+0x6c>
800014b4:	00144683          	lbu	a3,1(s0)
800014b8:	00140c93          	addi	s9,s0,1
800014bc:	000c8713          	mv	a4,s9
800014c0:	02000d13          	li	s10,32
800014c4:	fff00c13          	li	s8,-1
800014c8:	fff00b93          	li	s7,-1
800014cc:	00000513          	li	a0,0
800014d0:	05500593          	li	a1,85
800014d4:	fdd68793          	addi	a5,a3,-35
800014d8:	0ff7f793          	andi	a5,a5,255
800014dc:	00170413          	addi	s0,a4,1
800014e0:	1cf5ea63          	bltu	a1,a5,800016b4 <vprintfmt+0x284>
800014e4:	00279793          	slli	a5,a5,0x2
800014e8:	013787b3          	add	a5,a5,s3
800014ec:	0007a783          	lw	a5,0(a5)
800014f0:	013787b3          	add	a5,a5,s3
800014f4:	00078067          	jr	a5
800014f8:	02c12083          	lw	ra,44(sp)
800014fc:	02812403          	lw	s0,40(sp)
80001500:	02412483          	lw	s1,36(sp)
80001504:	02012903          	lw	s2,32(sp)
80001508:	01c12983          	lw	s3,28(sp)
8000150c:	01812a03          	lw	s4,24(sp)
80001510:	01412a83          	lw	s5,20(sp)
80001514:	01012b03          	lw	s6,16(sp)
80001518:	00c12b83          	lw	s7,12(sp)
8000151c:	00812c03          	lw	s8,8(sp)
80001520:	00412c83          	lw	s9,4(sp)
80001524:	00012d03          	lw	s10,0(sp)
80001528:	03010113          	addi	sp,sp,48
8000152c:	00008067          	ret
80001530:	000a2c83          	lw	s9,0(s4)
80001534:	004a0a13          	addi	s4,s4,4
80001538:	220c8263          	beqz	s9,8000175c <vprintfmt+0x32c>
8000153c:	1b705663          	blez	s7,800016e8 <vprintfmt+0x2b8>
80001540:	02d00793          	li	a5,45
80001544:	20fd0663          	beq	s10,a5,80001750 <vprintfmt+0x320>
80001548:	180c0663          	beqz	s8,800016d4 <vprintfmt+0x2a4>
8000154c:	000cc783          	lbu	a5,0(s9)
80001550:	18078263          	beqz	a5,800016d4 <vprintfmt+0x2a4>
80001554:	001c8793          	addi	a5,s9,1
80001558:	018c8633          	add	a2,s9,s8
8000155c:	22f60663          	beq	a2,a5,80001788 <vprintfmt+0x358>
80001560:	00178713          	addi	a4,a5,1
80001564:	fff74683          	lbu	a3,-1(a4)
80001568:	16068063          	beqz	a3,800016c8 <vprintfmt+0x298>
8000156c:	00070793          	mv	a5,a4
80001570:	fedff06f          	j	8000155c <vprintfmt+0x12c>
80001574:	00174683          	lbu	a3,1(a4)
80001578:	00040713          	mv	a4,s0
8000157c:	f59ff06f          	j	800014d4 <vprintfmt+0xa4>
80001580:	00048593          	mv	a1,s1
80001584:	02500513          	li	a0,37
80001588:	000900e7          	jalr	s2
8000158c:	ef9ff06f          	j	80001484 <vprintfmt+0x54>
80001590:	000a2c03          	lw	s8,0(s4)
80001594:	00174683          	lbu	a3,1(a4)
80001598:	004a0a13          	addi	s4,s4,4
8000159c:	00040713          	mv	a4,s0
800015a0:	f20bdae3          	bgez	s7,800014d4 <vprintfmt+0xa4>
800015a4:	000c0b93          	mv	s7,s8
800015a8:	fff00c13          	li	s8,-1
800015ac:	f29ff06f          	j	800014d4 <vprintfmt+0xa4>
800015b0:	00174683          	lbu	a3,1(a4)
800015b4:	02d00d13          	li	s10,45
800015b8:	00040713          	mv	a4,s0
800015bc:	f19ff06f          	j	800014d4 <vprintfmt+0xa4>
800015c0:	fffbc793          	not	a5,s7
800015c4:	41f7d793          	srai	a5,a5,0x1f
800015c8:	00174683          	lbu	a3,1(a4)
800015cc:	00fbfbb3          	and	s7,s7,a5
800015d0:	00040713          	mv	a4,s0
800015d4:	f01ff06f          	j	800014d4 <vprintfmt+0xa4>
800015d8:	00174683          	lbu	a3,1(a4)
800015dc:	03000d13          	li	s10,48
800015e0:	00040713          	mv	a4,s0
800015e4:	ef1ff06f          	j	800014d4 <vprintfmt+0xa4>
800015e8:	00174603          	lbu	a2,1(a4)
800015ec:	fd068c13          	addi	s8,a3,-48
800015f0:	00040713          	mv	a4,s0
800015f4:	fd060793          	addi	a5,a2,-48
800015f8:	00060693          	mv	a3,a2
800015fc:	fafae2e3          	bltu	s5,a5,800015a0 <vprintfmt+0x170>
80001600:	002c1793          	slli	a5,s8,0x2
80001604:	018787b3          	add	a5,a5,s8
80001608:	00170713          	addi	a4,a4,1
8000160c:	00179793          	slli	a5,a5,0x1
80001610:	00c787b3          	add	a5,a5,a2
80001614:	00074603          	lbu	a2,0(a4)
80001618:	fd078c13          	addi	s8,a5,-48
8000161c:	fd060793          	addi	a5,a2,-48
80001620:	00060693          	mv	a3,a2
80001624:	fcfafee3          	bleu	a5,s5,80001600 <vprintfmt+0x1d0>
80001628:	f79ff06f          	j	800015a0 <vprintfmt+0x170>
8000162c:	000a2503          	lw	a0,0(s4)
80001630:	00048593          	mv	a1,s1
80001634:	004a0a13          	addi	s4,s4,4
80001638:	000900e7          	jalr	s2
8000163c:	e49ff06f          	j	80001484 <vprintfmt+0x54>
80001640:	00100793          	li	a5,1
80001644:	0ea7d863          	ble	a0,a5,80001734 <vprintfmt+0x304>
80001648:	007a0793          	addi	a5,s4,7
8000164c:	ff87f793          	andi	a5,a5,-8
80001650:	00878a13          	addi	s4,a5,8
80001654:	0047a783          	lw	a5,4(a5)
80001658:	e207d6e3          	bgez	a5,80001484 <vprintfmt+0x54>
8000165c:	00048593          	mv	a1,s1
80001660:	02d00513          	li	a0,45
80001664:	000900e7          	jalr	s2
80001668:	e1dff06f          	j	80001484 <vprintfmt+0x54>
8000166c:	00174683          	lbu	a3,1(a4)
80001670:	00150513          	addi	a0,a0,1
80001674:	00040713          	mv	a4,s0
80001678:	e5dff06f          	j	800014d4 <vprintfmt+0xa4>
8000167c:	00100793          	li	a5,1
80001680:	0ca7d463          	ble	a0,a5,80001748 <vprintfmt+0x318>
80001684:	007a0a13          	addi	s4,s4,7
80001688:	ff8a7a13          	andi	s4,s4,-8
8000168c:	008a0a13          	addi	s4,s4,8
80001690:	df5ff06f          	j	80001484 <vprintfmt+0x54>
80001694:	03000513          	li	a0,48
80001698:	00048593          	mv	a1,s1
8000169c:	000900e7          	jalr	s2
800016a0:	00048593          	mv	a1,s1
800016a4:	07800513          	li	a0,120
800016a8:	000900e7          	jalr	s2
800016ac:	004a0a13          	addi	s4,s4,4
800016b0:	dd5ff06f          	j	80001484 <vprintfmt+0x54>
800016b4:	00048593          	mv	a1,s1
800016b8:	02500513          	li	a0,37
800016bc:	000900e7          	jalr	s2
800016c0:	000c8413          	mv	s0,s9
800016c4:	dc1ff06f          	j	80001484 <vprintfmt+0x54>
800016c8:	419787b3          	sub	a5,a5,s9
800016cc:	40fb8bb3          	sub	s7,s7,a5
800016d0:	01705c63          	blez	s7,800016e8 <vprintfmt+0x2b8>
800016d4:	fffb8b93          	addi	s7,s7,-1
800016d8:	00048593          	mv	a1,s1
800016dc:	000d0513          	mv	a0,s10
800016e0:	000900e7          	jalr	s2
800016e4:	fe0b98e3          	bnez	s7,800016d4 <vprintfmt+0x2a4>
800016e8:	000cc503          	lbu	a0,0(s9)
800016ec:	d8050ce3          	beqz	a0,80001484 <vprintfmt+0x54>
800016f0:	020c5c63          	bgez	s8,80001728 <vprintfmt+0x2f8>
800016f4:	00048593          	mv	a1,s1
800016f8:	001c8c93          	addi	s9,s9,1
800016fc:	000900e7          	jalr	s2
80001700:	000cc503          	lbu	a0,0(s9)
80001704:	fffb8b93          	addi	s7,s7,-1
80001708:	fe0514e3          	bnez	a0,800016f0 <vprintfmt+0x2c0>
8000170c:	d7705ce3          	blez	s7,80001484 <vprintfmt+0x54>
80001710:	fffb8b93          	addi	s7,s7,-1
80001714:	00048593          	mv	a1,s1
80001718:	02000513          	li	a0,32
8000171c:	000900e7          	jalr	s2
80001720:	fe0b98e3          	bnez	s7,80001710 <vprintfmt+0x2e0>
80001724:	d61ff06f          	j	80001484 <vprintfmt+0x54>
80001728:	fffc0c13          	addi	s8,s8,-1
8000172c:	fd6c14e3          	bne	s8,s6,800016f4 <vprintfmt+0x2c4>
80001730:	fddff06f          	j	8000170c <vprintfmt+0x2dc>
80001734:	000a2783          	lw	a5,0(s4)
80001738:	004a0713          	addi	a4,s4,4
8000173c:	00070a13          	mv	s4,a4
80001740:	41f7d793          	srai	a5,a5,0x1f
80001744:	f15ff06f          	j	80001658 <vprintfmt+0x228>
80001748:	004a0a13          	addi	s4,s4,4
8000174c:	d39ff06f          	j	80001484 <vprintfmt+0x54>
80001750:	000cc503          	lbu	a0,0(s9)
80001754:	f8051ee3          	bnez	a0,800016f0 <vprintfmt+0x2c0>
80001758:	fb9ff06f          	j	80001710 <vprintfmt+0x2e0>
8000175c:	01705e63          	blez	s7,80001778 <vprintfmt+0x348>
80001760:	02d00793          	li	a5,45
80001764:	00fd0a63          	beq	s10,a5,80001778 <vprintfmt+0x348>
80001768:	00001c97          	auipc	s9,0x1
8000176c:	97cc8c93          	addi	s9,s9,-1668 # 800020e4 <main+0x324>
80001770:	dc0c1ee3          	bnez	s8,8000154c <vprintfmt+0x11c>
80001774:	f61ff06f          	j	800016d4 <vprintfmt+0x2a4>
80001778:	00001c97          	auipc	s9,0x1
8000177c:	96cc8c93          	addi	s9,s9,-1684 # 800020e4 <main+0x324>
80001780:	02800513          	li	a0,40
80001784:	f6dff06f          	j	800016f0 <vprintfmt+0x2c0>
80001788:	41960633          	sub	a2,a2,s9
8000178c:	40cb8bb3          	sub	s7,s7,a2
80001790:	f57042e3          	bgtz	s7,800016d4 <vprintfmt+0x2a4>
80001794:	f55ff06f          	j	800016e8 <vprintfmt+0x2b8>

80001798 <sprintf_putch.2835>:
80001798:	0005a783          	lw	a5,0(a1)
8000179c:	00a78023          	sb	a0,0(a5)
800017a0:	0005a783          	lw	a5,0(a1)
800017a4:	00178793          	addi	a5,a5,1
800017a8:	00f5a023          	sw	a5,0(a1)
800017ac:	00008067          	ret

800017b0 <syscall.constprop.2>:
800017b0:	f8010113          	addi	sp,sp,-128
800017b4:	03f10813          	addi	a6,sp,63
800017b8:	fc087813          	andi	a6,a6,-64
800017bc:	04000713          	li	a4,64
800017c0:	00e82023          	sw	a4,0(a6)
800017c4:	00000793          	li	a5,0
800017c8:	00f82223          	sw	a5,4(a6)
800017cc:	00100713          	li	a4,1
800017d0:	00e82423          	sw	a4,8(a6)
800017d4:	00000793          	li	a5,0
800017d8:	00f82623          	sw	a5,12(a6)
800017dc:	00a82823          	sw	a0,16(a6)
800017e0:	00b82a23          	sw	a1,20(a6)
800017e4:	00c82c23          	sw	a2,24(a6)
800017e8:	00d82e23          	sw	a3,28(a6)
800017ec:	0ff0000f          	fence
800017f0:	00000697          	auipc	a3,0x0
800017f4:	81068693          	addi	a3,a3,-2032 # 80001000 <tohost>
800017f8:	0106a023          	sw	a6,0(a3)
800017fc:	00000793          	li	a5,0
80001800:	00f6a223          	sw	a5,4(a3)
80001804:	00000697          	auipc	a3,0x0
80001808:	83c68693          	addi	a3,a3,-1988 # 80001040 <fromhost>
8000180c:	0006a703          	lw	a4,0(a3)
80001810:	0046a783          	lw	a5,4(a3)
80001814:	00f76733          	or	a4,a4,a5
80001818:	fe070ae3          	beqz	a4,8000180c <syscall.constprop.2+0x5c>
8000181c:	00000713          	li	a4,0
80001820:	00e6a023          	sw	a4,0(a3)
80001824:	00000793          	li	a5,0
80001828:	00f6a223          	sw	a5,4(a3)
8000182c:	0ff0000f          	fence
80001830:	00082503          	lw	a0,0(a6)
80001834:	00482583          	lw	a1,4(a6)
80001838:	08010113          	addi	sp,sp,128
8000183c:	00008067          	ret

80001840 <putchar>:
80001840:	ff010113          	addi	sp,sp,-16
80001844:	00812423          	sw	s0,8(sp)
80001848:	04022583          	lw	a1,64(tp) # 40 <buflen.2721>
8000184c:	00020793          	mv	a5,tp
80001850:	00112623          	sw	ra,12(sp)
80001854:	00b787b3          	add	a5,a5,a1
80001858:	00158613          	addi	a2,a1,1
8000185c:	00a78023          	sb	a0,0(a5)
80001860:	04c22023          	sw	a2,64(tp) # 40 <buflen.2721>
80001864:	00a00793          	li	a5,10
80001868:	02f50063          	beq	a0,a5,80001888 <putchar+0x48>
8000186c:	04000793          	li	a5,64
80001870:	00f60c63          	beq	a2,a5,80001888 <putchar+0x48>
80001874:	00c12083          	lw	ra,12(sp)
80001878:	00812403          	lw	s0,8(sp)
8000187c:	00000513          	li	a0,0
80001880:	01010113          	addi	sp,sp,16
80001884:	00008067          	ret
80001888:	41f65693          	srai	a3,a2,0x1f
8000188c:	00020513          	mv	a0,tp
80001890:	00000593          	li	a1,0
80001894:	f1dff0ef          	jal	ra,800017b0 <syscall.constprop.2>
80001898:	04022023          	sw	zero,64(tp) # 40 <buflen.2721>
8000189c:	00c12083          	lw	ra,12(sp)
800018a0:	00812403          	lw	s0,8(sp)
800018a4:	00000513          	li	a0,0
800018a8:	01010113          	addi	sp,sp,16
800018ac:	00008067          	ret

800018b0 <setStats>:
800018b0:	b00027f3          	csrr	a5,mcycle
800018b4:	00001717          	auipc	a4,0x1
800018b8:	88070713          	addi	a4,a4,-1920 # 80002134 <counters>
800018bc:	00051e63          	bnez	a0,800018d8 <setStats+0x28>
800018c0:	00072683          	lw	a3,0(a4)
800018c4:	00001617          	auipc	a2,0x1
800018c8:	82860613          	addi	a2,a2,-2008 # 800020ec <main+0x32c>
800018cc:	00001597          	auipc	a1,0x1
800018d0:	86c5a023          	sw	a2,-1952(a1) # 8000212c <counter_names>
800018d4:	40d787b3          	sub	a5,a5,a3
800018d8:	00001697          	auipc	a3,0x1
800018dc:	84f6ae23          	sw	a5,-1956(a3) # 80002134 <counters>
800018e0:	b02027f3          	csrr	a5,minstret
800018e4:	00051e63          	bnez	a0,80001900 <setStats+0x50>
800018e8:	00472703          	lw	a4,4(a4)
800018ec:	00001697          	auipc	a3,0x1
800018f0:	80868693          	addi	a3,a3,-2040 # 800020f4 <main+0x334>
800018f4:	00001617          	auipc	a2,0x1
800018f8:	82d62e23          	sw	a3,-1988(a2) # 80002130 <counter_names+0x4>
800018fc:	40e787b3          	sub	a5,a5,a4
80001900:	00001717          	auipc	a4,0x1
80001904:	82f72c23          	sw	a5,-1992(a4) # 80002138 <counters+0x4>
80001908:	00008067          	ret

8000190c <tohost_exit>:
8000190c:	00151513          	slli	a0,a0,0x1
80001910:	fffff697          	auipc	a3,0xfffff
80001914:	6f068693          	addi	a3,a3,1776 # 80001000 <tohost>
80001918:	00156713          	ori	a4,a0,1
8000191c:	00000793          	li	a5,0
80001920:	00e6a023          	sw	a4,0(a3)
80001924:	00f6a223          	sw	a5,4(a3)
80001928:	0000006f          	j	80001928 <tohost_exit+0x1c>

8000192c <handle_trap>:
8000192c:	00001637          	lui	a2,0x1
80001930:	fffff797          	auipc	a5,0xfffff
80001934:	6d078793          	addi	a5,a5,1744 # 80001000 <tohost>
80001938:	a7360613          	addi	a2,a2,-1421 # a73 <_tbss_end+0xa2f>
8000193c:	00000693          	li	a3,0
80001940:	00c7a023          	sw	a2,0(a5)
80001944:	00d7a223          	sw	a3,4(a5)
80001948:	0000006f          	j	80001948 <handle_trap+0x1c>

8000194c <exit>:
8000194c:	ff010113          	addi	sp,sp,-16
80001950:	00112623          	sw	ra,12(sp)
80001954:	fb9ff0ef          	jal	ra,8000190c <tohost_exit>

80001958 <abort>:
80001958:	fffff797          	auipc	a5,0xfffff
8000195c:	6a878793          	addi	a5,a5,1704 # 80001000 <tohost>
80001960:	10d00613          	li	a2,269
80001964:	00000693          	li	a3,0
80001968:	00c7a023          	sw	a2,0(a5)
8000196c:	00d7a223          	sw	a3,4(a5)
80001970:	0000006f          	j	80001970 <abort+0x18>

80001974 <printstr>:
80001974:	00054783          	lbu	a5,0(a0)
80001978:	00050613          	mv	a2,a0
8000197c:	02078063          	beqz	a5,8000199c <printstr+0x28>
80001980:	00160613          	addi	a2,a2,1
80001984:	00064783          	lbu	a5,0(a2)
80001988:	fe079ce3          	bnez	a5,80001980 <printstr+0xc>
8000198c:	40a60633          	sub	a2,a2,a0
80001990:	00000693          	li	a3,0
80001994:	00000593          	li	a1,0
80001998:	e19ff06f          	j	800017b0 <syscall.constprop.2>
8000199c:	00000613          	li	a2,0
800019a0:	00000693          	li	a3,0
800019a4:	00000593          	li	a1,0
800019a8:	e09ff06f          	j	800017b0 <syscall.constprop.2>

800019ac <thread_entry>:
800019ac:	00050463          	beqz	a0,800019b4 <thread_entry+0x8>
800019b0:	0000006f          	j	800019b0 <thread_entry+0x4>
800019b4:	00008067          	ret

800019b8 <printhex>:
800019b8:	fd010113          	addi	sp,sp,-48
800019bc:	02112623          	sw	ra,44(sp)
800019c0:	01b10793          	addi	a5,sp,27
800019c4:	00b10313          	addi	t1,sp,11
800019c8:	00900893          	li	a7,9
800019cc:	00f57693          	andi	a3,a0,15
800019d0:	01c59813          	slli	a6,a1,0x1c
800019d4:	00455513          	srli	a0,a0,0x4
800019d8:	05700613          	li	a2,87
800019dc:	0ff6f713          	andi	a4,a3,255
800019e0:	00d8e463          	bltu	a7,a3,800019e8 <printhex+0x30>
800019e4:	03000613          	li	a2,48
800019e8:	00c70733          	add	a4,a4,a2
800019ec:	00e78023          	sb	a4,0(a5)
800019f0:	fff78793          	addi	a5,a5,-1
800019f4:	00a86533          	or	a0,a6,a0
800019f8:	0045d593          	srli	a1,a1,0x4
800019fc:	fcf318e3          	bne	t1,a5,800019cc <printhex+0x14>
80001a00:	00c10513          	addi	a0,sp,12
80001a04:	00010e23          	sb	zero,28(sp)
80001a08:	f6dff0ef          	jal	ra,80001974 <printstr>
80001a0c:	02c12083          	lw	ra,44(sp)
80001a10:	03010113          	addi	sp,sp,48
80001a14:	00008067          	ret

80001a18 <printf>:
80001a18:	fc010113          	addi	sp,sp,-64
80001a1c:	02410313          	addi	t1,sp,36
80001a20:	02b12223          	sw	a1,36(sp)
80001a24:	02c12423          	sw	a2,40(sp)
80001a28:	02d12623          	sw	a3,44(sp)
80001a2c:	00050613          	mv	a2,a0
80001a30:	00030693          	mv	a3,t1
80001a34:	00000517          	auipc	a0,0x0
80001a38:	e0c50513          	addi	a0,a0,-500 # 80001840 <putchar>
80001a3c:	00000593          	li	a1,0
80001a40:	00112e23          	sw	ra,28(sp)
80001a44:	02e12823          	sw	a4,48(sp)
80001a48:	02f12a23          	sw	a5,52(sp)
80001a4c:	03012c23          	sw	a6,56(sp)
80001a50:	03112e23          	sw	a7,60(sp)
80001a54:	00612623          	sw	t1,12(sp)
80001a58:	9d9ff0ef          	jal	ra,80001430 <vprintfmt>
80001a5c:	01c12083          	lw	ra,28(sp)
80001a60:	00000513          	li	a0,0
80001a64:	04010113          	addi	sp,sp,64
80001a68:	00008067          	ret

80001a6c <sprintf>:
80001a6c:	fb010113          	addi	sp,sp,-80
80001a70:	03810313          	addi	t1,sp,56
80001a74:	02812423          	sw	s0,40(sp)
80001a78:	00a12623          	sw	a0,12(sp)
80001a7c:	02c12c23          	sw	a2,56(sp)
80001a80:	02d12e23          	sw	a3,60(sp)
80001a84:	00050413          	mv	s0,a0
80001a88:	00058613          	mv	a2,a1
80001a8c:	00000517          	auipc	a0,0x0
80001a90:	d0c50513          	addi	a0,a0,-756 # 80001798 <sprintf_putch.2835>
80001a94:	00c10593          	addi	a1,sp,12
80001a98:	00030693          	mv	a3,t1
80001a9c:	02112623          	sw	ra,44(sp)
80001aa0:	04f12223          	sw	a5,68(sp)
80001aa4:	04e12023          	sw	a4,64(sp)
80001aa8:	05012423          	sw	a6,72(sp)
80001aac:	05112623          	sw	a7,76(sp)
80001ab0:	00612e23          	sw	t1,28(sp)
80001ab4:	97dff0ef          	jal	ra,80001430 <vprintfmt>
80001ab8:	00c12783          	lw	a5,12(sp)
80001abc:	00078023          	sb	zero,0(a5)
80001ac0:	00c12503          	lw	a0,12(sp)
80001ac4:	02c12083          	lw	ra,44(sp)
80001ac8:	40850533          	sub	a0,a0,s0
80001acc:	02812403          	lw	s0,40(sp)
80001ad0:	05010113          	addi	sp,sp,80
80001ad4:	00008067          	ret

80001ad8 <memcpy>:
80001ad8:	00c5e7b3          	or	a5,a1,a2
80001adc:	00f567b3          	or	a5,a0,a5
80001ae0:	0037f793          	andi	a5,a5,3
80001ae4:	00c506b3          	add	a3,a0,a2
80001ae8:	02078463          	beqz	a5,80001b10 <memcpy+0x38>
80001aec:	00c58633          	add	a2,a1,a2
80001af0:	00050793          	mv	a5,a0
80001af4:	02d57e63          	bleu	a3,a0,80001b30 <memcpy+0x58>
80001af8:	00158593          	addi	a1,a1,1
80001afc:	fff5c703          	lbu	a4,-1(a1)
80001b00:	00178793          	addi	a5,a5,1
80001b04:	fee78fa3          	sb	a4,-1(a5)
80001b08:	feb618e3          	bne	a2,a1,80001af8 <memcpy+0x20>
80001b0c:	00008067          	ret
80001b10:	fed57ee3          	bleu	a3,a0,80001b0c <memcpy+0x34>
80001b14:	00050793          	mv	a5,a0
80001b18:	00458593          	addi	a1,a1,4
80001b1c:	ffc5a703          	lw	a4,-4(a1)
80001b20:	00478793          	addi	a5,a5,4
80001b24:	fee7ae23          	sw	a4,-4(a5)
80001b28:	fed7e8e3          	bltu	a5,a3,80001b18 <memcpy+0x40>
80001b2c:	00008067          	ret
80001b30:	00008067          	ret

80001b34 <memset>:
80001b34:	00c567b3          	or	a5,a0,a2
80001b38:	0037f793          	andi	a5,a5,3
80001b3c:	00c50633          	add	a2,a0,a2
80001b40:	02078063          	beqz	a5,80001b60 <memset+0x2c>
80001b44:	0ff5f593          	andi	a1,a1,255
80001b48:	00050793          	mv	a5,a0
80001b4c:	04c57063          	bleu	a2,a0,80001b8c <memset+0x58>
80001b50:	00178793          	addi	a5,a5,1
80001b54:	feb78fa3          	sb	a1,-1(a5)
80001b58:	fef61ce3          	bne	a2,a5,80001b50 <memset+0x1c>
80001b5c:	00008067          	ret
80001b60:	0ff5f593          	andi	a1,a1,255
80001b64:	00859713          	slli	a4,a1,0x8
80001b68:	00e5e733          	or	a4,a1,a4
80001b6c:	01071793          	slli	a5,a4,0x10
80001b70:	00f76733          	or	a4,a4,a5
80001b74:	fec574e3          	bleu	a2,a0,80001b5c <memset+0x28>
80001b78:	00050793          	mv	a5,a0
80001b7c:	00478793          	addi	a5,a5,4
80001b80:	fee7ae23          	sw	a4,-4(a5)
80001b84:	fec7ece3          	bltu	a5,a2,80001b7c <memset+0x48>
80001b88:	00008067          	ret
80001b8c:	00008067          	ret

80001b90 <_init>:
80001b90:	f6010113          	addi	sp,sp,-160
80001b94:	08812c23          	sw	s0,152(sp)
80001b98:	08912a23          	sw	s1,148(sp)
80001b9c:	00020493          	mv	s1,tp
80001ba0:	00020413          	mv	s0,tp
80001ba4:	40848433          	sub	s0,s1,s0
80001ba8:	00040613          	mv	a2,s0
80001bac:	09312623          	sw	s3,140(sp)
80001bb0:	09412423          	sw	s4,136(sp)
80001bb4:	00050993          	mv	s3,a0
80001bb8:	00058a13          	mv	s4,a1
80001bbc:	00020513          	mv	a0,tp
80001bc0:	00000597          	auipc	a1,0x0
80001bc4:	5c058593          	addi	a1,a1,1472 # 80002180 <_end>
80001bc8:	08112e23          	sw	ra,156(sp)
80001bcc:	09212823          	sw	s2,144(sp)
80001bd0:	09512223          	sw	s5,132(sp)
80001bd4:	00020a93          	mv	s5,tp
80001bd8:	f01ff0ef          	jal	ra,80001ad8 <memcpy>
80001bdc:	04420613          	addi	a2,tp,68 # 44 <_tbss_end>
80001be0:	40960633          	sub	a2,a2,s1
80001be4:	00000593          	li	a1,0
80001be8:	008a8533          	add	a0,s5,s0
80001bec:	f49ff0ef          	jal	ra,80001b34 <memset>
80001bf0:	000a0593          	mv	a1,s4
80001bf4:	00098513          	mv	a0,s3
80001bf8:	db5ff0ef          	jal	ra,800019ac <thread_entry>
80001bfc:	00000593          	li	a1,0
80001c00:	00000513          	li	a0,0
80001c04:	1bc000ef          	jal	ra,80001dc0 <main>
80001c08:	00000417          	auipc	s0,0x0
80001c0c:	52c40413          	addi	s0,s0,1324 # 80002134 <counters>
80001c10:	00042683          	lw	a3,0(s0)
80001c14:	03f10913          	addi	s2,sp,63
80001c18:	fc097913          	andi	s2,s2,-64
80001c1c:	00050493          	mv	s1,a0
80001c20:	04069463          	bnez	a3,80001c68 <_init+0xd8>
80001c24:	00442683          	lw	a3,4(s0)
80001c28:	00069663          	bnez	a3,80001c34 <_init+0xa4>
80001c2c:	00048513          	mv	a0,s1
80001c30:	cddff0ef          	jal	ra,8000190c <tohost_exit>
80001c34:	00090413          	mv	s0,s2
80001c38:	00000997          	auipc	s3,0x0
80001c3c:	4f498993          	addi	s3,s3,1268 # 8000212c <counter_names>
80001c40:	0049a603          	lw	a2,4(s3)
80001c44:	00040513          	mv	a0,s0
80001c48:	00000597          	auipc	a1,0x0
80001c4c:	4d058593          	addi	a1,a1,1232 # 80002118 <main+0x358>
80001c50:	e1dff0ef          	jal	ra,80001a6c <sprintf>
80001c54:	00a40433          	add	s0,s0,a0
80001c58:	fc890ae3          	beq	s2,s0,80001c2c <_init+0x9c>
80001c5c:	00090513          	mv	a0,s2
80001c60:	d15ff0ef          	jal	ra,80001974 <printstr>
80001c64:	fc9ff06f          	j	80001c2c <_init+0x9c>
80001c68:	00000997          	auipc	s3,0x0
80001c6c:	4c498993          	addi	s3,s3,1220 # 8000212c <counter_names>
80001c70:	0009a603          	lw	a2,0(s3)
80001c74:	00000597          	auipc	a1,0x0
80001c78:	4a458593          	addi	a1,a1,1188 # 80002118 <main+0x358>
80001c7c:	00090513          	mv	a0,s2
80001c80:	dedff0ef          	jal	ra,80001a6c <sprintf>
80001c84:	00442683          	lw	a3,4(s0)
80001c88:	00a90433          	add	s0,s2,a0
80001c8c:	fc0686e3          	beqz	a3,80001c58 <_init+0xc8>
80001c90:	fb1ff06f          	j	80001c40 <_init+0xb0>

80001c94 <strlen>:
80001c94:	00054783          	lbu	a5,0(a0)
80001c98:	00050713          	mv	a4,a0
80001c9c:	00078c63          	beqz	a5,80001cb4 <strlen+0x20>
80001ca0:	00150513          	addi	a0,a0,1
80001ca4:	00054783          	lbu	a5,0(a0)
80001ca8:	fe079ce3          	bnez	a5,80001ca0 <strlen+0xc>
80001cac:	40e50533          	sub	a0,a0,a4
80001cb0:	00008067          	ret
80001cb4:	00000513          	li	a0,0
80001cb8:	00008067          	ret

80001cbc <strnlen>:
80001cbc:	00050713          	mv	a4,a0
80001cc0:	02058663          	beqz	a1,80001cec <strnlen+0x30>
80001cc4:	00054783          	lbu	a5,0(a0)
80001cc8:	02078263          	beqz	a5,80001cec <strnlen+0x30>
80001ccc:	00b505b3          	add	a1,a0,a1
80001cd0:	00c0006f          	j	80001cdc <strnlen+0x20>
80001cd4:	00054783          	lbu	a5,0(a0)
80001cd8:	00078663          	beqz	a5,80001ce4 <strnlen+0x28>
80001cdc:	00150513          	addi	a0,a0,1
80001ce0:	feb51ae3          	bne	a0,a1,80001cd4 <strnlen+0x18>
80001ce4:	40e50533          	sub	a0,a0,a4
80001ce8:	00008067          	ret
80001cec:	00000513          	li	a0,0
80001cf0:	00008067          	ret

80001cf4 <strcmp>:
80001cf4:	00150513          	addi	a0,a0,1
80001cf8:	fff54783          	lbu	a5,-1(a0)
80001cfc:	00158593          	addi	a1,a1,1
80001d00:	fff5c703          	lbu	a4,-1(a1)
80001d04:	00078863          	beqz	a5,80001d14 <strcmp+0x20>
80001d08:	fee786e3          	beq	a5,a4,80001cf4 <strcmp>
80001d0c:	40e78533          	sub	a0,a5,a4
80001d10:	00008067          	ret
80001d14:	00000793          	li	a5,0
80001d18:	ff5ff06f          	j	80001d0c <strcmp+0x18>

80001d1c <strcpy>:
80001d1c:	00050793          	mv	a5,a0
80001d20:	00158593          	addi	a1,a1,1
80001d24:	fff5c703          	lbu	a4,-1(a1)
80001d28:	00178793          	addi	a5,a5,1
80001d2c:	fee78fa3          	sb	a4,-1(a5)
80001d30:	fe0718e3          	bnez	a4,80001d20 <strcpy+0x4>
80001d34:	00008067          	ret

80001d38 <atol>:
80001d38:	00054783          	lbu	a5,0(a0)
80001d3c:	02000713          	li	a4,32
80001d40:	00e79863          	bne	a5,a4,80001d50 <atol+0x18>
80001d44:	00150513          	addi	a0,a0,1
80001d48:	00054783          	lbu	a5,0(a0)
80001d4c:	fee78ce3          	beq	a5,a4,80001d44 <atol+0xc>
80001d50:	fd578713          	addi	a4,a5,-43
80001d54:	0fd77713          	andi	a4,a4,253
80001d58:	04070263          	beqz	a4,80001d9c <atol+0x64>
80001d5c:	00054683          	lbu	a3,0(a0)
80001d60:	00050793          	mv	a5,a0
80001d64:	00000613          	li	a2,0
80001d68:	04068863          	beqz	a3,80001db8 <atol+0x80>
80001d6c:	00000513          	li	a0,0
80001d70:	00178793          	addi	a5,a5,1
80001d74:	fd068593          	addi	a1,a3,-48
80001d78:	00251713          	slli	a4,a0,0x2
80001d7c:	0007c683          	lbu	a3,0(a5)
80001d80:	00a70533          	add	a0,a4,a0
80001d84:	00151513          	slli	a0,a0,0x1
80001d88:	00a58533          	add	a0,a1,a0
80001d8c:	fe0692e3          	bnez	a3,80001d70 <atol+0x38>
80001d90:	00060463          	beqz	a2,80001d98 <atol+0x60>
80001d94:	40a00533          	neg	a0,a0
80001d98:	00008067          	ret
80001d9c:	00154683          	lbu	a3,1(a0)
80001da0:	fd378793          	addi	a5,a5,-45
80001da4:	0017b613          	seqz	a2,a5
80001da8:	00150793          	addi	a5,a0,1
80001dac:	fc0690e3          	bnez	a3,80001d6c <atol+0x34>
80001db0:	00000513          	li	a0,0
80001db4:	fddff06f          	j	80001d90 <atol+0x58>
80001db8:	00000513          	li	a0,0
80001dbc:	00008067          	ret

Disassembly of section .text.startup:

80001dc0 <main>:
80001dc0:	00700713          	li	a4,7
80001dc4:	00000797          	auipc	a5,0x0
80001dc8:	37878793          	addi	a5,a5,888 # 8000213c <g_nodePool>
80001dcc:	00000697          	auipc	a3,0x0
80001dd0:	34f6ae23          	sw	a5,860(a3) # 80002128 <g_nodeFreeList+0x4>
80001dd4:	00000697          	auipc	a3,0x0
80001dd8:	34e6a823          	sw	a4,848(a3) # 80002124 <g_nodeFreeList>
80001ddc:	00000697          	auipc	a3,0x0
80001de0:	3806aa23          	sw	zero,916(a3) # 80002170 <g_nodePool+0x34>
80001de4:	06300693          	li	a3,99
80001de8:	00000617          	auipc	a2,0x0
80001dec:	38d62223          	sw	a3,900(a2) # 8000216c <g_nodePool+0x30>
80001df0:	00000697          	auipc	a3,0x0
80001df4:	35468693          	addi	a3,a3,852 # 80002144 <g_nodePool+0x8>
80001df8:	00000617          	auipc	a2,0x0
80001dfc:	34d62423          	sw	a3,840(a2) # 80002140 <g_nodePool+0x4>
80001e00:	00000697          	auipc	a3,0x0
80001e04:	3206ae23          	sw	zero,828(a3) # 8000213c <g_nodePool>
80001e08:	00000697          	auipc	a3,0x0
80001e0c:	34468693          	addi	a3,a3,836 # 8000214c <g_nodePool+0x10>
80001e10:	00000617          	auipc	a2,0x0
80001e14:	32d62c23          	sw	a3,824(a2) # 80002148 <g_nodePool+0xc>
80001e18:	00100693          	li	a3,1
80001e1c:	00000617          	auipc	a2,0x0
80001e20:	32d62423          	sw	a3,808(a2) # 80002144 <g_nodePool+0x8>
80001e24:	00000697          	auipc	a3,0x0
80001e28:	33068693          	addi	a3,a3,816 # 80002154 <g_nodePool+0x18>
80001e2c:	00000617          	auipc	a2,0x0
80001e30:	32d62223          	sw	a3,804(a2) # 80002150 <g_nodePool+0x14>
80001e34:	00200693          	li	a3,2
80001e38:	00000617          	auipc	a2,0x0
80001e3c:	30d62a23          	sw	a3,788(a2) # 8000214c <g_nodePool+0x10>
80001e40:	00000697          	auipc	a3,0x0
80001e44:	31c68693          	addi	a3,a3,796 # 8000215c <g_nodePool+0x20>
80001e48:	00000617          	auipc	a2,0x0
80001e4c:	30d62823          	sw	a3,784(a2) # 80002158 <g_nodePool+0x1c>
80001e50:	00300693          	li	a3,3
80001e54:	00000617          	auipc	a2,0x0
80001e58:	30d62023          	sw	a3,768(a2) # 80002154 <g_nodePool+0x18>
80001e5c:	00000697          	auipc	a3,0x0
80001e60:	30868693          	addi	a3,a3,776 # 80002164 <g_nodePool+0x28>
80001e64:	00000617          	auipc	a2,0x0
80001e68:	2ed62e23          	sw	a3,764(a2) # 80002160 <g_nodePool+0x24>
80001e6c:	00400693          	li	a3,4
80001e70:	00000617          	auipc	a2,0x0
80001e74:	2ed62623          	sw	a3,748(a2) # 8000215c <g_nodePool+0x20>
80001e78:	00000697          	auipc	a3,0x0
80001e7c:	2f468693          	addi	a3,a3,756 # 8000216c <g_nodePool+0x30>
80001e80:	fd010113          	addi	sp,sp,-48
80001e84:	00000617          	auipc	a2,0x0
80001e88:	2ed62223          	sw	a3,740(a2) # 80002168 <g_nodePool+0x2c>
80001e8c:	00500693          	li	a3,5
80001e90:	00000617          	auipc	a2,0x0
80001e94:	2cd62a23          	sw	a3,724(a2) # 80002164 <g_nodePool+0x28>
80001e98:	02112623          	sw	ra,44(sp)
80001e9c:	00e12023          	sw	a4,0(sp)
80001ea0:	00012223          	sw	zero,4(sp)
80001ea4:	00012423          	sw	zero,8(sp)
80001ea8:	00012623          	sw	zero,12(sp)
80001eac:	00012823          	sw	zero,16(sp)
80001eb0:	00012a23          	sw	zero,20(sp)
80001eb4:	00012c23          	sw	zero,24(sp)
80001eb8:	00012e23          	sw	zero,28(sp)
80001ebc:	00000693          	li	a3,0
80001ec0:	0080006f          	j	80001ec8 <main+0x108>
80001ec4:	00080793          	mv	a5,a6
80001ec8:	0047a803          	lw	a6,4(a5)
80001ecc:	00e7a023          	sw	a4,0(a5)
80001ed0:	00d7a223          	sw	a3,4(a5)
80001ed4:	fff70713          	addi	a4,a4,-1
80001ed8:	00078693          	mv	a3,a5
80001edc:	fe0714e3          	bnez	a4,80001ec4 <main+0x104>
80001ee0:	00700593          	li	a1,7
80001ee4:	01810713          	addi	a4,sp,24
80001ee8:	01010693          	addi	a3,sp,16
80001eec:	00810613          	addi	a2,sp,8
80001ef0:	00010513          	mv	a0,sp
80001ef4:	00f12623          	sw	a5,12(sp)
80001ef8:	00700793          	li	a5,7
80001efc:	00f12423          	sw	a5,8(sp)
80001f00:	00000897          	auipc	a7,0x0
80001f04:	2308a423          	sw	a6,552(a7) # 80002128 <g_nodeFreeList+0x4>
80001f08:	c04ff0ef          	jal	ra,8000130c <towers_solve_h>
80001f0c:	00010513          	mv	a0,sp
80001f10:	accff0ef          	jal	ra,800011dc <towers_clear>
80001f14:	00100513          	li	a0,1
80001f18:	999ff0ef          	jal	ra,800018b0 <setStats>
80001f1c:	00012583          	lw	a1,0(sp)
80001f20:	01810713          	addi	a4,sp,24
80001f24:	01010693          	addi	a3,sp,16
80001f28:	00810613          	addi	a2,sp,8
80001f2c:	00010513          	mv	a0,sp
80001f30:	bdcff0ef          	jal	ra,8000130c <towers_solve_h>
80001f34:	00000513          	li	a0,0
80001f38:	979ff0ef          	jal	ra,800018b0 <setStats>
80001f3c:	00812783          	lw	a5,8(sp)
80001f40:	00200513          	li	a0,2
80001f44:	00079c63          	bnez	a5,80001f5c <main+0x19c>
80001f48:	01012783          	lw	a5,16(sp)
80001f4c:	00300513          	li	a0,3
80001f50:	00079663          	bnez	a5,80001f5c <main+0x19c>
80001f54:	00010513          	mv	a0,sp
80001f58:	8f0ff0ef          	jal	ra,80001048 <towers_verify.part.0>
80001f5c:	02c12083          	lw	ra,44(sp)
80001f60:	03010113          	addi	sp,sp,48
80001f64:	00008067          	ret
80001f68:	ff010113          	addi	sp,sp,-16
80001f6c:	00000517          	auipc	a0,0x0
80001f70:	19450513          	addi	a0,a0,404 # 80002100 <main+0x340>
80001f74:	00112623          	sw	ra,12(sp)
80001f78:	9fdff0ef          	jal	ra,80001974 <printstr>
80001f7c:	00c12083          	lw	ra,12(sp)
80001f80:	fff00513          	li	a0,-1
80001f84:	01010113          	addi	sp,sp,16
80001f88:	00008067          	ret
