
towers.riscv:     file format elf32-littleriscv


Disassembly of section .text.init:

80000000 <_start>:
80000000:	00000093          	li	ra,0
80000004:	00000113          	li	sp,0
80000008:	00000193          	li	gp,0
8000000c:	00000213          	li	tp,0
80000010:	00000293          	li	t0,0
80000014:	00000313          	li	t1,0
80000018:	00000393          	li	t2,0
8000001c:	00000413          	li	s0,0
80000020:	00000493          	li	s1,0
80000024:	00000513          	li	a0,0
80000028:	00000593          	li	a1,0
8000002c:	00000613          	li	a2,0
80000030:	00000693          	li	a3,0
80000034:	00000713          	li	a4,0
80000038:	00000793          	li	a5,0
8000003c:	00000813          	li	a6,0
80000040:	00000893          	li	a7,0
80000044:	00000913          	li	s2,0
80000048:	00000993          	li	s3,0
8000004c:	00000a13          	li	s4,0
80000050:	00000a93          	li	s5,0
80000054:	00000b13          	li	s6,0
80000058:	00000b93          	li	s7,0
8000005c:	00000c13          	li	s8,0
80000060:	00000c93          	li	s9,0
80000064:	00000d13          	li	s10,0
80000068:	00000d93          	li	s11,0
8000006c:	00000e13          	li	t3,0
80000070:	00000e93          	li	t4,0
80000074:	00000f13          	li	t5,0
80000078:	00000f93          	li	t6,0
8000007c:	0001e2b7          	lui	t0,0x1e
80000080:	3002a073          	csrs	mstatus,t0
80000084:	00100293          	li	t0,1
80000088:	01f29293          	slli	t0,t0,0x1f
8000008c:	0002ca63          	bltz	t0,800000a0 <_start+0xa0>
80000090:	00100513          	li	a0,1
80000094:	00001297          	auipc	t0,0x1
80000098:	f6a2a623          	sw	a0,-148(t0) # 80001000 <tohost>
8000009c:	ff5ff06f          	j	80000090 <_start+0x90>
800000a0:	00000297          	auipc	t0,0x0
800000a4:	04028293          	addi	t0,t0,64 # 800000e0 <trap_entry>
800000a8:	30529073          	csrw	mtvec,t0
800000ac:	00004197          	auipc	gp,0x4
800000b0:	cbc18193          	addi	gp,gp,-836 # 80003d68 <__global_pointer$>
800000b4:	89718213          	addi	tp,gp,-1897 # 800035ff <_end+0x3f>
800000b8:	fc027213          	andi	tp,tp,-64
800000bc:	f1402573          	csrr	a0,mhartid
800000c0:	00100593          	li	a1,1
800000c4:	00b57063          	bgeu	a0,a1,800000c4 <_start+0xc4>
800000c8:	01151613          	slli	a2,a0,0x11
800000cc:	00c20233          	add	tp,tp,a2
800000d0:	00150113          	addi	sp,a0,1
800000d4:	01111113          	slli	sp,sp,0x11
800000d8:	00410133          	add	sp,sp,tp
800000dc:	4290106f          	j	80001d04 <_init>

800000e0 <trap_entry>:
800000e0:	ef010113          	addi	sp,sp,-272
800000e4:	00112223          	sw	ra,4(sp)
800000e8:	00212423          	sw	sp,8(sp)
800000ec:	00312623          	sw	gp,12(sp)
800000f0:	00412823          	sw	tp,16(sp)
800000f4:	00512a23          	sw	t0,20(sp)
800000f8:	00612c23          	sw	t1,24(sp)
800000fc:	00712e23          	sw	t2,28(sp)
80000100:	02812023          	sw	s0,32(sp)
80000104:	02912223          	sw	s1,36(sp)
80000108:	02a12423          	sw	a0,40(sp)
8000010c:	02b12623          	sw	a1,44(sp)
80000110:	02c12823          	sw	a2,48(sp)
80000114:	02d12a23          	sw	a3,52(sp)
80000118:	02e12c23          	sw	a4,56(sp)
8000011c:	02f12e23          	sw	a5,60(sp)
80000120:	05012023          	sw	a6,64(sp)
80000124:	05112223          	sw	a7,68(sp)
80000128:	05212423          	sw	s2,72(sp)
8000012c:	05312623          	sw	s3,76(sp)
80000130:	05412823          	sw	s4,80(sp)
80000134:	05512a23          	sw	s5,84(sp)
80000138:	05612c23          	sw	s6,88(sp)
8000013c:	05712e23          	sw	s7,92(sp)
80000140:	07812023          	sw	s8,96(sp)
80000144:	07912223          	sw	s9,100(sp)
80000148:	07a12423          	sw	s10,104(sp)
8000014c:	07b12623          	sw	s11,108(sp)
80000150:	07c12823          	sw	t3,112(sp)
80000154:	07d12a23          	sw	t4,116(sp)
80000158:	07e12c23          	sw	t5,120(sp)
8000015c:	07f12e23          	sw	t6,124(sp)
80000160:	34202573          	csrr	a0,mcause
80000164:	341025f3          	csrr	a1,mepc
80000168:	00010613          	mv	a2,sp
8000016c:	129010ef          	jal	ra,80001a94 <handle_trap>
80000170:	34151073          	csrw	mepc,a0
80000174:	000022b7          	lui	t0,0x2
80000178:	80028293          	addi	t0,t0,-2048 # 1800 <buflen.2941+0x17c0>
8000017c:	3002a073          	csrs	mstatus,t0
80000180:	00412083          	lw	ra,4(sp)
80000184:	00812103          	lw	sp,8(sp)
80000188:	00c12183          	lw	gp,12(sp)
8000018c:	01012203          	lw	tp,16(sp)
80000190:	01412283          	lw	t0,20(sp)
80000194:	01812303          	lw	t1,24(sp)
80000198:	01c12383          	lw	t2,28(sp)
8000019c:	02012403          	lw	s0,32(sp)
800001a0:	02412483          	lw	s1,36(sp)
800001a4:	02812503          	lw	a0,40(sp)
800001a8:	02c12583          	lw	a1,44(sp)
800001ac:	03012603          	lw	a2,48(sp)
800001b0:	03412683          	lw	a3,52(sp)
800001b4:	03812703          	lw	a4,56(sp)
800001b8:	03c12783          	lw	a5,60(sp)
800001bc:	04012803          	lw	a6,64(sp)
800001c0:	04412883          	lw	a7,68(sp)
800001c4:	04812903          	lw	s2,72(sp)
800001c8:	04c12983          	lw	s3,76(sp)
800001cc:	05012a03          	lw	s4,80(sp)
800001d0:	05412a83          	lw	s5,84(sp)
800001d4:	05812b03          	lw	s6,88(sp)
800001d8:	05c12b83          	lw	s7,92(sp)
800001dc:	06012c03          	lw	s8,96(sp)
800001e0:	06412c83          	lw	s9,100(sp)
800001e4:	06812d03          	lw	s10,104(sp)
800001e8:	06c12d83          	lw	s11,108(sp)
800001ec:	07012e03          	lw	t3,112(sp)
800001f0:	07412e83          	lw	t4,116(sp)
800001f4:	07812f03          	lw	t5,120(sp)
800001f8:	07c12f83          	lw	t6,124(sp)
800001fc:	11010113          	addi	sp,sp,272
80000200:	30200073          	mret

Disassembly of section .text:

80001048 <towers_verify.part.0>:
80001048:	00052603          	lw	a2,0(a0)
8000104c:	01852783          	lw	a5,24(a0)
80001050:	02c79863          	bne	a5,a2,80001080 <towers_verify.part.0+0x38>
80001054:	01c52783          	lw	a5,28(a0)
80001058:	02078863          	beqz	a5,80001088 <towers_verify.part.0+0x40>
8000105c:	00000713          	li	a4,0
80001060:	00c0006f          	j	8000106c <towers_verify.part.0+0x24>
80001064:	0047a783          	lw	a5,4(a5)
80001068:	02078063          	beqz	a5,80001088 <towers_verify.part.0+0x40>
8000106c:	0007a683          	lw	a3,0(a5)
80001070:	00170713          	addi	a4,a4,1
80001074:	fed708e3          	beq	a4,a3,80001064 <towers_verify.part.0+0x1c>
80001078:	00500513          	li	a0,5
8000107c:	00008067          	ret
80001080:	00400513          	li	a0,4
80001084:	00008067          	ret
80001088:	00452703          	lw	a4,4(a0)
8000108c:	00100793          	li	a5,1
80001090:	00c79633          	sll	a2,a5,a2
80001094:	fff60613          	addi	a2,a2,-1
80001098:	00000513          	li	a0,0
8000109c:	fec700e3          	beq	a4,a2,8000107c <towers_verify.part.0+0x34>
800010a0:	00600513          	li	a0,6
800010a4:	00008067          	ret

800010a8 <list_getSize>:
800010a8:	00052503          	lw	a0,0(a0)
800010ac:	00008067          	ret

800010b0 <list_init>:
800010b0:	00052023          	sw	zero,0(a0)
800010b4:	00052223          	sw	zero,4(a0)
800010b8:	00008067          	ret

800010bc <list_push>:
800010bc:	00002697          	auipc	a3,0x2
800010c0:	4ac68693          	addi	a3,a3,1196 # 80003568 <g_nodeFreeList>
800010c4:	0046a783          	lw	a5,4(a3)
800010c8:	00052703          	lw	a4,0(a0)
800010cc:	0047a603          	lw	a2,4(a5)
800010d0:	00170713          	addi	a4,a4,1
800010d4:	00c6a223          	sw	a2,4(a3)
800010d8:	00452683          	lw	a3,4(a0)
800010dc:	00d7a223          	sw	a3,4(a5)
800010e0:	00f52223          	sw	a5,4(a0)
800010e4:	00b7a023          	sw	a1,0(a5)
800010e8:	00e52023          	sw	a4,0(a0)
800010ec:	00008067          	ret

800010f0 <list_pop>:
800010f0:	00452703          	lw	a4,4(a0)
800010f4:	00050793          	mv	a5,a0
800010f8:	00052683          	lw	a3,0(a0)
800010fc:	00472583          	lw	a1,4(a4)
80001100:	00072503          	lw	a0,0(a4)
80001104:	00002617          	auipc	a2,0x2
80001108:	46460613          	addi	a2,a2,1124 # 80003568 <g_nodeFreeList>
8000110c:	00b7a223          	sw	a1,4(a5)
80001110:	00462583          	lw	a1,4(a2)
80001114:	fff68693          	addi	a3,a3,-1
80001118:	00b72223          	sw	a1,4(a4)
8000111c:	00e62223          	sw	a4,4(a2)
80001120:	00d7a023          	sw	a3,0(a5)
80001124:	00008067          	ret

80001128 <list_clear>:
80001128:	00052703          	lw	a4,0(a0)
8000112c:	02e05863          	blez	a4,8000115c <list_clear+0x34>
80001130:	00002697          	auipc	a3,0x2
80001134:	43868693          	addi	a3,a3,1080 # 80003568 <g_nodeFreeList>
80001138:	00452783          	lw	a5,4(a0)
8000113c:	fff70713          	addi	a4,a4,-1
80001140:	0047a603          	lw	a2,4(a5)
80001144:	00c52223          	sw	a2,4(a0)
80001148:	0046a603          	lw	a2,4(a3)
8000114c:	00c7a223          	sw	a2,4(a5)
80001150:	00f6a223          	sw	a5,4(a3)
80001154:	fe0712e3          	bnez	a4,80001138 <list_clear+0x10>
80001158:	00052023          	sw	zero,0(a0)
8000115c:	00008067          	ret

80001160 <towers_init>:
80001160:	00b52023          	sw	a1,0(a0)
80001164:	00052223          	sw	zero,4(a0)
80001168:	00052423          	sw	zero,8(a0)
8000116c:	00052623          	sw	zero,12(a0)
80001170:	00052823          	sw	zero,16(a0)
80001174:	00052a23          	sw	zero,20(a0)
80001178:	00052c23          	sw	zero,24(a0)
8000117c:	00052e23          	sw	zero,28(a0)
80001180:	04b05263          	blez	a1,800011c4 <towers_init+0x64>
80001184:	00002817          	auipc	a6,0x2
80001188:	3e480813          	addi	a6,a6,996 # 80003568 <g_nodeFreeList>
8000118c:	00482783          	lw	a5,4(a6)
80001190:	00058713          	mv	a4,a1
80001194:	00000693          	li	a3,0
80001198:	0080006f          	j	800011a0 <towers_init+0x40>
8000119c:	00060793          	mv	a5,a2
800011a0:	0047a603          	lw	a2,4(a5)
800011a4:	00e7a023          	sw	a4,0(a5)
800011a8:	00d7a223          	sw	a3,4(a5)
800011ac:	fff70713          	addi	a4,a4,-1
800011b0:	00078693          	mv	a3,a5
800011b4:	fe0714e3          	bnez	a4,8000119c <towers_init+0x3c>
800011b8:	00c82223          	sw	a2,4(a6)
800011bc:	00f52623          	sw	a5,12(a0)
800011c0:	00b52423          	sw	a1,8(a0)
800011c4:	00008067          	ret

800011c8 <towers_clear>:
800011c8:	00852703          	lw	a4,8(a0)
800011cc:	02e05e63          	blez	a4,80001208 <towers_clear+0x40>
800011d0:	00002597          	auipc	a1,0x2
800011d4:	39858593          	addi	a1,a1,920 # 80003568 <g_nodeFreeList>
800011d8:	00c52783          	lw	a5,12(a0)
800011dc:	0045a683          	lw	a3,4(a1)
800011e0:	0080006f          	j	800011e8 <towers_clear+0x20>
800011e4:	00060793          	mv	a5,a2
800011e8:	0047a603          	lw	a2,4(a5)
800011ec:	fff70713          	addi	a4,a4,-1
800011f0:	00d7a223          	sw	a3,4(a5)
800011f4:	00078693          	mv	a3,a5
800011f8:	fe0716e3          	bnez	a4,800011e4 <towers_clear+0x1c>
800011fc:	00f5a223          	sw	a5,4(a1)
80001200:	00c52623          	sw	a2,12(a0)
80001204:	00052423          	sw	zero,8(a0)
80001208:	01052703          	lw	a4,16(a0)
8000120c:	02e05e63          	blez	a4,80001248 <towers_clear+0x80>
80001210:	00002597          	auipc	a1,0x2
80001214:	35858593          	addi	a1,a1,856 # 80003568 <g_nodeFreeList>
80001218:	01452783          	lw	a5,20(a0)
8000121c:	0045a683          	lw	a3,4(a1)
80001220:	0080006f          	j	80001228 <towers_clear+0x60>
80001224:	00060793          	mv	a5,a2
80001228:	0047a603          	lw	a2,4(a5)
8000122c:	fff70713          	addi	a4,a4,-1
80001230:	00d7a223          	sw	a3,4(a5)
80001234:	00078693          	mv	a3,a5
80001238:	fe0716e3          	bnez	a4,80001224 <towers_clear+0x5c>
8000123c:	00f5a223          	sw	a5,4(a1)
80001240:	00c52a23          	sw	a2,20(a0)
80001244:	00052823          	sw	zero,16(a0)
80001248:	01852703          	lw	a4,24(a0)
8000124c:	02e05a63          	blez	a4,80001280 <towers_clear+0xb8>
80001250:	00002597          	auipc	a1,0x2
80001254:	31858593          	addi	a1,a1,792 # 80003568 <g_nodeFreeList>
80001258:	01c52783          	lw	a5,28(a0)
8000125c:	0045a683          	lw	a3,4(a1)
80001260:	0080006f          	j	80001268 <towers_clear+0xa0>
80001264:	00060793          	mv	a5,a2
80001268:	0047a603          	lw	a2,4(a5)
8000126c:	fff70713          	addi	a4,a4,-1
80001270:	00d7a223          	sw	a3,4(a5)
80001274:	00078693          	mv	a3,a5
80001278:	fe0716e3          	bnez	a4,80001264 <towers_clear+0x9c>
8000127c:	00f5a223          	sw	a5,4(a1)
80001280:	00052803          	lw	a6,0(a0)
80001284:	00052223          	sw	zero,4(a0)
80001288:	00052423          	sw	zero,8(a0)
8000128c:	00052623          	sw	zero,12(a0)
80001290:	00052823          	sw	zero,16(a0)
80001294:	00052a23          	sw	zero,20(a0)
80001298:	00052c23          	sw	zero,24(a0)
8000129c:	00052e23          	sw	zero,28(a0)
800012a0:	05005263          	blez	a6,800012e4 <towers_clear+0x11c>
800012a4:	00002597          	auipc	a1,0x2
800012a8:	2c458593          	addi	a1,a1,708 # 80003568 <g_nodeFreeList>
800012ac:	0045a783          	lw	a5,4(a1)
800012b0:	00080713          	mv	a4,a6
800012b4:	00000693          	li	a3,0
800012b8:	0080006f          	j	800012c0 <towers_clear+0xf8>
800012bc:	00060793          	mv	a5,a2
800012c0:	0047a603          	lw	a2,4(a5)
800012c4:	00e7a023          	sw	a4,0(a5)
800012c8:	00d7a223          	sw	a3,4(a5)
800012cc:	fff70713          	addi	a4,a4,-1
800012d0:	00078693          	mv	a3,a5
800012d4:	fe0714e3          	bnez	a4,800012bc <towers_clear+0xf4>
800012d8:	00c5a223          	sw	a2,4(a1)
800012dc:	00f52623          	sw	a5,12(a0)
800012e0:	01052423          	sw	a6,8(a0)
800012e4:	00008067          	ret

800012e8 <towers_solve_h>:
800012e8:	fe010113          	addi	sp,sp,-32
800012ec:	00812c23          	sw	s0,24(sp)
800012f0:	00912a23          	sw	s1,20(sp)
800012f4:	01212823          	sw	s2,16(sp)
800012f8:	01312623          	sw	s3,12(sp)
800012fc:	01412423          	sw	s4,8(sp)
80001300:	00112e23          	sw	ra,28(sp)
80001304:	00100793          	li	a5,1
80001308:	00050a13          	mv	s4,a0
8000130c:	00060913          	mv	s2,a2
80001310:	00070993          	mv	s3,a4
80001314:	00058493          	mv	s1,a1
80001318:	00068413          	mv	s0,a3
8000131c:	04f58863          	beq	a1,a5,8000136c <towers_solve_h+0x84>
80001320:	fff48493          	addi	s1,s1,-1
80001324:	00048593          	mv	a1,s1
80001328:	000a0513          	mv	a0,s4
8000132c:	00040713          	mv	a4,s0
80001330:	00098693          	mv	a3,s3
80001334:	00090613          	mv	a2,s2
80001338:	fb1ff0ef          	jal	ra,800012e8 <towers_solve_h>
8000133c:	00098713          	mv	a4,s3
80001340:	00040693          	mv	a3,s0
80001344:	00090613          	mv	a2,s2
80001348:	00100593          	li	a1,1
8000134c:	000a0513          	mv	a0,s4
80001350:	f99ff0ef          	jal	ra,800012e8 <towers_solve_h>
80001354:	00100793          	li	a5,1
80001358:	00090713          	mv	a4,s2
8000135c:	00f48a63          	beq	s1,a5,80001370 <towers_solve_h+0x88>
80001360:	00040913          	mv	s2,s0
80001364:	00070413          	mv	s0,a4
80001368:	fb9ff06f          	j	80001320 <towers_solve_h+0x38>
8000136c:	00060413          	mv	s0,a2
80001370:	00442783          	lw	a5,4(s0)
80001374:	00042683          	lw	a3,0(s0)
80001378:	004a2703          	lw	a4,4(s4)
8000137c:	0047a583          	lw	a1,4(a5)
80001380:	0007a603          	lw	a2,0(a5)
80001384:	fff68693          	addi	a3,a3,-1
80001388:	00b42223          	sw	a1,4(s0)
8000138c:	0049a583          	lw	a1,4(s3)
80001390:	00d42023          	sw	a3,0(s0)
80001394:	0009a683          	lw	a3,0(s3)
80001398:	00b7a223          	sw	a1,4(a5)
8000139c:	00f9a223          	sw	a5,4(s3)
800013a0:	00c7a023          	sw	a2,0(a5)
800013a4:	01c12083          	lw	ra,28(sp)
800013a8:	01812403          	lw	s0,24(sp)
800013ac:	00168793          	addi	a5,a3,1
800013b0:	00f9a023          	sw	a5,0(s3)
800013b4:	00170793          	addi	a5,a4,1
800013b8:	00fa2223          	sw	a5,4(s4)
800013bc:	01412483          	lw	s1,20(sp)
800013c0:	01012903          	lw	s2,16(sp)
800013c4:	00c12983          	lw	s3,12(sp)
800013c8:	00812a03          	lw	s4,8(sp)
800013cc:	02010113          	addi	sp,sp,32
800013d0:	00008067          	ret

800013d4 <towers_solve>:
800013d4:	00052583          	lw	a1,0(a0)
800013d8:	01850713          	addi	a4,a0,24
800013dc:	01050693          	addi	a3,a0,16
800013e0:	00850613          	addi	a2,a0,8
800013e4:	f05ff06f          	j	800012e8 <towers_solve_h>

800013e8 <towers_verify>:
800013e8:	00852703          	lw	a4,8(a0)
800013ec:	00071863          	bnez	a4,800013fc <towers_verify+0x14>
800013f0:	01052783          	lw	a5,16(a0)
800013f4:	00079863          	bnez	a5,80001404 <towers_verify+0x1c>
800013f8:	c51ff06f          	j	80001048 <towers_verify.part.0>
800013fc:	00200513          	li	a0,2
80001400:	00008067          	ret
80001404:	00300513          	li	a0,3
80001408:	00008067          	ret

8000140c <vprintfmt>:
8000140c:	eb010113          	addi	sp,sp,-336
80001410:	13912223          	sw	s9,292(sp)
80001414:	40000cb7          	lui	s9,0x40000
80001418:	fffc8793          	addi	a5,s9,-1 # 3fffffff <buflen.2941+0x3fffffbf>
8000141c:	14812423          	sw	s0,328(sp)
80001420:	14912223          	sw	s1,324(sp)
80001424:	15212023          	sw	s2,320(sp)
80001428:	13512a23          	sw	s5,308(sp)
8000142c:	14112623          	sw	ra,332(sp)
80001430:	13312e23          	sw	s3,316(sp)
80001434:	13412c23          	sw	s4,312(sp)
80001438:	13612823          	sw	s6,304(sp)
8000143c:	13712623          	sw	s7,300(sp)
80001440:	13812423          	sw	s8,296(sp)
80001444:	13a12023          	sw	s10,288(sp)
80001448:	11b12e23          	sw	s11,284(sp)
8000144c:	00050913          	mv	s2,a0
80001450:	00058493          	mv	s1,a1
80001454:	00060413          	mv	s0,a2
80001458:	00d12423          	sw	a3,8(sp)
8000145c:	02500a93          	li	s5,37
80001460:	00f12623          	sw	a5,12(sp)
80001464:	0140006f          	j	80001478 <vprintfmt+0x6c>
80001468:	06050463          	beqz	a0,800014d0 <vprintfmt+0xc4>
8000146c:	00048593          	mv	a1,s1
80001470:	00140413          	addi	s0,s0,1
80001474:	000900e7          	jalr	s2
80001478:	00044503          	lbu	a0,0(s0)
8000147c:	ff5516e3          	bne	a0,s5,80001468 <vprintfmt+0x5c>
80001480:	00144683          	lbu	a3,1(s0)
80001484:	00140d93          	addi	s11,s0,1
80001488:	000d8713          	mv	a4,s11
8000148c:	02000b93          	li	s7,32
80001490:	fff00993          	li	s3,-1
80001494:	fff00a13          	li	s4,-1
80001498:	00000593          	li	a1,0
8000149c:	05500613          	li	a2,85
800014a0:	00900513          	li	a0,9
800014a4:	fdd68793          	addi	a5,a3,-35
800014a8:	0ff7f793          	andi	a5,a5,255
800014ac:	00170413          	addi	s0,a4,1
800014b0:	06f66c63          	bltu	a2,a5,80001528 <vprintfmt+0x11c>
800014b4:	00002817          	auipc	a6,0x2
800014b8:	d5880813          	addi	a6,a6,-680 # 8000320c <main+0x1c0>
800014bc:	00279793          	slli	a5,a5,0x2
800014c0:	010787b3          	add	a5,a5,a6
800014c4:	0007a783          	lw	a5,0(a5)
800014c8:	010787b3          	add	a5,a5,a6
800014cc:	00078067          	jr	a5
800014d0:	14c12083          	lw	ra,332(sp)
800014d4:	14812403          	lw	s0,328(sp)
800014d8:	14412483          	lw	s1,324(sp)
800014dc:	14012903          	lw	s2,320(sp)
800014e0:	13c12983          	lw	s3,316(sp)
800014e4:	13812a03          	lw	s4,312(sp)
800014e8:	13412a83          	lw	s5,308(sp)
800014ec:	13012b03          	lw	s6,304(sp)
800014f0:	12c12b83          	lw	s7,300(sp)
800014f4:	12812c03          	lw	s8,296(sp)
800014f8:	12412c83          	lw	s9,292(sp)
800014fc:	12012d03          	lw	s10,288(sp)
80001500:	11c12d83          	lw	s11,284(sp)
80001504:	15010113          	addi	sp,sp,336
80001508:	00008067          	ret
8000150c:	00068b93          	mv	s7,a3
80001510:	00174683          	lbu	a3,1(a4)
80001514:	00040713          	mv	a4,s0
80001518:	00170413          	addi	s0,a4,1
8000151c:	fdd68793          	addi	a5,a3,-35
80001520:	0ff7f793          	andi	a5,a5,255
80001524:	f8f678e3          	bgeu	a2,a5,800014b4 <vprintfmt+0xa8>
80001528:	00048593          	mv	a1,s1
8000152c:	02500513          	li	a0,37
80001530:	000900e7          	jalr	s2
80001534:	000d8413          	mv	s0,s11
80001538:	f41ff06f          	j	80001478 <vprintfmt+0x6c>
8000153c:	00174803          	lbu	a6,1(a4)
80001540:	fd068993          	addi	s3,a3,-48
80001544:	00040713          	mv	a4,s0
80001548:	fd080793          	addi	a5,a6,-48
8000154c:	00080693          	mv	a3,a6
80001550:	02f56663          	bltu	a0,a5,8000157c <vprintfmt+0x170>
80001554:	00299793          	slli	a5,s3,0x2
80001558:	013789b3          	add	s3,a5,s3
8000155c:	00170713          	addi	a4,a4,1
80001560:	00199993          	slli	s3,s3,0x1
80001564:	010989b3          	add	s3,s3,a6
80001568:	00074803          	lbu	a6,0(a4)
8000156c:	fd098993          	addi	s3,s3,-48
80001570:	fd080793          	addi	a5,a6,-48
80001574:	00080693          	mv	a3,a6
80001578:	fcf57ee3          	bgeu	a0,a5,80001554 <vprintfmt+0x148>
8000157c:	f20a54e3          	bgez	s4,800014a4 <vprintfmt+0x98>
80001580:	00098a13          	mv	s4,s3
80001584:	fff00993          	li	s3,-1
80001588:	f1dff06f          	j	800014a4 <vprintfmt+0x98>
8000158c:	00174683          	lbu	a3,1(a4)
80001590:	00040713          	mv	a4,s0
80001594:	f11ff06f          	j	800014a4 <vprintfmt+0x98>
80001598:	00048593          	mv	a1,s1
8000159c:	02500513          	li	a0,37
800015a0:	000900e7          	jalr	s2
800015a4:	ed5ff06f          	j	80001478 <vprintfmt+0x6c>
800015a8:	00812783          	lw	a5,8(sp)
800015ac:	00174683          	lbu	a3,1(a4)
800015b0:	00040713          	mv	a4,s0
800015b4:	0007a983          	lw	s3,0(a5)
800015b8:	00478793          	addi	a5,a5,4
800015bc:	00f12423          	sw	a5,8(sp)
800015c0:	fbdff06f          	j	8000157c <vprintfmt+0x170>
800015c4:	03000513          	li	a0,48
800015c8:	00048593          	mv	a1,s1
800015cc:	000900e7          	jalr	s2
800015d0:	00048593          	mv	a1,s1
800015d4:	07800513          	li	a0,120
800015d8:	000900e7          	jalr	s2
800015dc:	00812783          	lw	a5,8(sp)
800015e0:	01000c13          	li	s8,16
800015e4:	00012223          	sw	zero,4(sp)
800015e8:	00478713          	addi	a4,a5,4
800015ec:	00812783          	lw	a5,8(sp)
800015f0:	00000d93          	li	s11,0
800015f4:	0007a983          	lw	s3,0(a5)
800015f8:	00e12423          	sw	a4,8(sp)
800015fc:	000c0613          	mv	a2,s8
80001600:	00000693          	li	a3,0
80001604:	00098513          	mv	a0,s3
80001608:	000d8593          	mv	a1,s11
8000160c:	478010ef          	jal	ra,80002a84 <__umoddi3>
80001610:	00a12823          	sw	a0,16(sp)
80001614:	00000793          	li	a5,0
80001618:	00050c93          	mv	s9,a0
8000161c:	23b78063          	beq	a5,s11,8000183c <vprintfmt+0x430>
80001620:	01410b13          	addi	s6,sp,20
80001624:	00100d13          	li	s10,1
80001628:	000c0613          	mv	a2,s8
8000162c:	00000693          	li	a3,0
80001630:	00098513          	mv	a0,s3
80001634:	000d8593          	mv	a1,s11
80001638:	675000ef          	jal	ra,800024ac <__udivdi3>
8000163c:	000c0613          	mv	a2,s8
80001640:	00000693          	li	a3,0
80001644:	00050993          	mv	s3,a0
80001648:	00058d93          	mv	s11,a1
8000164c:	438010ef          	jal	ra,80002a84 <__umoddi3>
80001650:	00412783          	lw	a5,4(sp)
80001654:	00ab2023          	sw	a0,0(s6)
80001658:	01a12023          	sw	s10,0(sp)
8000165c:	00050c93          	mv	s9,a0
80001660:	004b0b13          	addi	s6,s6,4
80001664:	001d0d13          	addi	s10,s10,1
80001668:	fdb790e3          	bne	a5,s11,80001628 <vprintfmt+0x21c>
8000166c:	fb89fee3          	bgeu	s3,s8,80001628 <vprintfmt+0x21c>
80001670:	014d5c63          	bge	s10,s4,80001688 <vprintfmt+0x27c>
80001674:	fffa0a13          	addi	s4,s4,-1
80001678:	00048593          	mv	a1,s1
8000167c:	000b8513          	mv	a0,s7
80001680:	000900e7          	jalr	s2
80001684:	ff4d48e3          	blt	s10,s4,80001674 <vprintfmt+0x268>
80001688:	00012783          	lw	a5,0(sp)
8000168c:	00c12703          	lw	a4,12(sp)
80001690:	00900993          	li	s3,9
80001694:	00e78a33          	add	s4,a5,a4
80001698:	002a1a13          	slli	s4,s4,0x2
8000169c:	01010793          	addi	a5,sp,16
800016a0:	01478a33          	add	s4,a5,s4
800016a4:	00c0006f          	j	800016b0 <vprintfmt+0x2a4>
800016a8:	000a2c83          	lw	s9,0(s4)
800016ac:	ffca0a13          	addi	s4,s4,-4
800016b0:	0199b7b3          	sltu	a5,s3,s9
800016b4:	40f007b3          	neg	a5,a5
800016b8:	0277f793          	andi	a5,a5,39
800016bc:	03078793          	addi	a5,a5,48
800016c0:	01978533          	add	a0,a5,s9
800016c4:	00048593          	mv	a1,s1
800016c8:	000900e7          	jalr	s2
800016cc:	00c10793          	addi	a5,sp,12
800016d0:	fd479ce3          	bne	a5,s4,800016a8 <vprintfmt+0x29c>
800016d4:	da5ff06f          	j	80001478 <vprintfmt+0x6c>
800016d8:	00100793          	li	a5,1
800016dc:	16b7cc63          	blt	a5,a1,80001854 <vprintfmt+0x448>
800016e0:	00812703          	lw	a4,8(sp)
800016e4:	00470793          	addi	a5,a4,4
800016e8:	18058663          	beqz	a1,80001874 <vprintfmt+0x468>
800016ec:	00072983          	lw	s3,0(a4)
800016f0:	00f12423          	sw	a5,8(sp)
800016f4:	41f9dc13          	srai	s8,s3,0x1f
800016f8:	180c4e63          	bltz	s8,80001894 <vprintfmt+0x488>
800016fc:	000c0d93          	mv	s11,s8
80001700:	00012223          	sw	zero,4(sp)
80001704:	00a00c13          	li	s8,10
80001708:	ef5ff06f          	j	800015fc <vprintfmt+0x1f0>
8000170c:	01000c13          	li	s8,16
80001710:	00012223          	sw	zero,4(sp)
80001714:	00100793          	li	a5,1
80001718:	10b7c263          	blt	a5,a1,8000181c <vprintfmt+0x410>
8000171c:	00812783          	lw	a5,8(sp)
80001720:	00478713          	addi	a4,a5,4
80001724:	ec9ff06f          	j	800015ec <vprintfmt+0x1e0>
80001728:	00812783          	lw	a5,8(sp)
8000172c:	0007ad83          	lw	s11,0(a5)
80001730:	00478b13          	addi	s6,a5,4
80001734:	180d8463          	beqz	s11,800018bc <vprintfmt+0x4b0>
80001738:	09405863          	blez	s4,800017c8 <vprintfmt+0x3bc>
8000173c:	02d00793          	li	a5,45
80001740:	04fb9e63          	bne	s7,a5,8000179c <vprintfmt+0x390>
80001744:	000dc503          	lbu	a0,0(s11)
80001748:	02050863          	beqz	a0,80001778 <vprintfmt+0x36c>
8000174c:	fff00b93          	li	s7,-1
80001750:	0009c663          	bltz	s3,8000175c <vprintfmt+0x350>
80001754:	fff98993          	addi	s3,s3,-1
80001758:	01798e63          	beq	s3,s7,80001774 <vprintfmt+0x368>
8000175c:	00048593          	mv	a1,s1
80001760:	001d8d93          	addi	s11,s11,1
80001764:	000900e7          	jalr	s2
80001768:	000dc503          	lbu	a0,0(s11)
8000176c:	fffa0a13          	addi	s4,s4,-1
80001770:	fe0510e3          	bnez	a0,80001750 <vprintfmt+0x344>
80001774:	01405c63          	blez	s4,8000178c <vprintfmt+0x380>
80001778:	fffa0a13          	addi	s4,s4,-1
8000177c:	00048593          	mv	a1,s1
80001780:	02000513          	li	a0,32
80001784:	000900e7          	jalr	s2
80001788:	fe0a18e3          	bnez	s4,80001778 <vprintfmt+0x36c>
8000178c:	01612423          	sw	s6,8(sp)
80001790:	ce9ff06f          	j	80001478 <vprintfmt+0x6c>
80001794:	00002d97          	auipc	s11,0x2
80001798:	a38d8d93          	addi	s11,s11,-1480 # 800031cc <main+0x180>
8000179c:	000d8793          	mv	a5,s11
800017a0:	013d86b3          	add	a3,s11,s3
800017a4:	00099863          	bnez	s3,800017b4 <vprintfmt+0x3a8>
800017a8:	1340006f          	j	800018dc <vprintfmt+0x4d0>
800017ac:	00178793          	addi	a5,a5,1
800017b0:	00d78663          	beq	a5,a3,800017bc <vprintfmt+0x3b0>
800017b4:	0007c703          	lbu	a4,0(a5)
800017b8:	fe071ae3          	bnez	a4,800017ac <vprintfmt+0x3a0>
800017bc:	41b787b3          	sub	a5,a5,s11
800017c0:	40fa0a33          	sub	s4,s4,a5
800017c4:	11404c63          	bgtz	s4,800018dc <vprintfmt+0x4d0>
800017c8:	000dc503          	lbu	a0,0(s11)
800017cc:	fc0500e3          	beqz	a0,8000178c <vprintfmt+0x380>
800017d0:	fff00b93          	li	s7,-1
800017d4:	f7dff06f          	j	80001750 <vprintfmt+0x344>
800017d8:	fffa4793          	not	a5,s4
800017dc:	41f7d793          	srai	a5,a5,0x1f
800017e0:	00174683          	lbu	a3,1(a4)
800017e4:	00fa7a33          	and	s4,s4,a5
800017e8:	00040713          	mv	a4,s0
800017ec:	cb9ff06f          	j	800014a4 <vprintfmt+0x98>
800017f0:	00812783          	lw	a5,8(sp)
800017f4:	00048593          	mv	a1,s1
800017f8:	0007a503          	lw	a0,0(a5)
800017fc:	00478b13          	addi	s6,a5,4
80001800:	000900e7          	jalr	s2
80001804:	01612423          	sw	s6,8(sp)
80001808:	c71ff06f          	j	80001478 <vprintfmt+0x6c>
8000180c:	00174683          	lbu	a3,1(a4)
80001810:	00158593          	addi	a1,a1,1
80001814:	00040713          	mv	a4,s0
80001818:	c8dff06f          	j	800014a4 <vprintfmt+0x98>
8000181c:	00812783          	lw	a5,8(sp)
80001820:	00778b13          	addi	s6,a5,7
80001824:	ff8b7b13          	andi	s6,s6,-8
80001828:	008b0793          	addi	a5,s6,8
8000182c:	000b2983          	lw	s3,0(s6)
80001830:	004b2d83          	lw	s11,4(s6)
80001834:	00f12423          	sw	a5,8(sp)
80001838:	dc5ff06f          	j	800015fc <vprintfmt+0x1f0>
8000183c:	df89f2e3          	bgeu	s3,s8,80001620 <vprintfmt+0x214>
80001840:	00100793          	li	a5,1
80001844:	00012023          	sw	zero,0(sp)
80001848:	00100d13          	li	s10,1
8000184c:	e347c4e3          	blt	a5,s4,80001674 <vprintfmt+0x268>
80001850:	e39ff06f          	j	80001688 <vprintfmt+0x27c>
80001854:	00812783          	lw	a5,8(sp)
80001858:	00778b13          	addi	s6,a5,7
8000185c:	ff8b7b13          	andi	s6,s6,-8
80001860:	008b0793          	addi	a5,s6,8
80001864:	000b2983          	lw	s3,0(s6)
80001868:	004b2c03          	lw	s8,4(s6)
8000186c:	00f12423          	sw	a5,8(sp)
80001870:	e89ff06f          	j	800016f8 <vprintfmt+0x2ec>
80001874:	00812703          	lw	a4,8(sp)
80001878:	e75ff06f          	j	800016ec <vprintfmt+0x2e0>
8000187c:	00800c13          	li	s8,8
80001880:	00012223          	sw	zero,4(sp)
80001884:	e91ff06f          	j	80001714 <vprintfmt+0x308>
80001888:	00a00c13          	li	s8,10
8000188c:	00012223          	sw	zero,4(sp)
80001890:	e85ff06f          	j	80001714 <vprintfmt+0x308>
80001894:	00048593          	mv	a1,s1
80001898:	02d00513          	li	a0,45
8000189c:	000900e7          	jalr	s2
800018a0:	01303733          	snez	a4,s3
800018a4:	418007b3          	neg	a5,s8
800018a8:	413009b3          	neg	s3,s3
800018ac:	40e78db3          	sub	s11,a5,a4
800018b0:	00a00c13          	li	s8,10
800018b4:	00012223          	sw	zero,4(sp)
800018b8:	d45ff06f          	j	800015fc <vprintfmt+0x1f0>
800018bc:	01405663          	blez	s4,800018c8 <vprintfmt+0x4bc>
800018c0:	02d00793          	li	a5,45
800018c4:	ecfb98e3          	bne	s7,a5,80001794 <vprintfmt+0x388>
800018c8:	00002d97          	auipc	s11,0x2
800018cc:	904d8d93          	addi	s11,s11,-1788 # 800031cc <main+0x180>
800018d0:	02800513          	li	a0,40
800018d4:	fff00b93          	li	s7,-1
800018d8:	e79ff06f          	j	80001750 <vprintfmt+0x344>
800018dc:	fffa0a13          	addi	s4,s4,-1
800018e0:	00048593          	mv	a1,s1
800018e4:	000b8513          	mv	a0,s7
800018e8:	000900e7          	jalr	s2
800018ec:	ec0a0ee3          	beqz	s4,800017c8 <vprintfmt+0x3bc>
800018f0:	fffa0a13          	addi	s4,s4,-1
800018f4:	00048593          	mv	a1,s1
800018f8:	000b8513          	mv	a0,s7
800018fc:	000900e7          	jalr	s2
80001900:	fc0a1ee3          	bnez	s4,800018dc <vprintfmt+0x4d0>
80001904:	ec5ff06f          	j	800017c8 <vprintfmt+0x3bc>

80001908 <sprintf_putch.3055>:
80001908:	0005a783          	lw	a5,0(a1)
8000190c:	00a78023          	sb	a0,0(a5)
80001910:	0005a783          	lw	a5,0(a1)
80001914:	00178793          	addi	a5,a5,1
80001918:	00f5a023          	sw	a5,0(a1)
8000191c:	00008067          	ret

80001920 <syscall.constprop.0>:
80001920:	f8010113          	addi	sp,sp,-128
80001924:	03f10813          	addi	a6,sp,63
80001928:	fc087813          	andi	a6,a6,-64
8000192c:	04000713          	li	a4,64
80001930:	00e82023          	sw	a4,0(a6)
80001934:	00000793          	li	a5,0
80001938:	00f82223          	sw	a5,4(a6)
8000193c:	00100713          	li	a4,1
80001940:	00e82423          	sw	a4,8(a6)
80001944:	00000793          	li	a5,0
80001948:	00f82623          	sw	a5,12(a6)
8000194c:	00a82823          	sw	a0,16(a6)
80001950:	00b82a23          	sw	a1,20(a6)
80001954:	00c82c23          	sw	a2,24(a6)
80001958:	00d82e23          	sw	a3,28(a6)
8000195c:	0ff0000f          	fence
80001960:	fffff697          	auipc	a3,0xfffff
80001964:	6a068693          	addi	a3,a3,1696 # 80001000 <tohost>
80001968:	0106a023          	sw	a6,0(a3)
8000196c:	00000793          	li	a5,0
80001970:	00f6a223          	sw	a5,4(a3)
80001974:	fffff697          	auipc	a3,0xfffff
80001978:	6cc68693          	addi	a3,a3,1740 # 80001040 <fromhost>
8000197c:	0006a703          	lw	a4,0(a3)
80001980:	0046a783          	lw	a5,4(a3)
80001984:	00f76733          	or	a4,a4,a5
80001988:	fe070ae3          	beqz	a4,8000197c <syscall.constprop.0+0x5c>
8000198c:	00000713          	li	a4,0
80001990:	00e6a023          	sw	a4,0(a3)
80001994:	00000793          	li	a5,0
80001998:	00f6a223          	sw	a5,4(a3)
8000199c:	0ff0000f          	fence
800019a0:	00082503          	lw	a0,0(a6)
800019a4:	00482583          	lw	a1,4(a6)
800019a8:	08010113          	addi	sp,sp,128
800019ac:	00008067          	ret

800019b0 <putchar>:
800019b0:	ff010113          	addi	sp,sp,-16
800019b4:	00812423          	sw	s0,8(sp)
800019b8:	04022583          	lw	a1,64(tp) # 40 <buflen.2941>
800019bc:	00020793          	mv	a5,tp
800019c0:	00112623          	sw	ra,12(sp)
800019c4:	00b787b3          	add	a5,a5,a1
800019c8:	00158613          	addi	a2,a1,1
800019cc:	00a78023          	sb	a0,0(a5)
800019d0:	04c22023          	sw	a2,64(tp) # 40 <buflen.2941>
800019d4:	00a00793          	li	a5,10
800019d8:	02f50063          	beq	a0,a5,800019f8 <putchar+0x48>
800019dc:	04000793          	li	a5,64
800019e0:	00f60c63          	beq	a2,a5,800019f8 <putchar+0x48>
800019e4:	00c12083          	lw	ra,12(sp)
800019e8:	00812403          	lw	s0,8(sp)
800019ec:	00000513          	li	a0,0
800019f0:	01010113          	addi	sp,sp,16
800019f4:	00008067          	ret
800019f8:	41f65693          	srai	a3,a2,0x1f
800019fc:	00020513          	mv	a0,tp
80001a00:	00000593          	li	a1,0
80001a04:	f1dff0ef          	jal	ra,80001920 <syscall.constprop.0>
80001a08:	00c12083          	lw	ra,12(sp)
80001a0c:	04022023          	sw	zero,64(tp) # 40 <buflen.2941>
80001a10:	00812403          	lw	s0,8(sp)
80001a14:	00000513          	li	a0,0
80001a18:	01010113          	addi	sp,sp,16
80001a1c:	00008067          	ret

80001a20 <setStats>:
80001a20:	b0002773          	csrr	a4,mcycle
80001a24:	00002797          	auipc	a5,0x2
80001a28:	b5478793          	addi	a5,a5,-1196 # 80003578 <counters>
80001a2c:	00051e63          	bnez	a0,80001a48 <setStats+0x28>
80001a30:	0007a683          	lw	a3,0(a5)
80001a34:	00001617          	auipc	a2,0x1
80001a38:	7a060613          	addi	a2,a2,1952 # 800031d4 <main+0x188>
80001a3c:	00002597          	auipc	a1,0x2
80001a40:	b2c5aa23          	sw	a2,-1228(a1) # 80003570 <counter_names>
80001a44:	40d70733          	sub	a4,a4,a3
80001a48:	00e7a023          	sw	a4,0(a5)
80001a4c:	b0202773          	csrr	a4,minstret
80001a50:	00051e63          	bnez	a0,80001a6c <setStats+0x4c>
80001a54:	0047a683          	lw	a3,4(a5)
80001a58:	00001617          	auipc	a2,0x1
80001a5c:	78460613          	addi	a2,a2,1924 # 800031dc <main+0x190>
80001a60:	00002597          	auipc	a1,0x2
80001a64:	b0c5aa23          	sw	a2,-1260(a1) # 80003574 <counter_names+0x4>
80001a68:	40d70733          	sub	a4,a4,a3
80001a6c:	00e7a223          	sw	a4,4(a5)
80001a70:	00008067          	ret

80001a74 <tohost_exit>:
80001a74:	00151693          	slli	a3,a0,0x1
80001a78:	0016e713          	ori	a4,a3,1
80001a7c:	fffff697          	auipc	a3,0xfffff
80001a80:	58468693          	addi	a3,a3,1412 # 80001000 <tohost>
80001a84:	00000793          	li	a5,0
80001a88:	00e6a023          	sw	a4,0(a3)
80001a8c:	00f6a223          	sw	a5,4(a3)
80001a90:	0000006f          	j	80001a90 <tohost_exit+0x1c>

80001a94 <handle_trap>:
80001a94:	00001637          	lui	a2,0x1
80001a98:	fffff797          	auipc	a5,0xfffff
80001a9c:	56878793          	addi	a5,a5,1384 # 80001000 <tohost>
80001aa0:	a7360613          	addi	a2,a2,-1421 # a73 <buflen.2941+0xa33>
80001aa4:	00000693          	li	a3,0
80001aa8:	00c7a023          	sw	a2,0(a5)
80001aac:	00d7a223          	sw	a3,4(a5)
80001ab0:	0000006f          	j	80001ab0 <handle_trap+0x1c>

80001ab4 <exit>:
80001ab4:	ff010113          	addi	sp,sp,-16
80001ab8:	00112623          	sw	ra,12(sp)
80001abc:	fb9ff0ef          	jal	ra,80001a74 <tohost_exit>

80001ac0 <abort>:
80001ac0:	fffff797          	auipc	a5,0xfffff
80001ac4:	54078793          	addi	a5,a5,1344 # 80001000 <tohost>
80001ac8:	10d00613          	li	a2,269
80001acc:	00000693          	li	a3,0
80001ad0:	00c7a023          	sw	a2,0(a5)
80001ad4:	00d7a223          	sw	a3,4(a5)
80001ad8:	0000006f          	j	80001ad8 <abort+0x18>

80001adc <printstr>:
80001adc:	00054783          	lbu	a5,0(a0)
80001ae0:	02078263          	beqz	a5,80001b04 <printstr+0x28>
80001ae4:	00050613          	mv	a2,a0
80001ae8:	00164783          	lbu	a5,1(a2)
80001aec:	00160613          	addi	a2,a2,1
80001af0:	fe079ce3          	bnez	a5,80001ae8 <printstr+0xc>
80001af4:	40a60633          	sub	a2,a2,a0
80001af8:	00000693          	li	a3,0
80001afc:	00000593          	li	a1,0
80001b00:	e21ff06f          	j	80001920 <syscall.constprop.0>
80001b04:	00000613          	li	a2,0
80001b08:	00000693          	li	a3,0
80001b0c:	00000593          	li	a1,0
80001b10:	e11ff06f          	j	80001920 <syscall.constprop.0>

80001b14 <thread_entry>:
80001b14:	00051063          	bnez	a0,80001b14 <thread_entry>
80001b18:	00008067          	ret

80001b1c <printhex>:
80001b1c:	fd010113          	addi	sp,sp,-48
80001b20:	00050713          	mv	a4,a0
80001b24:	02112623          	sw	ra,44(sp)
80001b28:	00c10513          	addi	a0,sp,12
80001b2c:	01b10613          	addi	a2,sp,27
80001b30:	00900813          	li	a6,9
80001b34:	0080006f          	j	80001b3c <printhex+0x20>
80001b38:	00078613          	mv	a2,a5
80001b3c:	00f77793          	andi	a5,a4,15
80001b40:	00f837b3          	sltu	a5,a6,a5
80001b44:	40f007b3          	neg	a5,a5
80001b48:	0277f793          	andi	a5,a5,39
80001b4c:	00f77693          	andi	a3,a4,15
80001b50:	03078793          	addi	a5,a5,48
80001b54:	00f687b3          	add	a5,a3,a5
80001b58:	00f60023          	sb	a5,0(a2)
80001b5c:	01c59693          	slli	a3,a1,0x1c
80001b60:	00475713          	srli	a4,a4,0x4
80001b64:	fff60793          	addi	a5,a2,-1
80001b68:	00e6e733          	or	a4,a3,a4
80001b6c:	0045d593          	srli	a1,a1,0x4
80001b70:	fcc514e3          	bne	a0,a2,80001b38 <printhex+0x1c>
80001b74:	00010e23          	sb	zero,28(sp)
80001b78:	f65ff0ef          	jal	ra,80001adc <printstr>
80001b7c:	02c12083          	lw	ra,44(sp)
80001b80:	03010113          	addi	sp,sp,48
80001b84:	00008067          	ret

80001b88 <printf>:
80001b88:	fc010113          	addi	sp,sp,-64
80001b8c:	02410313          	addi	t1,sp,36
80001b90:	00050e13          	mv	t3,a0
80001b94:	02b12223          	sw	a1,36(sp)
80001b98:	02c12423          	sw	a2,40(sp)
80001b9c:	02d12623          	sw	a3,44(sp)
80001ba0:	00000517          	auipc	a0,0x0
80001ba4:	e1050513          	addi	a0,a0,-496 # 800019b0 <putchar>
80001ba8:	00030693          	mv	a3,t1
80001bac:	000e0613          	mv	a2,t3
80001bb0:	00000593          	li	a1,0
80001bb4:	00112e23          	sw	ra,28(sp)
80001bb8:	02e12823          	sw	a4,48(sp)
80001bbc:	02f12a23          	sw	a5,52(sp)
80001bc0:	03012c23          	sw	a6,56(sp)
80001bc4:	03112e23          	sw	a7,60(sp)
80001bc8:	00612623          	sw	t1,12(sp)
80001bcc:	841ff0ef          	jal	ra,8000140c <vprintfmt>
80001bd0:	01c12083          	lw	ra,28(sp)
80001bd4:	00000513          	li	a0,0
80001bd8:	04010113          	addi	sp,sp,64
80001bdc:	00008067          	ret

80001be0 <sprintf>:
80001be0:	fb010113          	addi	sp,sp,-80
80001be4:	03810313          	addi	t1,sp,56
80001be8:	02812423          	sw	s0,40(sp)
80001bec:	00a12623          	sw	a0,12(sp)
80001bf0:	02c12c23          	sw	a2,56(sp)
80001bf4:	02d12e23          	sw	a3,60(sp)
80001bf8:	00050413          	mv	s0,a0
80001bfc:	00058613          	mv	a2,a1
80001c00:	00000517          	auipc	a0,0x0
80001c04:	d0850513          	addi	a0,a0,-760 # 80001908 <sprintf_putch.3055>
80001c08:	00c10593          	addi	a1,sp,12
80001c0c:	00030693          	mv	a3,t1
80001c10:	02112623          	sw	ra,44(sp)
80001c14:	04f12223          	sw	a5,68(sp)
80001c18:	04e12023          	sw	a4,64(sp)
80001c1c:	05012423          	sw	a6,72(sp)
80001c20:	05112623          	sw	a7,76(sp)
80001c24:	00612e23          	sw	t1,28(sp)
80001c28:	fe4ff0ef          	jal	ra,8000140c <vprintfmt>
80001c2c:	00c12783          	lw	a5,12(sp)
80001c30:	00078023          	sb	zero,0(a5)
80001c34:	00c12503          	lw	a0,12(sp)
80001c38:	02c12083          	lw	ra,44(sp)
80001c3c:	40850533          	sub	a0,a0,s0
80001c40:	02812403          	lw	s0,40(sp)
80001c44:	05010113          	addi	sp,sp,80
80001c48:	00008067          	ret

80001c4c <memcpy>:
80001c4c:	00c5e7b3          	or	a5,a1,a2
80001c50:	00f567b3          	or	a5,a0,a5
80001c54:	0037f793          	andi	a5,a5,3
80001c58:	00c506b3          	add	a3,a0,a2
80001c5c:	02078463          	beqz	a5,80001c84 <memcpy+0x38>
80001c60:	00c58633          	add	a2,a1,a2
80001c64:	00050793          	mv	a5,a0
80001c68:	02d57e63          	bgeu	a0,a3,80001ca4 <memcpy+0x58>
80001c6c:	0005c703          	lbu	a4,0(a1)
80001c70:	00158593          	addi	a1,a1,1
80001c74:	00178793          	addi	a5,a5,1
80001c78:	fee78fa3          	sb	a4,-1(a5)
80001c7c:	feb618e3          	bne	a2,a1,80001c6c <memcpy+0x20>
80001c80:	00008067          	ret
80001c84:	fed57ee3          	bgeu	a0,a3,80001c80 <memcpy+0x34>
80001c88:	00050793          	mv	a5,a0
80001c8c:	0005a703          	lw	a4,0(a1)
80001c90:	00478793          	addi	a5,a5,4
80001c94:	00458593          	addi	a1,a1,4
80001c98:	fee7ae23          	sw	a4,-4(a5)
80001c9c:	fed7e8e3          	bltu	a5,a3,80001c8c <memcpy+0x40>
80001ca0:	00008067          	ret
80001ca4:	00008067          	ret

80001ca8 <memset>:
80001ca8:	00c567b3          	or	a5,a0,a2
80001cac:	0037f793          	andi	a5,a5,3
80001cb0:	00c50633          	add	a2,a0,a2
80001cb4:	02078063          	beqz	a5,80001cd4 <memset+0x2c>
80001cb8:	0ff5f593          	andi	a1,a1,255
80001cbc:	00050793          	mv	a5,a0
80001cc0:	04c57063          	bgeu	a0,a2,80001d00 <memset+0x58>
80001cc4:	00178793          	addi	a5,a5,1
80001cc8:	feb78fa3          	sb	a1,-1(a5)
80001ccc:	fef61ce3          	bne	a2,a5,80001cc4 <memset+0x1c>
80001cd0:	00008067          	ret
80001cd4:	0ff5f593          	andi	a1,a1,255
80001cd8:	00859713          	slli	a4,a1,0x8
80001cdc:	00e5e733          	or	a4,a1,a4
80001ce0:	01071793          	slli	a5,a4,0x10
80001ce4:	00f76733          	or	a4,a4,a5
80001ce8:	fec574e3          	bgeu	a0,a2,80001cd0 <memset+0x28>
80001cec:	00050793          	mv	a5,a0
80001cf0:	00478793          	addi	a5,a5,4
80001cf4:	fee7ae23          	sw	a4,-4(a5)
80001cf8:	fec7ece3          	bltu	a5,a2,80001cf0 <memset+0x48>
80001cfc:	00008067          	ret
80001d00:	00008067          	ret

80001d04 <_init>:
80001d04:	f6010113          	addi	sp,sp,-160
80001d08:	85018793          	addi	a5,gp,-1968 # 800035b8 <_tdata_begin>
80001d0c:	09412423          	sw	s4,136(sp)
80001d10:	85018a13          	addi	s4,gp,-1968 # 800035b8 <_tdata_begin>
80001d14:	09312623          	sw	s3,140(sp)
80001d18:	40fa09b3          	sub	s3,s4,a5
80001d1c:	08912a23          	sw	s1,148(sp)
80001d20:	09212823          	sw	s2,144(sp)
80001d24:	00050493          	mv	s1,a0
80001d28:	00058913          	mv	s2,a1
80001d2c:	00020513          	mv	a0,tp
80001d30:	00078593          	mv	a1,a5
80001d34:	00098613          	mv	a2,s3
80001d38:	08112e23          	sw	ra,156(sp)
80001d3c:	08812c23          	sw	s0,152(sp)
80001d40:	09512223          	sw	s5,132(sp)
80001d44:	00020a93          	mv	s5,tp
80001d48:	f05ff0ef          	jal	ra,80001c4c <memcpy>
80001d4c:	89c18613          	addi	a2,gp,-1892 # 80003604 <_tbss_end>
80001d50:	41460633          	sub	a2,a2,s4
80001d54:	00000593          	li	a1,0
80001d58:	013a8533          	add	a0,s5,s3
80001d5c:	f4dff0ef          	jal	ra,80001ca8 <memset>
80001d60:	00090593          	mv	a1,s2
80001d64:	00048513          	mv	a0,s1
80001d68:	dadff0ef          	jal	ra,80001b14 <thread_entry>
80001d6c:	00000593          	li	a1,0
80001d70:	00000513          	li	a0,0
80001d74:	2d8010ef          	jal	ra,8000304c <main>
80001d78:	00002917          	auipc	s2,0x2
80001d7c:	80090913          	addi	s2,s2,-2048 # 80003578 <counters>
80001d80:	00092683          	lw	a3,0(s2)
80001d84:	03f10413          	addi	s0,sp,63
80001d88:	fc047413          	andi	s0,s0,-64
80001d8c:	00050493          	mv	s1,a0
80001d90:	04069463          	bnez	a3,80001dd8 <_init+0xd4>
80001d94:	00492683          	lw	a3,4(s2)
80001d98:	00069663          	bnez	a3,80001da4 <_init+0xa0>
80001d9c:	00048513          	mv	a0,s1
80001da0:	cd5ff0ef          	jal	ra,80001a74 <tohost_exit>
80001da4:	00040913          	mv	s2,s0
80001da8:	00001997          	auipc	s3,0x1
80001dac:	7c898993          	addi	s3,s3,1992 # 80003570 <counter_names>
80001db0:	0049a603          	lw	a2,4(s3)
80001db4:	00090513          	mv	a0,s2
80001db8:	00001597          	auipc	a1,0x1
80001dbc:	44858593          	addi	a1,a1,1096 # 80003200 <main+0x1b4>
80001dc0:	e21ff0ef          	jal	ra,80001be0 <sprintf>
80001dc4:	00a90933          	add	s2,s2,a0
80001dc8:	fd240ae3          	beq	s0,s2,80001d9c <_init+0x98>
80001dcc:	00040513          	mv	a0,s0
80001dd0:	d0dff0ef          	jal	ra,80001adc <printstr>
80001dd4:	fc9ff06f          	j	80001d9c <_init+0x98>
80001dd8:	00001997          	auipc	s3,0x1
80001ddc:	79898993          	addi	s3,s3,1944 # 80003570 <counter_names>
80001de0:	0009a603          	lw	a2,0(s3)
80001de4:	00001597          	auipc	a1,0x1
80001de8:	41c58593          	addi	a1,a1,1052 # 80003200 <main+0x1b4>
80001dec:	00040513          	mv	a0,s0
80001df0:	df1ff0ef          	jal	ra,80001be0 <sprintf>
80001df4:	00492683          	lw	a3,4(s2)
80001df8:	00a40933          	add	s2,s0,a0
80001dfc:	fc0686e3          	beqz	a3,80001dc8 <_init+0xc4>
80001e00:	fb1ff06f          	j	80001db0 <_init+0xac>

80001e04 <strlen>:
80001e04:	00054783          	lbu	a5,0(a0)
80001e08:	00078e63          	beqz	a5,80001e24 <strlen+0x20>
80001e0c:	00050793          	mv	a5,a0
80001e10:	0017c703          	lbu	a4,1(a5)
80001e14:	00178793          	addi	a5,a5,1
80001e18:	fe071ce3          	bnez	a4,80001e10 <strlen+0xc>
80001e1c:	40a78533          	sub	a0,a5,a0
80001e20:	00008067          	ret
80001e24:	00000513          	li	a0,0
80001e28:	00008067          	ret

80001e2c <strnlen>:
80001e2c:	00050613          	mv	a2,a0
80001e30:	00b606b3          	add	a3,a2,a1
80001e34:	00058513          	mv	a0,a1
80001e38:	00060793          	mv	a5,a2
80001e3c:	00059863          	bnez	a1,80001e4c <strnlen+0x20>
80001e40:	01c0006f          	j	80001e5c <strnlen+0x30>
80001e44:	00178793          	addi	a5,a5,1
80001e48:	00f68863          	beq	a3,a5,80001e58 <strnlen+0x2c>
80001e4c:	0007c703          	lbu	a4,0(a5)
80001e50:	fe071ae3          	bnez	a4,80001e44 <strnlen+0x18>
80001e54:	40c78533          	sub	a0,a5,a2
80001e58:	00008067          	ret
80001e5c:	00008067          	ret

80001e60 <strcmp>:
80001e60:	00054783          	lbu	a5,0(a0)
80001e64:	00158593          	addi	a1,a1,1
80001e68:	00150513          	addi	a0,a0,1
80001e6c:	fff5c703          	lbu	a4,-1(a1)
80001e70:	00078863          	beqz	a5,80001e80 <strcmp+0x20>
80001e74:	fee786e3          	beq	a5,a4,80001e60 <strcmp>
80001e78:	40e78533          	sub	a0,a5,a4
80001e7c:	00008067          	ret
80001e80:	00000793          	li	a5,0
80001e84:	ff5ff06f          	j	80001e78 <strcmp+0x18>

80001e88 <strcpy>:
80001e88:	00050793          	mv	a5,a0
80001e8c:	0005c703          	lbu	a4,0(a1)
80001e90:	00178793          	addi	a5,a5,1
80001e94:	00158593          	addi	a1,a1,1
80001e98:	fee78fa3          	sb	a4,-1(a5)
80001e9c:	fe0718e3          	bnez	a4,80001e8c <strcpy+0x4>
80001ea0:	00008067          	ret

80001ea4 <atol>:
80001ea4:	00054703          	lbu	a4,0(a0)
80001ea8:	02000693          	li	a3,32
80001eac:	00050793          	mv	a5,a0
80001eb0:	00d71863          	bne	a4,a3,80001ec0 <atol+0x1c>
80001eb4:	0017c703          	lbu	a4,1(a5)
80001eb8:	00178793          	addi	a5,a5,1
80001ebc:	fed70ce3          	beq	a4,a3,80001eb4 <atol+0x10>
80001ec0:	02d00693          	li	a3,45
80001ec4:	06d70063          	beq	a4,a3,80001f24 <atol+0x80>
80001ec8:	02b00693          	li	a3,43
80001ecc:	04d70063          	beq	a4,a3,80001f0c <atol+0x68>
80001ed0:	0007c683          	lbu	a3,0(a5)
80001ed4:	00000593          	li	a1,0
80001ed8:	04068263          	beqz	a3,80001f1c <atol+0x78>
80001edc:	00000513          	li	a0,0
80001ee0:	00178793          	addi	a5,a5,1
80001ee4:	fd068613          	addi	a2,a3,-48
80001ee8:	00251713          	slli	a4,a0,0x2
80001eec:	0007c683          	lbu	a3,0(a5)
80001ef0:	00a70533          	add	a0,a4,a0
80001ef4:	00151513          	slli	a0,a0,0x1
80001ef8:	00a60533          	add	a0,a2,a0
80001efc:	fe0692e3          	bnez	a3,80001ee0 <atol+0x3c>
80001f00:	02058063          	beqz	a1,80001f20 <atol+0x7c>
80001f04:	40a00533          	neg	a0,a0
80001f08:	00008067          	ret
80001f0c:	0017c683          	lbu	a3,1(a5)
80001f10:	00000593          	li	a1,0
80001f14:	00178793          	addi	a5,a5,1
80001f18:	fc0692e3          	bnez	a3,80001edc <atol+0x38>
80001f1c:	00000513          	li	a0,0
80001f20:	00008067          	ret
80001f24:	0017c683          	lbu	a3,1(a5)
80001f28:	00100593          	li	a1,1
80001f2c:	00178793          	addi	a5,a5,1
80001f30:	fa0696e3          	bnez	a3,80001edc <atol+0x38>
80001f34:	00000513          	li	a0,0
80001f38:	fe9ff06f          	j	80001f20 <atol+0x7c>

80001f3c <__moddi3>:
80001f3c:	fc010113          	addi	sp,sp,-64
80001f40:	02912a23          	sw	s1,52(sp)
80001f44:	01712e23          	sw	s7,28(sp)
80001f48:	01912a23          	sw	s9,20(sp)
80001f4c:	02112e23          	sw	ra,60(sp)
80001f50:	02812c23          	sw	s0,56(sp)
80001f54:	03212823          	sw	s2,48(sp)
80001f58:	03312623          	sw	s3,44(sp)
80001f5c:	03412423          	sw	s4,40(sp)
80001f60:	03512223          	sw	s5,36(sp)
80001f64:	03612023          	sw	s6,32(sp)
80001f68:	01812c23          	sw	s8,24(sp)
80001f6c:	01a12823          	sw	s10,16(sp)
80001f70:	01b12623          	sw	s11,12(sp)
80001f74:	00050b93          	mv	s7,a0
80001f78:	00058c93          	mv	s9,a1
80001f7c:	00000493          	li	s1,0
80001f80:	0005dc63          	bgez	a1,80001f98 <__moddi3+0x5c>
80001f84:	00a037b3          	snez	a5,a0
80001f88:	40b00933          	neg	s2,a1
80001f8c:	40f90cb3          	sub	s9,s2,a5
80001f90:	40a00bb3          	neg	s7,a0
80001f94:	fff00493          	li	s1,-1
80001f98:	0006da63          	bgez	a3,80001fac <__moddi3+0x70>
80001f9c:	00c03933          	snez	s2,a2
80001fa0:	40d007b3          	neg	a5,a3
80001fa4:	412786b3          	sub	a3,a5,s2
80001fa8:	40c00633          	neg	a2,a2
80001fac:	00060a93          	mv	s5,a2
80001fb0:	00068993          	mv	s3,a3
80001fb4:	000b8413          	mv	s0,s7
80001fb8:	000c8913          	mv	s2,s9
80001fbc:	2a069863          	bnez	a3,8000226c <__moddi3+0x330>
80001fc0:	80003a37          	lui	s4,0x80003
80001fc4:	364a0a13          	addi	s4,s4,868 # 80003364 <__global_pointer$+0xfffff5fc>
80001fc8:	14ccfe63          	bgeu	s9,a2,80002124 <__moddi3+0x1e8>
80001fcc:	000107b7          	lui	a5,0x10
80001fd0:	14f67063          	bgeu	a2,a5,80002110 <__moddi3+0x1d4>
80001fd4:	0ff00793          	li	a5,255
80001fd8:	00c7f463          	bgeu	a5,a2,80001fe0 <__moddi3+0xa4>
80001fdc:	00800993          	li	s3,8
80001fe0:	013657b3          	srl	a5,a2,s3
80001fe4:	00fa0a33          	add	s4,s4,a5
80001fe8:	000a4783          	lbu	a5,0(s4)
80001fec:	02000713          	li	a4,32
80001ff0:	013787b3          	add	a5,a5,s3
80001ff4:	40f709b3          	sub	s3,a4,a5
80001ff8:	00f70c63          	beq	a4,a5,80002010 <__moddi3+0xd4>
80001ffc:	013c96b3          	sll	a3,s9,s3
80002000:	00fbd7b3          	srl	a5,s7,a5
80002004:	01361ab3          	sll	s5,a2,s3
80002008:	00d7e933          	or	s2,a5,a3
8000200c:	013b9433          	sll	s0,s7,s3
80002010:	010adb13          	srli	s6,s5,0x10
80002014:	000b0593          	mv	a1,s6
80002018:	00090513          	mv	a0,s2
8000201c:	7cd000ef          	jal	ra,80002fe8 <__umodsi3>
80002020:	010a9b93          	slli	s7,s5,0x10
80002024:	00050a13          	mv	s4,a0
80002028:	010bdb93          	srli	s7,s7,0x10
8000202c:	000b0593          	mv	a1,s6
80002030:	00090513          	mv	a0,s2
80002034:	76d000ef          	jal	ra,80002fa0 <__udivsi3>
80002038:	00050593          	mv	a1,a0
8000203c:	000b8513          	mv	a0,s7
80002040:	735000ef          	jal	ra,80002f74 <__mulsi3>
80002044:	010a1a13          	slli	s4,s4,0x10
80002048:	01045793          	srli	a5,s0,0x10
8000204c:	00fa67b3          	or	a5,s4,a5
80002050:	00a7fa63          	bgeu	a5,a0,80002064 <__moddi3+0x128>
80002054:	015787b3          	add	a5,a5,s5
80002058:	0157e663          	bltu	a5,s5,80002064 <__moddi3+0x128>
8000205c:	00a7f463          	bgeu	a5,a0,80002064 <__moddi3+0x128>
80002060:	015787b3          	add	a5,a5,s5
80002064:	40a78933          	sub	s2,a5,a0
80002068:	000b0593          	mv	a1,s6
8000206c:	00090513          	mv	a0,s2
80002070:	779000ef          	jal	ra,80002fe8 <__umodsi3>
80002074:	00050a13          	mv	s4,a0
80002078:	000b0593          	mv	a1,s6
8000207c:	00090513          	mv	a0,s2
80002080:	721000ef          	jal	ra,80002fa0 <__udivsi3>
80002084:	01041413          	slli	s0,s0,0x10
80002088:	00050593          	mv	a1,a0
8000208c:	010a1a13          	slli	s4,s4,0x10
80002090:	000b8513          	mv	a0,s7
80002094:	01045413          	srli	s0,s0,0x10
80002098:	6dd000ef          	jal	ra,80002f74 <__mulsi3>
8000209c:	008a6433          	or	s0,s4,s0
800020a0:	00a47a63          	bgeu	s0,a0,800020b4 <__moddi3+0x178>
800020a4:	01540433          	add	s0,s0,s5
800020a8:	01546663          	bltu	s0,s5,800020b4 <__moddi3+0x178>
800020ac:	00a47463          	bgeu	s0,a0,800020b4 <__moddi3+0x178>
800020b0:	01540433          	add	s0,s0,s5
800020b4:	40a40433          	sub	s0,s0,a0
800020b8:	01345533          	srl	a0,s0,s3
800020bc:	00000593          	li	a1,0
800020c0:	00048a63          	beqz	s1,800020d4 <__moddi3+0x198>
800020c4:	00a037b3          	snez	a5,a0
800020c8:	40b006b3          	neg	a3,a1
800020cc:	40f685b3          	sub	a1,a3,a5
800020d0:	40a00533          	neg	a0,a0
800020d4:	03c12083          	lw	ra,60(sp)
800020d8:	03812403          	lw	s0,56(sp)
800020dc:	03412483          	lw	s1,52(sp)
800020e0:	03012903          	lw	s2,48(sp)
800020e4:	02c12983          	lw	s3,44(sp)
800020e8:	02812a03          	lw	s4,40(sp)
800020ec:	02412a83          	lw	s5,36(sp)
800020f0:	02012b03          	lw	s6,32(sp)
800020f4:	01c12b83          	lw	s7,28(sp)
800020f8:	01812c03          	lw	s8,24(sp)
800020fc:	01412c83          	lw	s9,20(sp)
80002100:	01012d03          	lw	s10,16(sp)
80002104:	00c12d83          	lw	s11,12(sp)
80002108:	04010113          	addi	sp,sp,64
8000210c:	00008067          	ret
80002110:	010007b7          	lui	a5,0x1000
80002114:	01000993          	li	s3,16
80002118:	ecf664e3          	bltu	a2,a5,80001fe0 <__moddi3+0xa4>
8000211c:	01800993          	li	s3,24
80002120:	ec1ff06f          	j	80001fe0 <__moddi3+0xa4>
80002124:	00061a63          	bnez	a2,80002138 <__moddi3+0x1fc>
80002128:	00000593          	li	a1,0
8000212c:	00100513          	li	a0,1
80002130:	671000ef          	jal	ra,80002fa0 <__udivsi3>
80002134:	00050a93          	mv	s5,a0
80002138:	000107b7          	lui	a5,0x10
8000213c:	04fafc63          	bgeu	s5,a5,80002194 <__moddi3+0x258>
80002140:	0ff00793          	li	a5,255
80002144:	0157f463          	bgeu	a5,s5,8000214c <__moddi3+0x210>
80002148:	00800993          	li	s3,8
8000214c:	013ad7b3          	srl	a5,s5,s3
80002150:	00fa0a33          	add	s4,s4,a5
80002154:	000a4783          	lbu	a5,0(s4)
80002158:	02000713          	li	a4,32
8000215c:	013787b3          	add	a5,a5,s3
80002160:	40f709b3          	sub	s3,a4,a5
80002164:	04f71263          	bne	a4,a5,800021a8 <__moddi3+0x26c>
80002168:	415c8cb3          	sub	s9,s9,s5
8000216c:	010adb13          	srli	s6,s5,0x10
80002170:	000b0593          	mv	a1,s6
80002174:	000c8513          	mv	a0,s9
80002178:	671000ef          	jal	ra,80002fe8 <__umodsi3>
8000217c:	010a9b93          	slli	s7,s5,0x10
80002180:	00050a13          	mv	s4,a0
80002184:	010bdb93          	srli	s7,s7,0x10
80002188:	000b0593          	mv	a1,s6
8000218c:	000c8513          	mv	a0,s9
80002190:	ea5ff06f          	j	80002034 <__moddi3+0xf8>
80002194:	010007b7          	lui	a5,0x1000
80002198:	01000993          	li	s3,16
8000219c:	fafae8e3          	bltu	s5,a5,8000214c <__moddi3+0x210>
800021a0:	01800993          	li	s3,24
800021a4:	fa9ff06f          	j	8000214c <__moddi3+0x210>
800021a8:	013a9ab3          	sll	s5,s5,s3
800021ac:	00fcdb33          	srl	s6,s9,a5
800021b0:	010ad913          	srli	s2,s5,0x10
800021b4:	00fbd7b3          	srl	a5,s7,a5
800021b8:	013c96b3          	sll	a3,s9,s3
800021bc:	00090593          	mv	a1,s2
800021c0:	000b0513          	mv	a0,s6
800021c4:	00d7ec33          	or	s8,a5,a3
800021c8:	621000ef          	jal	ra,80002fe8 <__umodsi3>
800021cc:	00050a13          	mv	s4,a0
800021d0:	00090593          	mv	a1,s2
800021d4:	013b9433          	sll	s0,s7,s3
800021d8:	000b0513          	mv	a0,s6
800021dc:	010a9b93          	slli	s7,s5,0x10
800021e0:	5c1000ef          	jal	ra,80002fa0 <__udivsi3>
800021e4:	010bdb93          	srli	s7,s7,0x10
800021e8:	00050593          	mv	a1,a0
800021ec:	000b8513          	mv	a0,s7
800021f0:	585000ef          	jal	ra,80002f74 <__mulsi3>
800021f4:	010a1a13          	slli	s4,s4,0x10
800021f8:	010c5793          	srli	a5,s8,0x10
800021fc:	00fa67b3          	or	a5,s4,a5
80002200:	00a7fa63          	bgeu	a5,a0,80002214 <__moddi3+0x2d8>
80002204:	015787b3          	add	a5,a5,s5
80002208:	0157e663          	bltu	a5,s5,80002214 <__moddi3+0x2d8>
8000220c:	00a7f463          	bgeu	a5,a0,80002214 <__moddi3+0x2d8>
80002210:	015787b3          	add	a5,a5,s5
80002214:	40a78b33          	sub	s6,a5,a0
80002218:	00090593          	mv	a1,s2
8000221c:	000b0513          	mv	a0,s6
80002220:	5c9000ef          	jal	ra,80002fe8 <__umodsi3>
80002224:	00050a13          	mv	s4,a0
80002228:	00090593          	mv	a1,s2
8000222c:	000b0513          	mv	a0,s6
80002230:	571000ef          	jal	ra,80002fa0 <__udivsi3>
80002234:	00050593          	mv	a1,a0
80002238:	000b8513          	mv	a0,s7
8000223c:	539000ef          	jal	ra,80002f74 <__mulsi3>
80002240:	010c1693          	slli	a3,s8,0x10
80002244:	010a1a13          	slli	s4,s4,0x10
80002248:	0106d693          	srli	a3,a3,0x10
8000224c:	00da66b3          	or	a3,s4,a3
80002250:	00a6fa63          	bgeu	a3,a0,80002264 <__moddi3+0x328>
80002254:	015686b3          	add	a3,a3,s5
80002258:	0156e663          	bltu	a3,s5,80002264 <__moddi3+0x328>
8000225c:	00a6f463          	bgeu	a3,a0,80002264 <__moddi3+0x328>
80002260:	015686b3          	add	a3,a3,s5
80002264:	40a68cb3          	sub	s9,a3,a0
80002268:	f05ff06f          	j	8000216c <__moddi3+0x230>
8000226c:	00dcf863          	bgeu	s9,a3,8000227c <__moddi3+0x340>
80002270:	000b8513          	mv	a0,s7
80002274:	000c8593          	mv	a1,s9
80002278:	e49ff06f          	j	800020c0 <__moddi3+0x184>
8000227c:	000107b7          	lui	a5,0x10
80002280:	04f6fc63          	bgeu	a3,a5,800022d8 <__moddi3+0x39c>
80002284:	0ff00b13          	li	s6,255
80002288:	00db3533          	sltu	a0,s6,a3
8000228c:	00351513          	slli	a0,a0,0x3
80002290:	800037b7          	lui	a5,0x80003
80002294:	00a6d733          	srl	a4,a3,a0
80002298:	36478793          	addi	a5,a5,868 # 80003364 <__global_pointer$+0xfffff5fc>
8000229c:	00e787b3          	add	a5,a5,a4
800022a0:	0007cb03          	lbu	s6,0(a5)
800022a4:	02000793          	li	a5,32
800022a8:	00ab0b33          	add	s6,s6,a0
800022ac:	41678a33          	sub	s4,a5,s6
800022b0:	03679e63          	bne	a5,s6,800022ec <__moddi3+0x3b0>
800022b4:	0196e463          	bltu	a3,s9,800022bc <__moddi3+0x380>
800022b8:	00cbea63          	bltu	s7,a2,800022cc <__moddi3+0x390>
800022bc:	40cb8433          	sub	s0,s7,a2
800022c0:	40dc86b3          	sub	a3,s9,a3
800022c4:	008bbbb3          	sltu	s7,s7,s0
800022c8:	41768933          	sub	s2,a3,s7
800022cc:	00040513          	mv	a0,s0
800022d0:	00090593          	mv	a1,s2
800022d4:	dedff06f          	j	800020c0 <__moddi3+0x184>
800022d8:	010007b7          	lui	a5,0x1000
800022dc:	01000513          	li	a0,16
800022e0:	faf6e8e3          	bltu	a3,a5,80002290 <__moddi3+0x354>
800022e4:	01800513          	li	a0,24
800022e8:	fa9ff06f          	j	80002290 <__moddi3+0x354>
800022ec:	016657b3          	srl	a5,a2,s6
800022f0:	014696b3          	sll	a3,a3,s4
800022f4:	00d7ed33          	or	s10,a5,a3
800022f8:	016cd433          	srl	s0,s9,s6
800022fc:	010d5c13          	srli	s8,s10,0x10
80002300:	014c96b3          	sll	a3,s9,s4
80002304:	016bd933          	srl	s2,s7,s6
80002308:	000c0593          	mv	a1,s8
8000230c:	00040513          	mv	a0,s0
80002310:	00d96933          	or	s2,s2,a3
80002314:	01461db3          	sll	s11,a2,s4
80002318:	4d1000ef          	jal	ra,80002fe8 <__umodsi3>
8000231c:	00050a93          	mv	s5,a0
80002320:	000c0593          	mv	a1,s8
80002324:	00040513          	mv	a0,s0
80002328:	010d1c93          	slli	s9,s10,0x10
8000232c:	475000ef          	jal	ra,80002fa0 <__udivsi3>
80002330:	010cdc93          	srli	s9,s9,0x10
80002334:	00050413          	mv	s0,a0
80002338:	00050593          	mv	a1,a0
8000233c:	000c8513          	mv	a0,s9
80002340:	435000ef          	jal	ra,80002f74 <__mulsi3>
80002344:	010a9a93          	slli	s5,s5,0x10
80002348:	01095713          	srli	a4,s2,0x10
8000234c:	00eae733          	or	a4,s5,a4
80002350:	014b9bb3          	sll	s7,s7,s4
80002354:	00040a93          	mv	s5,s0
80002358:	00a77e63          	bgeu	a4,a0,80002374 <__moddi3+0x438>
8000235c:	01a70733          	add	a4,a4,s10
80002360:	fff40a93          	addi	s5,s0,-1
80002364:	01a76863          	bltu	a4,s10,80002374 <__moddi3+0x438>
80002368:	00a77663          	bgeu	a4,a0,80002374 <__moddi3+0x438>
8000236c:	ffe40a93          	addi	s5,s0,-2
80002370:	01a70733          	add	a4,a4,s10
80002374:	40a709b3          	sub	s3,a4,a0
80002378:	000c0593          	mv	a1,s8
8000237c:	00098513          	mv	a0,s3
80002380:	469000ef          	jal	ra,80002fe8 <__umodsi3>
80002384:	00050413          	mv	s0,a0
80002388:	000c0593          	mv	a1,s8
8000238c:	00098513          	mv	a0,s3
80002390:	411000ef          	jal	ra,80002fa0 <__udivsi3>
80002394:	00050993          	mv	s3,a0
80002398:	00050593          	mv	a1,a0
8000239c:	000c8513          	mv	a0,s9
800023a0:	3d5000ef          	jal	ra,80002f74 <__mulsi3>
800023a4:	01091693          	slli	a3,s2,0x10
800023a8:	01041413          	slli	s0,s0,0x10
800023ac:	0106d693          	srli	a3,a3,0x10
800023b0:	00d466b3          	or	a3,s0,a3
800023b4:	00098793          	mv	a5,s3
800023b8:	00a6fe63          	bgeu	a3,a0,800023d4 <__moddi3+0x498>
800023bc:	01a686b3          	add	a3,a3,s10
800023c0:	fff98793          	addi	a5,s3,-1
800023c4:	01a6e863          	bltu	a3,s10,800023d4 <__moddi3+0x498>
800023c8:	00a6f663          	bgeu	a3,a0,800023d4 <__moddi3+0x498>
800023cc:	ffe98793          	addi	a5,s3,-2
800023d0:	01a686b3          	add	a3,a3,s10
800023d4:	00010337          	lui	t1,0x10
800023d8:	010a9a93          	slli	s5,s5,0x10
800023dc:	00faeab3          	or	s5,s5,a5
800023e0:	fff30813          	addi	a6,t1,-1 # ffff <buflen.2941+0xffbf>
800023e4:	010af733          	and	a4,s5,a6
800023e8:	010df833          	and	a6,s11,a6
800023ec:	40a68933          	sub	s2,a3,a0
800023f0:	010ada93          	srli	s5,s5,0x10
800023f4:	010dd893          	srli	a7,s11,0x10
800023f8:	00070513          	mv	a0,a4
800023fc:	00080593          	mv	a1,a6
80002400:	375000ef          	jal	ra,80002f74 <__mulsi3>
80002404:	00050793          	mv	a5,a0
80002408:	00088593          	mv	a1,a7
8000240c:	00070513          	mv	a0,a4
80002410:	365000ef          	jal	ra,80002f74 <__mulsi3>
80002414:	00050713          	mv	a4,a0
80002418:	00080593          	mv	a1,a6
8000241c:	000a8513          	mv	a0,s5
80002420:	355000ef          	jal	ra,80002f74 <__mulsi3>
80002424:	00050813          	mv	a6,a0
80002428:	00088593          	mv	a1,a7
8000242c:	000a8513          	mv	a0,s5
80002430:	345000ef          	jal	ra,80002f74 <__mulsi3>
80002434:	01070733          	add	a4,a4,a6
80002438:	0107d693          	srli	a3,a5,0x10
8000243c:	00d70733          	add	a4,a4,a3
80002440:	01077463          	bgeu	a4,a6,80002448 <__moddi3+0x50c>
80002444:	00650533          	add	a0,a0,t1
80002448:	01075593          	srli	a1,a4,0x10
8000244c:	00a585b3          	add	a1,a1,a0
80002450:	00010537          	lui	a0,0x10
80002454:	fff50513          	addi	a0,a0,-1 # ffff <buflen.2941+0xffbf>
80002458:	00a77733          	and	a4,a4,a0
8000245c:	01071713          	slli	a4,a4,0x10
80002460:	00a7f7b3          	and	a5,a5,a0
80002464:	00f707b3          	add	a5,a4,a5
80002468:	00b96663          	bltu	s2,a1,80002474 <__moddi3+0x538>
8000246c:	00b91e63          	bne	s2,a1,80002488 <__moddi3+0x54c>
80002470:	00fbfc63          	bgeu	s7,a5,80002488 <__moddi3+0x54c>
80002474:	41b78633          	sub	a2,a5,s11
80002478:	00c7b7b3          	sltu	a5,a5,a2
8000247c:	01a787b3          	add	a5,a5,s10
80002480:	40f585b3          	sub	a1,a1,a5
80002484:	00060793          	mv	a5,a2
80002488:	40fb87b3          	sub	a5,s7,a5
8000248c:	00fbbbb3          	sltu	s7,s7,a5
80002490:	40b905b3          	sub	a1,s2,a1
80002494:	417585b3          	sub	a1,a1,s7
80002498:	01659433          	sll	s0,a1,s6
8000249c:	0147d7b3          	srl	a5,a5,s4
800024a0:	00f46533          	or	a0,s0,a5
800024a4:	0145d5b3          	srl	a1,a1,s4
800024a8:	c19ff06f          	j	800020c0 <__moddi3+0x184>

800024ac <__udivdi3>:
800024ac:	fd010113          	addi	sp,sp,-48
800024b0:	02812423          	sw	s0,40(sp)
800024b4:	01712623          	sw	s7,12(sp)
800024b8:	02112623          	sw	ra,44(sp)
800024bc:	02912223          	sw	s1,36(sp)
800024c0:	03212023          	sw	s2,32(sp)
800024c4:	01312e23          	sw	s3,28(sp)
800024c8:	01412c23          	sw	s4,24(sp)
800024cc:	01512a23          	sw	s5,20(sp)
800024d0:	01612823          	sw	s6,16(sp)
800024d4:	01812423          	sw	s8,8(sp)
800024d8:	01912223          	sw	s9,4(sp)
800024dc:	00050b93          	mv	s7,a0
800024e0:	00058413          	mv	s0,a1
800024e4:	38069c63          	bnez	a3,8000287c <__udivdi3+0x3d0>
800024e8:	800034b7          	lui	s1,0x80003
800024ec:	00060913          	mv	s2,a2
800024f0:	00050a13          	mv	s4,a0
800024f4:	36448493          	addi	s1,s1,868 # 80003364 <__global_pointer$+0xfffff5fc>
800024f8:	12c5f863          	bgeu	a1,a2,80002628 <__udivdi3+0x17c>
800024fc:	000107b7          	lui	a5,0x10
80002500:	00058c13          	mv	s8,a1
80002504:	10f67863          	bgeu	a2,a5,80002614 <__udivdi3+0x168>
80002508:	0ff00713          	li	a4,255
8000250c:	00c73733          	sltu	a4,a4,a2
80002510:	00371713          	slli	a4,a4,0x3
80002514:	00e657b3          	srl	a5,a2,a4
80002518:	00f484b3          	add	s1,s1,a5
8000251c:	0004c683          	lbu	a3,0(s1)
80002520:	00e68733          	add	a4,a3,a4
80002524:	02000693          	li	a3,32
80002528:	40e687b3          	sub	a5,a3,a4
8000252c:	00e68c63          	beq	a3,a4,80002544 <__udivdi3+0x98>
80002530:	00f41433          	sll	s0,s0,a5
80002534:	00ebd733          	srl	a4,s7,a4
80002538:	00f61933          	sll	s2,a2,a5
8000253c:	00876c33          	or	s8,a4,s0
80002540:	00fb9a33          	sll	s4,s7,a5
80002544:	01095b13          	srli	s6,s2,0x10
80002548:	000b0593          	mv	a1,s6
8000254c:	000c0513          	mv	a0,s8
80002550:	299000ef          	jal	ra,80002fe8 <__umodsi3>
80002554:	00050493          	mv	s1,a0
80002558:	000b0593          	mv	a1,s6
8000255c:	01091a93          	slli	s5,s2,0x10
80002560:	000c0513          	mv	a0,s8
80002564:	23d000ef          	jal	ra,80002fa0 <__udivsi3>
80002568:	010ada93          	srli	s5,s5,0x10
8000256c:	00050413          	mv	s0,a0
80002570:	00050593          	mv	a1,a0
80002574:	000a8513          	mv	a0,s5
80002578:	1fd000ef          	jal	ra,80002f74 <__mulsi3>
8000257c:	01049493          	slli	s1,s1,0x10
80002580:	010a5713          	srli	a4,s4,0x10
80002584:	00e4e733          	or	a4,s1,a4
80002588:	00040993          	mv	s3,s0
8000258c:	00a77e63          	bgeu	a4,a0,800025a8 <__udivdi3+0xfc>
80002590:	01270733          	add	a4,a4,s2
80002594:	fff40993          	addi	s3,s0,-1
80002598:	01276863          	bltu	a4,s2,800025a8 <__udivdi3+0xfc>
8000259c:	00a77663          	bgeu	a4,a0,800025a8 <__udivdi3+0xfc>
800025a0:	ffe40993          	addi	s3,s0,-2
800025a4:	01270733          	add	a4,a4,s2
800025a8:	40a70433          	sub	s0,a4,a0
800025ac:	000b0593          	mv	a1,s6
800025b0:	00040513          	mv	a0,s0
800025b4:	235000ef          	jal	ra,80002fe8 <__umodsi3>
800025b8:	00050493          	mv	s1,a0
800025bc:	000b0593          	mv	a1,s6
800025c0:	00040513          	mv	a0,s0
800025c4:	1dd000ef          	jal	ra,80002fa0 <__udivsi3>
800025c8:	010a1a13          	slli	s4,s4,0x10
800025cc:	00050413          	mv	s0,a0
800025d0:	00050593          	mv	a1,a0
800025d4:	01049493          	slli	s1,s1,0x10
800025d8:	000a8513          	mv	a0,s5
800025dc:	010a5a13          	srli	s4,s4,0x10
800025e0:	195000ef          	jal	ra,80002f74 <__mulsi3>
800025e4:	0144ea33          	or	s4,s1,s4
800025e8:	00040613          	mv	a2,s0
800025ec:	00aa7c63          	bgeu	s4,a0,80002604 <__udivdi3+0x158>
800025f0:	01490a33          	add	s4,s2,s4
800025f4:	fff40613          	addi	a2,s0,-1
800025f8:	012a6663          	bltu	s4,s2,80002604 <__udivdi3+0x158>
800025fc:	00aa7463          	bgeu	s4,a0,80002604 <__udivdi3+0x158>
80002600:	ffe40613          	addi	a2,s0,-2
80002604:	01099793          	slli	a5,s3,0x10
80002608:	00c7e7b3          	or	a5,a5,a2
8000260c:	00000493          	li	s1,0
80002610:	1300006f          	j	80002740 <__udivdi3+0x294>
80002614:	010007b7          	lui	a5,0x1000
80002618:	01000713          	li	a4,16
8000261c:	eef66ce3          	bltu	a2,a5,80002514 <__udivdi3+0x68>
80002620:	01800713          	li	a4,24
80002624:	ef1ff06f          	j	80002514 <__udivdi3+0x68>
80002628:	00068993          	mv	s3,a3
8000262c:	00061a63          	bnez	a2,80002640 <__udivdi3+0x194>
80002630:	00000593          	li	a1,0
80002634:	00100513          	li	a0,1
80002638:	169000ef          	jal	ra,80002fa0 <__udivsi3>
8000263c:	00050913          	mv	s2,a0
80002640:	000107b7          	lui	a5,0x10
80002644:	12f97c63          	bgeu	s2,a5,8000277c <__udivdi3+0x2d0>
80002648:	0ff00793          	li	a5,255
8000264c:	0127f463          	bgeu	a5,s2,80002654 <__udivdi3+0x1a8>
80002650:	00800993          	li	s3,8
80002654:	013957b3          	srl	a5,s2,s3
80002658:	00f484b3          	add	s1,s1,a5
8000265c:	0004c783          	lbu	a5,0(s1)
80002660:	02000693          	li	a3,32
80002664:	013787b3          	add	a5,a5,s3
80002668:	40f68733          	sub	a4,a3,a5
8000266c:	12f69263          	bne	a3,a5,80002790 <__udivdi3+0x2e4>
80002670:	41240433          	sub	s0,s0,s2
80002674:	00100493          	li	s1,1
80002678:	01095a93          	srli	s5,s2,0x10
8000267c:	000a8593          	mv	a1,s5
80002680:	00040513          	mv	a0,s0
80002684:	165000ef          	jal	ra,80002fe8 <__umodsi3>
80002688:	00050993          	mv	s3,a0
8000268c:	000a8593          	mv	a1,s5
80002690:	00040513          	mv	a0,s0
80002694:	01091b13          	slli	s6,s2,0x10
80002698:	109000ef          	jal	ra,80002fa0 <__udivsi3>
8000269c:	010b5b13          	srli	s6,s6,0x10
800026a0:	00050413          	mv	s0,a0
800026a4:	00050593          	mv	a1,a0
800026a8:	000b0513          	mv	a0,s6
800026ac:	0c9000ef          	jal	ra,80002f74 <__mulsi3>
800026b0:	01099993          	slli	s3,s3,0x10
800026b4:	010a5713          	srli	a4,s4,0x10
800026b8:	00e9e733          	or	a4,s3,a4
800026bc:	00040b93          	mv	s7,s0
800026c0:	00a77e63          	bgeu	a4,a0,800026dc <__udivdi3+0x230>
800026c4:	01270733          	add	a4,a4,s2
800026c8:	fff40b93          	addi	s7,s0,-1
800026cc:	01276863          	bltu	a4,s2,800026dc <__udivdi3+0x230>
800026d0:	00a77663          	bgeu	a4,a0,800026dc <__udivdi3+0x230>
800026d4:	ffe40b93          	addi	s7,s0,-2
800026d8:	01270733          	add	a4,a4,s2
800026dc:	40a70433          	sub	s0,a4,a0
800026e0:	000a8593          	mv	a1,s5
800026e4:	00040513          	mv	a0,s0
800026e8:	101000ef          	jal	ra,80002fe8 <__umodsi3>
800026ec:	00050993          	mv	s3,a0
800026f0:	000a8593          	mv	a1,s5
800026f4:	00040513          	mv	a0,s0
800026f8:	0a9000ef          	jal	ra,80002fa0 <__udivsi3>
800026fc:	010a1a13          	slli	s4,s4,0x10
80002700:	00050413          	mv	s0,a0
80002704:	00050593          	mv	a1,a0
80002708:	01099993          	slli	s3,s3,0x10
8000270c:	000b0513          	mv	a0,s6
80002710:	010a5a13          	srli	s4,s4,0x10
80002714:	061000ef          	jal	ra,80002f74 <__mulsi3>
80002718:	0149ea33          	or	s4,s3,s4
8000271c:	00040613          	mv	a2,s0
80002720:	00aa7c63          	bgeu	s4,a0,80002738 <__udivdi3+0x28c>
80002724:	01490a33          	add	s4,s2,s4
80002728:	fff40613          	addi	a2,s0,-1
8000272c:	012a6663          	bltu	s4,s2,80002738 <__udivdi3+0x28c>
80002730:	00aa7463          	bgeu	s4,a0,80002738 <__udivdi3+0x28c>
80002734:	ffe40613          	addi	a2,s0,-2
80002738:	010b9793          	slli	a5,s7,0x10
8000273c:	00c7e7b3          	or	a5,a5,a2
80002740:	00078513          	mv	a0,a5
80002744:	00048593          	mv	a1,s1
80002748:	02c12083          	lw	ra,44(sp)
8000274c:	02812403          	lw	s0,40(sp)
80002750:	02412483          	lw	s1,36(sp)
80002754:	02012903          	lw	s2,32(sp)
80002758:	01c12983          	lw	s3,28(sp)
8000275c:	01812a03          	lw	s4,24(sp)
80002760:	01412a83          	lw	s5,20(sp)
80002764:	01012b03          	lw	s6,16(sp)
80002768:	00c12b83          	lw	s7,12(sp)
8000276c:	00812c03          	lw	s8,8(sp)
80002770:	00412c83          	lw	s9,4(sp)
80002774:	03010113          	addi	sp,sp,48
80002778:	00008067          	ret
8000277c:	010007b7          	lui	a5,0x1000
80002780:	01000993          	li	s3,16
80002784:	ecf968e3          	bltu	s2,a5,80002654 <__udivdi3+0x1a8>
80002788:	01800993          	li	s3,24
8000278c:	ec9ff06f          	j	80002654 <__udivdi3+0x1a8>
80002790:	00e91933          	sll	s2,s2,a4
80002794:	00f459b3          	srl	s3,s0,a5
80002798:	00fbd7b3          	srl	a5,s7,a5
8000279c:	00e41433          	sll	s0,s0,a4
800027a0:	0087eab3          	or	s5,a5,s0
800027a4:	01095413          	srli	s0,s2,0x10
800027a8:	00040593          	mv	a1,s0
800027ac:	00098513          	mv	a0,s3
800027b0:	00eb9a33          	sll	s4,s7,a4
800027b4:	035000ef          	jal	ra,80002fe8 <__umodsi3>
800027b8:	00050493          	mv	s1,a0
800027bc:	00040593          	mv	a1,s0
800027c0:	00098513          	mv	a0,s3
800027c4:	01091b13          	slli	s6,s2,0x10
800027c8:	7d8000ef          	jal	ra,80002fa0 <__udivsi3>
800027cc:	010b5b13          	srli	s6,s6,0x10
800027d0:	00050993          	mv	s3,a0
800027d4:	00050593          	mv	a1,a0
800027d8:	000b0513          	mv	a0,s6
800027dc:	798000ef          	jal	ra,80002f74 <__mulsi3>
800027e0:	01049493          	slli	s1,s1,0x10
800027e4:	010ad793          	srli	a5,s5,0x10
800027e8:	00f4e7b3          	or	a5,s1,a5
800027ec:	00098b93          	mv	s7,s3
800027f0:	00a7fe63          	bgeu	a5,a0,8000280c <__udivdi3+0x360>
800027f4:	012787b3          	add	a5,a5,s2
800027f8:	fff98b93          	addi	s7,s3,-1
800027fc:	0127e863          	bltu	a5,s2,8000280c <__udivdi3+0x360>
80002800:	00a7f663          	bgeu	a5,a0,8000280c <__udivdi3+0x360>
80002804:	ffe98b93          	addi	s7,s3,-2
80002808:	012787b3          	add	a5,a5,s2
8000280c:	40a789b3          	sub	s3,a5,a0
80002810:	00040593          	mv	a1,s0
80002814:	00098513          	mv	a0,s3
80002818:	7d0000ef          	jal	ra,80002fe8 <__umodsi3>
8000281c:	00040593          	mv	a1,s0
80002820:	00050493          	mv	s1,a0
80002824:	00098513          	mv	a0,s3
80002828:	778000ef          	jal	ra,80002fa0 <__udivsi3>
8000282c:	010a9413          	slli	s0,s5,0x10
80002830:	00050993          	mv	s3,a0
80002834:	00050593          	mv	a1,a0
80002838:	01049493          	slli	s1,s1,0x10
8000283c:	000b0513          	mv	a0,s6
80002840:	01045413          	srli	s0,s0,0x10
80002844:	730000ef          	jal	ra,80002f74 <__mulsi3>
80002848:	0084e433          	or	s0,s1,s0
8000284c:	00098793          	mv	a5,s3
80002850:	00a47e63          	bgeu	s0,a0,8000286c <__udivdi3+0x3c0>
80002854:	01240433          	add	s0,s0,s2
80002858:	fff98793          	addi	a5,s3,-1
8000285c:	01246863          	bltu	s0,s2,8000286c <__udivdi3+0x3c0>
80002860:	00a47663          	bgeu	s0,a0,8000286c <__udivdi3+0x3c0>
80002864:	ffe98793          	addi	a5,s3,-2
80002868:	01240433          	add	s0,s0,s2
8000286c:	010b9493          	slli	s1,s7,0x10
80002870:	40a40433          	sub	s0,s0,a0
80002874:	00f4e4b3          	or	s1,s1,a5
80002878:	e01ff06f          	j	80002678 <__udivdi3+0x1cc>
8000287c:	1ed5ee63          	bltu	a1,a3,80002a78 <__udivdi3+0x5cc>
80002880:	000107b7          	lui	a5,0x10
80002884:	04f6f463          	bgeu	a3,a5,800028cc <__udivdi3+0x420>
80002888:	0ff00a93          	li	s5,255
8000288c:	00dab733          	sltu	a4,s5,a3
80002890:	00371713          	slli	a4,a4,0x3
80002894:	800037b7          	lui	a5,0x80003
80002898:	00e6d5b3          	srl	a1,a3,a4
8000289c:	36478793          	addi	a5,a5,868 # 80003364 <__global_pointer$+0xfffff5fc>
800028a0:	00b787b3          	add	a5,a5,a1
800028a4:	0007ca83          	lbu	s5,0(a5)
800028a8:	02000793          	li	a5,32
800028ac:	00ea8ab3          	add	s5,s5,a4
800028b0:	415784b3          	sub	s1,a5,s5
800028b4:	03579663          	bne	a5,s5,800028e0 <__udivdi3+0x434>
800028b8:	00100793          	li	a5,1
800028bc:	e886e2e3          	bltu	a3,s0,80002740 <__udivdi3+0x294>
800028c0:	00cbb7b3          	sltu	a5,s7,a2
800028c4:	0017c793          	xori	a5,a5,1
800028c8:	e79ff06f          	j	80002740 <__udivdi3+0x294>
800028cc:	010007b7          	lui	a5,0x1000
800028d0:	01000713          	li	a4,16
800028d4:	fcf6e0e3          	bltu	a3,a5,80002894 <__udivdi3+0x3e8>
800028d8:	01800713          	li	a4,24
800028dc:	fb9ff06f          	j	80002894 <__udivdi3+0x3e8>
800028e0:	01565cb3          	srl	s9,a2,s5
800028e4:	009696b3          	sll	a3,a3,s1
800028e8:	00dcecb3          	or	s9,s9,a3
800028ec:	015459b3          	srl	s3,s0,s5
800028f0:	00941433          	sll	s0,s0,s1
800028f4:	015bdab3          	srl	s5,s7,s5
800028f8:	008aeab3          	or	s5,s5,s0
800028fc:	010cd413          	srli	s0,s9,0x10
80002900:	00040593          	mv	a1,s0
80002904:	00098513          	mv	a0,s3
80002908:	00961933          	sll	s2,a2,s1
8000290c:	6dc000ef          	jal	ra,80002fe8 <__umodsi3>
80002910:	00050a13          	mv	s4,a0
80002914:	00040593          	mv	a1,s0
80002918:	00098513          	mv	a0,s3
8000291c:	010c9b13          	slli	s6,s9,0x10
80002920:	680000ef          	jal	ra,80002fa0 <__udivsi3>
80002924:	010b5b13          	srli	s6,s6,0x10
80002928:	00050993          	mv	s3,a0
8000292c:	00050593          	mv	a1,a0
80002930:	000b0513          	mv	a0,s6
80002934:	640000ef          	jal	ra,80002f74 <__mulsi3>
80002938:	010a1a13          	slli	s4,s4,0x10
8000293c:	010ad713          	srli	a4,s5,0x10
80002940:	00ea6733          	or	a4,s4,a4
80002944:	00098c13          	mv	s8,s3
80002948:	00a77e63          	bgeu	a4,a0,80002964 <__udivdi3+0x4b8>
8000294c:	01970733          	add	a4,a4,s9
80002950:	fff98c13          	addi	s8,s3,-1
80002954:	01976863          	bltu	a4,s9,80002964 <__udivdi3+0x4b8>
80002958:	00a77663          	bgeu	a4,a0,80002964 <__udivdi3+0x4b8>
8000295c:	ffe98c13          	addi	s8,s3,-2
80002960:	01970733          	add	a4,a4,s9
80002964:	40a709b3          	sub	s3,a4,a0
80002968:	00040593          	mv	a1,s0
8000296c:	00098513          	mv	a0,s3
80002970:	678000ef          	jal	ra,80002fe8 <__umodsi3>
80002974:	00040593          	mv	a1,s0
80002978:	00050a13          	mv	s4,a0
8000297c:	00098513          	mv	a0,s3
80002980:	620000ef          	jal	ra,80002fa0 <__udivsi3>
80002984:	010a9413          	slli	s0,s5,0x10
80002988:	00050993          	mv	s3,a0
8000298c:	00050593          	mv	a1,a0
80002990:	010a1a13          	slli	s4,s4,0x10
80002994:	000b0513          	mv	a0,s6
80002998:	01045413          	srli	s0,s0,0x10
8000299c:	5d8000ef          	jal	ra,80002f74 <__mulsi3>
800029a0:	008a6433          	or	s0,s4,s0
800029a4:	00098613          	mv	a2,s3
800029a8:	00a47e63          	bgeu	s0,a0,800029c4 <__udivdi3+0x518>
800029ac:	01940433          	add	s0,s0,s9
800029b0:	fff98613          	addi	a2,s3,-1
800029b4:	01946863          	bltu	s0,s9,800029c4 <__udivdi3+0x518>
800029b8:	00a47663          	bgeu	s0,a0,800029c4 <__udivdi3+0x518>
800029bc:	ffe98613          	addi	a2,s3,-2
800029c0:	01940433          	add	s0,s0,s9
800029c4:	010c1793          	slli	a5,s8,0x10
800029c8:	00010e37          	lui	t3,0x10
800029cc:	00c7e7b3          	or	a5,a5,a2
800029d0:	fffe0313          	addi	t1,t3,-1 # ffff <buflen.2941+0xffbf>
800029d4:	0067f8b3          	and	a7,a5,t1
800029d8:	00697333          	and	t1,s2,t1
800029dc:	40a40433          	sub	s0,s0,a0
800029e0:	0107de93          	srli	t4,a5,0x10
800029e4:	01095913          	srli	s2,s2,0x10
800029e8:	00088513          	mv	a0,a7
800029ec:	00030593          	mv	a1,t1
800029f0:	584000ef          	jal	ra,80002f74 <__mulsi3>
800029f4:	00050813          	mv	a6,a0
800029f8:	00090593          	mv	a1,s2
800029fc:	00088513          	mv	a0,a7
80002a00:	574000ef          	jal	ra,80002f74 <__mulsi3>
80002a04:	00050893          	mv	a7,a0
80002a08:	00030593          	mv	a1,t1
80002a0c:	000e8513          	mv	a0,t4
80002a10:	564000ef          	jal	ra,80002f74 <__mulsi3>
80002a14:	00050313          	mv	t1,a0
80002a18:	00090593          	mv	a1,s2
80002a1c:	000e8513          	mv	a0,t4
80002a20:	554000ef          	jal	ra,80002f74 <__mulsi3>
80002a24:	01085713          	srli	a4,a6,0x10
80002a28:	006888b3          	add	a7,a7,t1
80002a2c:	01170733          	add	a4,a4,a7
80002a30:	00050693          	mv	a3,a0
80002a34:	00677463          	bgeu	a4,t1,80002a3c <__udivdi3+0x590>
80002a38:	01c506b3          	add	a3,a0,t3
80002a3c:	01075513          	srli	a0,a4,0x10
80002a40:	00d506b3          	add	a3,a0,a3
80002a44:	02d46663          	bltu	s0,a3,80002a70 <__udivdi3+0x5c4>
80002a48:	bcd412e3          	bne	s0,a3,8000260c <__udivdi3+0x160>
80002a4c:	00010537          	lui	a0,0x10
80002a50:	fff50513          	addi	a0,a0,-1 # ffff <buflen.2941+0xffbf>
80002a54:	00a77733          	and	a4,a4,a0
80002a58:	01071713          	slli	a4,a4,0x10
80002a5c:	00a87833          	and	a6,a6,a0
80002a60:	009b9bb3          	sll	s7,s7,s1
80002a64:	01070733          	add	a4,a4,a6
80002a68:	00000493          	li	s1,0
80002a6c:	ccebfae3          	bgeu	s7,a4,80002740 <__udivdi3+0x294>
80002a70:	fff78793          	addi	a5,a5,-1 # ffffff <buflen.2941+0xffffbf>
80002a74:	b99ff06f          	j	8000260c <__udivdi3+0x160>
80002a78:	00000493          	li	s1,0
80002a7c:	00000793          	li	a5,0
80002a80:	cc1ff06f          	j	80002740 <__udivdi3+0x294>

80002a84 <__umoddi3>:
80002a84:	fd010113          	addi	sp,sp,-48
80002a88:	02812423          	sw	s0,40(sp)
80002a8c:	02912223          	sw	s1,36(sp)
80002a90:	03212023          	sw	s2,32(sp)
80002a94:	01612823          	sw	s6,16(sp)
80002a98:	02112623          	sw	ra,44(sp)
80002a9c:	01312e23          	sw	s3,28(sp)
80002aa0:	01412c23          	sw	s4,24(sp)
80002aa4:	01512a23          	sw	s5,20(sp)
80002aa8:	01712623          	sw	s7,12(sp)
80002aac:	01812423          	sw	s8,8(sp)
80002ab0:	01912223          	sw	s9,4(sp)
80002ab4:	01a12023          	sw	s10,0(sp)
80002ab8:	00050913          	mv	s2,a0
80002abc:	00058b13          	mv	s6,a1
80002ac0:	00050413          	mv	s0,a0
80002ac4:	00058493          	mv	s1,a1
80002ac8:	26069c63          	bnez	a3,80002d40 <__umoddi3+0x2bc>
80002acc:	80003ab7          	lui	s5,0x80003
80002ad0:	00060a13          	mv	s4,a2
80002ad4:	00068993          	mv	s3,a3
80002ad8:	364a8a93          	addi	s5,s5,868 # 80003364 <__global_pointer$+0xfffff5fc>
80002adc:	14c5f263          	bgeu	a1,a2,80002c20 <__umoddi3+0x19c>
80002ae0:	000107b7          	lui	a5,0x10
80002ae4:	12f67463          	bgeu	a2,a5,80002c0c <__umoddi3+0x188>
80002ae8:	0ff00793          	li	a5,255
80002aec:	00c7f463          	bgeu	a5,a2,80002af4 <__umoddi3+0x70>
80002af0:	00800993          	li	s3,8
80002af4:	013657b3          	srl	a5,a2,s3
80002af8:	00fa8ab3          	add	s5,s5,a5
80002afc:	000ac783          	lbu	a5,0(s5)
80002b00:	02000713          	li	a4,32
80002b04:	013787b3          	add	a5,a5,s3
80002b08:	40f709b3          	sub	s3,a4,a5
80002b0c:	00f70c63          	beq	a4,a5,80002b24 <__umoddi3+0xa0>
80002b10:	013b15b3          	sll	a1,s6,s3
80002b14:	00f957b3          	srl	a5,s2,a5
80002b18:	01361a33          	sll	s4,a2,s3
80002b1c:	00b7e4b3          	or	s1,a5,a1
80002b20:	01391433          	sll	s0,s2,s3
80002b24:	010a5a93          	srli	s5,s4,0x10
80002b28:	000a8593          	mv	a1,s5
80002b2c:	00048513          	mv	a0,s1
80002b30:	4b8000ef          	jal	ra,80002fe8 <__umodsi3>
80002b34:	00050913          	mv	s2,a0
80002b38:	000a8593          	mv	a1,s5
80002b3c:	010a1b13          	slli	s6,s4,0x10
80002b40:	00048513          	mv	a0,s1
80002b44:	45c000ef          	jal	ra,80002fa0 <__udivsi3>
80002b48:	010b5b13          	srli	s6,s6,0x10
80002b4c:	00050593          	mv	a1,a0
80002b50:	000b0513          	mv	a0,s6
80002b54:	420000ef          	jal	ra,80002f74 <__mulsi3>
80002b58:	01091913          	slli	s2,s2,0x10
80002b5c:	01045793          	srli	a5,s0,0x10
80002b60:	00f967b3          	or	a5,s2,a5
80002b64:	00a7fa63          	bgeu	a5,a0,80002b78 <__umoddi3+0xf4>
80002b68:	014787b3          	add	a5,a5,s4
80002b6c:	0147e663          	bltu	a5,s4,80002b78 <__umoddi3+0xf4>
80002b70:	00a7f463          	bgeu	a5,a0,80002b78 <__umoddi3+0xf4>
80002b74:	014787b3          	add	a5,a5,s4
80002b78:	40a784b3          	sub	s1,a5,a0
80002b7c:	000a8593          	mv	a1,s5
80002b80:	00048513          	mv	a0,s1
80002b84:	464000ef          	jal	ra,80002fe8 <__umodsi3>
80002b88:	00050913          	mv	s2,a0
80002b8c:	000a8593          	mv	a1,s5
80002b90:	00048513          	mv	a0,s1
80002b94:	40c000ef          	jal	ra,80002fa0 <__udivsi3>
80002b98:	01041413          	slli	s0,s0,0x10
80002b9c:	00050593          	mv	a1,a0
80002ba0:	01091913          	slli	s2,s2,0x10
80002ba4:	000b0513          	mv	a0,s6
80002ba8:	01045413          	srli	s0,s0,0x10
80002bac:	3c8000ef          	jal	ra,80002f74 <__mulsi3>
80002bb0:	00896433          	or	s0,s2,s0
80002bb4:	00a47a63          	bgeu	s0,a0,80002bc8 <__umoddi3+0x144>
80002bb8:	01440433          	add	s0,s0,s4
80002bbc:	01446663          	bltu	s0,s4,80002bc8 <__umoddi3+0x144>
80002bc0:	00a47463          	bgeu	s0,a0,80002bc8 <__umoddi3+0x144>
80002bc4:	01440433          	add	s0,s0,s4
80002bc8:	40a40433          	sub	s0,s0,a0
80002bcc:	01345533          	srl	a0,s0,s3
80002bd0:	00000593          	li	a1,0
80002bd4:	02c12083          	lw	ra,44(sp)
80002bd8:	02812403          	lw	s0,40(sp)
80002bdc:	02412483          	lw	s1,36(sp)
80002be0:	02012903          	lw	s2,32(sp)
80002be4:	01c12983          	lw	s3,28(sp)
80002be8:	01812a03          	lw	s4,24(sp)
80002bec:	01412a83          	lw	s5,20(sp)
80002bf0:	01012b03          	lw	s6,16(sp)
80002bf4:	00c12b83          	lw	s7,12(sp)
80002bf8:	00812c03          	lw	s8,8(sp)
80002bfc:	00412c83          	lw	s9,4(sp)
80002c00:	00012d03          	lw	s10,0(sp)
80002c04:	03010113          	addi	sp,sp,48
80002c08:	00008067          	ret
80002c0c:	010007b7          	lui	a5,0x1000
80002c10:	01000993          	li	s3,16
80002c14:	eef660e3          	bltu	a2,a5,80002af4 <__umoddi3+0x70>
80002c18:	01800993          	li	s3,24
80002c1c:	ed9ff06f          	j	80002af4 <__umoddi3+0x70>
80002c20:	00061a63          	bnez	a2,80002c34 <__umoddi3+0x1b0>
80002c24:	00000593          	li	a1,0
80002c28:	00100513          	li	a0,1
80002c2c:	374000ef          	jal	ra,80002fa0 <__udivsi3>
80002c30:	00050a13          	mv	s4,a0
80002c34:	000107b7          	lui	a5,0x10
80002c38:	0efa7a63          	bgeu	s4,a5,80002d2c <__umoddi3+0x2a8>
80002c3c:	0ff00793          	li	a5,255
80002c40:	0147f463          	bgeu	a5,s4,80002c48 <__umoddi3+0x1c4>
80002c44:	00800993          	li	s3,8
80002c48:	013a57b3          	srl	a5,s4,s3
80002c4c:	00fa8ab3          	add	s5,s5,a5
80002c50:	000ac783          	lbu	a5,0(s5)
80002c54:	02000713          	li	a4,32
80002c58:	414b04b3          	sub	s1,s6,s4
80002c5c:	013787b3          	add	a5,a5,s3
80002c60:	40f709b3          	sub	s3,a4,a5
80002c64:	ecf700e3          	beq	a4,a5,80002b24 <__umoddi3+0xa0>
80002c68:	013a1a33          	sll	s4,s4,s3
80002c6c:	00fb5ab3          	srl	s5,s6,a5
80002c70:	013b15b3          	sll	a1,s6,s3
80002c74:	00f957b3          	srl	a5,s2,a5
80002c78:	010a5493          	srli	s1,s4,0x10
80002c7c:	00b7eb33          	or	s6,a5,a1
80002c80:	000a8513          	mv	a0,s5
80002c84:	00048593          	mv	a1,s1
80002c88:	360000ef          	jal	ra,80002fe8 <__umodsi3>
80002c8c:	00048593          	mv	a1,s1
80002c90:	01391433          	sll	s0,s2,s3
80002c94:	010a1b93          	slli	s7,s4,0x10
80002c98:	00050913          	mv	s2,a0
80002c9c:	000a8513          	mv	a0,s5
80002ca0:	300000ef          	jal	ra,80002fa0 <__udivsi3>
80002ca4:	010bdb93          	srli	s7,s7,0x10
80002ca8:	00050593          	mv	a1,a0
80002cac:	000b8513          	mv	a0,s7
80002cb0:	2c4000ef          	jal	ra,80002f74 <__mulsi3>
80002cb4:	01091913          	slli	s2,s2,0x10
80002cb8:	010b5793          	srli	a5,s6,0x10
80002cbc:	00f967b3          	or	a5,s2,a5
80002cc0:	00a7fa63          	bgeu	a5,a0,80002cd4 <__umoddi3+0x250>
80002cc4:	014787b3          	add	a5,a5,s4
80002cc8:	0147e663          	bltu	a5,s4,80002cd4 <__umoddi3+0x250>
80002ccc:	00a7f463          	bgeu	a5,a0,80002cd4 <__umoddi3+0x250>
80002cd0:	014787b3          	add	a5,a5,s4
80002cd4:	40a78ab3          	sub	s5,a5,a0
80002cd8:	00048593          	mv	a1,s1
80002cdc:	000a8513          	mv	a0,s5
80002ce0:	308000ef          	jal	ra,80002fe8 <__umodsi3>
80002ce4:	00050913          	mv	s2,a0
80002ce8:	00048593          	mv	a1,s1
80002cec:	000a8513          	mv	a0,s5
80002cf0:	2b0000ef          	jal	ra,80002fa0 <__udivsi3>
80002cf4:	00050593          	mv	a1,a0
80002cf8:	000b8513          	mv	a0,s7
80002cfc:	278000ef          	jal	ra,80002f74 <__mulsi3>
80002d00:	010b1593          	slli	a1,s6,0x10
80002d04:	01091913          	slli	s2,s2,0x10
80002d08:	0105d593          	srli	a1,a1,0x10
80002d0c:	00b965b3          	or	a1,s2,a1
80002d10:	00a5fa63          	bgeu	a1,a0,80002d24 <__umoddi3+0x2a0>
80002d14:	014585b3          	add	a1,a1,s4
80002d18:	0145e663          	bltu	a1,s4,80002d24 <__umoddi3+0x2a0>
80002d1c:	00a5f463          	bgeu	a1,a0,80002d24 <__umoddi3+0x2a0>
80002d20:	014585b3          	add	a1,a1,s4
80002d24:	40a584b3          	sub	s1,a1,a0
80002d28:	dfdff06f          	j	80002b24 <__umoddi3+0xa0>
80002d2c:	010007b7          	lui	a5,0x1000
80002d30:	01000993          	li	s3,16
80002d34:	f0fa6ae3          	bltu	s4,a5,80002c48 <__umoddi3+0x1c4>
80002d38:	01800993          	li	s3,24
80002d3c:	f0dff06f          	j	80002c48 <__umoddi3+0x1c4>
80002d40:	e8d5eae3          	bltu	a1,a3,80002bd4 <__umoddi3+0x150>
80002d44:	000107b7          	lui	a5,0x10
80002d48:	04f6fc63          	bgeu	a3,a5,80002da0 <__umoddi3+0x31c>
80002d4c:	0ff00a93          	li	s5,255
80002d50:	00dab533          	sltu	a0,s5,a3
80002d54:	00351513          	slli	a0,a0,0x3
80002d58:	800037b7          	lui	a5,0x80003
80002d5c:	00a6d733          	srl	a4,a3,a0
80002d60:	36478793          	addi	a5,a5,868 # 80003364 <__global_pointer$+0xfffff5fc>
80002d64:	00e787b3          	add	a5,a5,a4
80002d68:	0007ca83          	lbu	s5,0(a5)
80002d6c:	02000793          	li	a5,32
80002d70:	00aa8ab3          	add	s5,s5,a0
80002d74:	41578a33          	sub	s4,a5,s5
80002d78:	03579e63          	bne	a5,s5,80002db4 <__umoddi3+0x330>
80002d7c:	0166e463          	bltu	a3,s6,80002d84 <__umoddi3+0x300>
80002d80:	00c96a63          	bltu	s2,a2,80002d94 <__umoddi3+0x310>
80002d84:	40c90433          	sub	s0,s2,a2
80002d88:	40db05b3          	sub	a1,s6,a3
80002d8c:	008934b3          	sltu	s1,s2,s0
80002d90:	409584b3          	sub	s1,a1,s1
80002d94:	00040513          	mv	a0,s0
80002d98:	00048593          	mv	a1,s1
80002d9c:	e39ff06f          	j	80002bd4 <__umoddi3+0x150>
80002da0:	010007b7          	lui	a5,0x1000
80002da4:	01000513          	li	a0,16
80002da8:	faf6e8e3          	bltu	a3,a5,80002d58 <__umoddi3+0x2d4>
80002dac:	01800513          	li	a0,24
80002db0:	fa9ff06f          	j	80002d58 <__umoddi3+0x2d4>
80002db4:	014696b3          	sll	a3,a3,s4
80002db8:	015657b3          	srl	a5,a2,s5
80002dbc:	00d7ecb3          	or	s9,a5,a3
80002dc0:	015b5433          	srl	s0,s6,s5
80002dc4:	014b15b3          	sll	a1,s6,s4
80002dc8:	010cdb93          	srli	s7,s9,0x10
80002dcc:	01595b33          	srl	s6,s2,s5
80002dd0:	00bb6b33          	or	s6,s6,a1
80002dd4:	00040513          	mv	a0,s0
80002dd8:	000b8593          	mv	a1,s7
80002ddc:	01461d33          	sll	s10,a2,s4
80002de0:	208000ef          	jal	ra,80002fe8 <__umodsi3>
80002de4:	00050993          	mv	s3,a0
80002de8:	000b8593          	mv	a1,s7
80002dec:	00040513          	mv	a0,s0
80002df0:	010c9c13          	slli	s8,s9,0x10
80002df4:	1ac000ef          	jal	ra,80002fa0 <__udivsi3>
80002df8:	010c5c13          	srli	s8,s8,0x10
80002dfc:	00050593          	mv	a1,a0
80002e00:	014914b3          	sll	s1,s2,s4
80002e04:	00050913          	mv	s2,a0
80002e08:	000c0513          	mv	a0,s8
80002e0c:	168000ef          	jal	ra,80002f74 <__mulsi3>
80002e10:	01099993          	slli	s3,s3,0x10
80002e14:	010b5713          	srli	a4,s6,0x10
80002e18:	00e9e733          	or	a4,s3,a4
80002e1c:	00090413          	mv	s0,s2
80002e20:	00a77e63          	bgeu	a4,a0,80002e3c <__umoddi3+0x3b8>
80002e24:	01970733          	add	a4,a4,s9
80002e28:	fff90413          	addi	s0,s2,-1
80002e2c:	01976863          	bltu	a4,s9,80002e3c <__umoddi3+0x3b8>
80002e30:	00a77663          	bgeu	a4,a0,80002e3c <__umoddi3+0x3b8>
80002e34:	ffe90413          	addi	s0,s2,-2
80002e38:	01970733          	add	a4,a4,s9
80002e3c:	40a70933          	sub	s2,a4,a0
80002e40:	000b8593          	mv	a1,s7
80002e44:	00090513          	mv	a0,s2
80002e48:	1a0000ef          	jal	ra,80002fe8 <__umodsi3>
80002e4c:	00050993          	mv	s3,a0
80002e50:	000b8593          	mv	a1,s7
80002e54:	00090513          	mv	a0,s2
80002e58:	148000ef          	jal	ra,80002fa0 <__udivsi3>
80002e5c:	00050913          	mv	s2,a0
80002e60:	00050593          	mv	a1,a0
80002e64:	000c0513          	mv	a0,s8
80002e68:	10c000ef          	jal	ra,80002f74 <__mulsi3>
80002e6c:	010b1713          	slli	a4,s6,0x10
80002e70:	01099993          	slli	s3,s3,0x10
80002e74:	01075713          	srli	a4,a4,0x10
80002e78:	00e9e733          	or	a4,s3,a4
80002e7c:	00090793          	mv	a5,s2
80002e80:	00a77e63          	bgeu	a4,a0,80002e9c <__umoddi3+0x418>
80002e84:	01970733          	add	a4,a4,s9
80002e88:	fff90793          	addi	a5,s2,-1
80002e8c:	01976863          	bltu	a4,s9,80002e9c <__umoddi3+0x418>
80002e90:	00a77663          	bgeu	a4,a0,80002e9c <__umoddi3+0x418>
80002e94:	ffe90793          	addi	a5,s2,-2
80002e98:	01970733          	add	a4,a4,s9
80002e9c:	00010eb7          	lui	t4,0x10
80002ea0:	01041413          	slli	s0,s0,0x10
80002ea4:	40a70833          	sub	a6,a4,a0
80002ea8:	00f46433          	or	s0,s0,a5
80002eac:	fffe8713          	addi	a4,t4,-1 # ffff <buflen.2941+0xffbf>
80002eb0:	00e478b3          	and	a7,s0,a4
80002eb4:	00ed7733          	and	a4,s10,a4
80002eb8:	01045413          	srli	s0,s0,0x10
80002ebc:	010d5e13          	srli	t3,s10,0x10
80002ec0:	00088513          	mv	a0,a7
80002ec4:	00070593          	mv	a1,a4
80002ec8:	0ac000ef          	jal	ra,80002f74 <__mulsi3>
80002ecc:	00050793          	mv	a5,a0
80002ed0:	000e0593          	mv	a1,t3
80002ed4:	00088513          	mv	a0,a7
80002ed8:	09c000ef          	jal	ra,80002f74 <__mulsi3>
80002edc:	00050893          	mv	a7,a0
80002ee0:	00070593          	mv	a1,a4
80002ee4:	00040513          	mv	a0,s0
80002ee8:	08c000ef          	jal	ra,80002f74 <__mulsi3>
80002eec:	00050313          	mv	t1,a0
80002ef0:	000e0593          	mv	a1,t3
80002ef4:	00040513          	mv	a0,s0
80002ef8:	07c000ef          	jal	ra,80002f74 <__mulsi3>
80002efc:	0107d713          	srli	a4,a5,0x10
80002f00:	006888b3          	add	a7,a7,t1
80002f04:	01170733          	add	a4,a4,a7
80002f08:	00677463          	bgeu	a4,t1,80002f10 <__umoddi3+0x48c>
80002f0c:	01d50533          	add	a0,a0,t4
80002f10:	01075593          	srli	a1,a4,0x10
80002f14:	00a585b3          	add	a1,a1,a0
80002f18:	00010537          	lui	a0,0x10
80002f1c:	fff50513          	addi	a0,a0,-1 # ffff <buflen.2941+0xffbf>
80002f20:	00a77733          	and	a4,a4,a0
80002f24:	01071713          	slli	a4,a4,0x10
80002f28:	00a7f7b3          	and	a5,a5,a0
80002f2c:	00f707b3          	add	a5,a4,a5
80002f30:	00b86663          	bltu	a6,a1,80002f3c <__umoddi3+0x4b8>
80002f34:	00b81e63          	bne	a6,a1,80002f50 <__umoddi3+0x4cc>
80002f38:	00f4fc63          	bgeu	s1,a5,80002f50 <__umoddi3+0x4cc>
80002f3c:	41a78633          	sub	a2,a5,s10
80002f40:	00c7b7b3          	sltu	a5,a5,a2
80002f44:	019787b3          	add	a5,a5,s9
80002f48:	40f585b3          	sub	a1,a1,a5
80002f4c:	00060793          	mv	a5,a2
80002f50:	40f487b3          	sub	a5,s1,a5
80002f54:	00f4b4b3          	sltu	s1,s1,a5
80002f58:	40b805b3          	sub	a1,a6,a1
80002f5c:	409585b3          	sub	a1,a1,s1
80002f60:	01559433          	sll	s0,a1,s5
80002f64:	0147d7b3          	srl	a5,a5,s4
80002f68:	00f46533          	or	a0,s0,a5
80002f6c:	0145d5b3          	srl	a1,a1,s4
80002f70:	c65ff06f          	j	80002bd4 <__umoddi3+0x150>

80002f74 <__mulsi3>:
80002f74:	00050613          	mv	a2,a0
80002f78:	00000513          	li	a0,0
80002f7c:	0015f693          	andi	a3,a1,1
80002f80:	00068463          	beqz	a3,80002f88 <__mulsi3+0x14>
80002f84:	00c50533          	add	a0,a0,a2
80002f88:	0015d593          	srli	a1,a1,0x1
80002f8c:	00161613          	slli	a2,a2,0x1
80002f90:	fe0596e3          	bnez	a1,80002f7c <__mulsi3+0x8>
80002f94:	00008067          	ret

80002f98 <__divsi3>:
80002f98:	06054063          	bltz	a0,80002ff8 <__umodsi3+0x10>
80002f9c:	0605c663          	bltz	a1,80003008 <__umodsi3+0x20>

80002fa0 <__udivsi3>:
80002fa0:	00058613          	mv	a2,a1
80002fa4:	00050593          	mv	a1,a0
80002fa8:	fff00513          	li	a0,-1
80002fac:	02060c63          	beqz	a2,80002fe4 <__udivsi3+0x44>
80002fb0:	00100693          	li	a3,1
80002fb4:	00b67a63          	bgeu	a2,a1,80002fc8 <__udivsi3+0x28>
80002fb8:	00c05863          	blez	a2,80002fc8 <__udivsi3+0x28>
80002fbc:	00161613          	slli	a2,a2,0x1
80002fc0:	00169693          	slli	a3,a3,0x1
80002fc4:	feb66ae3          	bltu	a2,a1,80002fb8 <__udivsi3+0x18>
80002fc8:	00000513          	li	a0,0
80002fcc:	00c5e663          	bltu	a1,a2,80002fd8 <__udivsi3+0x38>
80002fd0:	40c585b3          	sub	a1,a1,a2
80002fd4:	00d56533          	or	a0,a0,a3
80002fd8:	0016d693          	srli	a3,a3,0x1
80002fdc:	00165613          	srli	a2,a2,0x1
80002fe0:	fe0696e3          	bnez	a3,80002fcc <__udivsi3+0x2c>
80002fe4:	00008067          	ret

80002fe8 <__umodsi3>:
80002fe8:	00008293          	mv	t0,ra
80002fec:	fb5ff0ef          	jal	ra,80002fa0 <__udivsi3>
80002ff0:	00058513          	mv	a0,a1
80002ff4:	00028067          	jr	t0
80002ff8:	40a00533          	neg	a0,a0
80002ffc:	0005d863          	bgez	a1,8000300c <__umodsi3+0x24>
80003000:	40b005b3          	neg	a1,a1
80003004:	f9dff06f          	j	80002fa0 <__udivsi3>
80003008:	40b005b3          	neg	a1,a1
8000300c:	00008293          	mv	t0,ra
80003010:	f91ff0ef          	jal	ra,80002fa0 <__udivsi3>
80003014:	40a00533          	neg	a0,a0
80003018:	00028067          	jr	t0

8000301c <__modsi3>:
8000301c:	00008293          	mv	t0,ra
80003020:	0005ca63          	bltz	a1,80003034 <__modsi3+0x18>
80003024:	00054c63          	bltz	a0,8000303c <__modsi3+0x20>
80003028:	f79ff0ef          	jal	ra,80002fa0 <__udivsi3>
8000302c:	00058513          	mv	a0,a1
80003030:	00028067          	jr	t0
80003034:	40b005b3          	neg	a1,a1
80003038:	fe0558e3          	bgez	a0,80003028 <__modsi3+0xc>
8000303c:	40a00533          	neg	a0,a0
80003040:	f61ff0ef          	jal	ra,80002fa0 <__udivsi3>
80003044:	40b00533          	neg	a0,a1
80003048:	00028067          	jr	t0

Disassembly of section .text.startup:

8000304c <main>:
8000304c:	fd010113          	addi	sp,sp,-48
80003050:	8401a623          	sw	zero,-1972(gp) # 800035b4 <g_nodePool+0x34>
80003054:	02112623          	sw	ra,44(sp)
80003058:	00000797          	auipc	a5,0x0
8000305c:	52878793          	addi	a5,a5,1320 # 80003580 <g_nodePool>
80003060:	06300693          	li	a3,99
80003064:	02d7a823          	sw	a3,48(a5)
80003068:	00000697          	auipc	a3,0x0
8000306c:	52068693          	addi	a3,a3,1312 # 80003588 <g_nodePool+0x8>
80003070:	00d7a223          	sw	a3,4(a5)
80003074:	00000697          	auipc	a3,0x0
80003078:	5006a623          	sw	zero,1292(a3) # 80003580 <g_nodePool>
8000307c:	00000697          	auipc	a3,0x0
80003080:	51468693          	addi	a3,a3,1300 # 80003590 <g_nodePool+0x10>
80003084:	00d7a623          	sw	a3,12(a5)
80003088:	00100693          	li	a3,1
8000308c:	00d7a423          	sw	a3,8(a5)
80003090:	00000697          	auipc	a3,0x0
80003094:	50868693          	addi	a3,a3,1288 # 80003598 <g_nodePool+0x18>
80003098:	00d7aa23          	sw	a3,20(a5)
8000309c:	00200693          	li	a3,2
800030a0:	00d7a823          	sw	a3,16(a5)
800030a4:	00000697          	auipc	a3,0x0
800030a8:	4fc68693          	addi	a3,a3,1276 # 800035a0 <g_nodePool+0x20>
800030ac:	00d7ae23          	sw	a3,28(a5)
800030b0:	00300693          	li	a3,3
800030b4:	00d7ac23          	sw	a3,24(a5)
800030b8:	84018693          	addi	a3,gp,-1984 # 800035a8 <g_nodePool+0x28>
800030bc:	02d7a223          	sw	a3,36(a5)
800030c0:	00400693          	li	a3,4
800030c4:	02d7a023          	sw	a3,32(a5)
800030c8:	84818693          	addi	a3,gp,-1976 # 800035b0 <g_nodePool+0x30>
800030cc:	00700713          	li	a4,7
800030d0:	00000897          	auipc	a7,0x0
800030d4:	49888893          	addi	a7,a7,1176 # 80003568 <g_nodeFreeList>
800030d8:	02d7a623          	sw	a3,44(a5)
800030dc:	00500693          	li	a3,5
800030e0:	02d7a423          	sw	a3,40(a5)
800030e4:	00e8a023          	sw	a4,0(a7)
800030e8:	00e12023          	sw	a4,0(sp)
800030ec:	00012223          	sw	zero,4(sp)
800030f0:	00012823          	sw	zero,16(sp)
800030f4:	00012a23          	sw	zero,20(sp)
800030f8:	00012c23          	sw	zero,24(sp)
800030fc:	00012e23          	sw	zero,28(sp)
80003100:	00000693          	li	a3,0
80003104:	0080006f          	j	8000310c <main+0xc0>
80003108:	00080793          	mv	a5,a6
8000310c:	0047a803          	lw	a6,4(a5)
80003110:	00e7a023          	sw	a4,0(a5)
80003114:	00d7a223          	sw	a3,4(a5)
80003118:	fff70713          	addi	a4,a4,-1
8000311c:	00078693          	mv	a3,a5
80003120:	fe0714e3          	bnez	a4,80003108 <main+0xbc>
80003124:	00700593          	li	a1,7
80003128:	01810713          	addi	a4,sp,24
8000312c:	01010693          	addi	a3,sp,16
80003130:	00810613          	addi	a2,sp,8
80003134:	00010513          	mv	a0,sp
80003138:	00f12623          	sw	a5,12(sp)
8000313c:	00700793          	li	a5,7
80003140:	00f12423          	sw	a5,8(sp)
80003144:	0108a223          	sw	a6,4(a7)
80003148:	9a0fe0ef          	jal	ra,800012e8 <towers_solve_h>
8000314c:	00010513          	mv	a0,sp
80003150:	878fe0ef          	jal	ra,800011c8 <towers_clear>
80003154:	00100513          	li	a0,1
80003158:	8c9fe0ef          	jal	ra,80001a20 <setStats>
8000315c:	00012583          	lw	a1,0(sp)
80003160:	01810713          	addi	a4,sp,24
80003164:	01010693          	addi	a3,sp,16
80003168:	00810613          	addi	a2,sp,8
8000316c:	00010513          	mv	a0,sp
80003170:	978fe0ef          	jal	ra,800012e8 <towers_solve_h>
80003174:	00000513          	li	a0,0
80003178:	8a9fe0ef          	jal	ra,80001a20 <setStats>
8000317c:	00812783          	lw	a5,8(sp)
80003180:	00200513          	li	a0,2
80003184:	00079c63          	bnez	a5,8000319c <main+0x150>
80003188:	01012783          	lw	a5,16(sp)
8000318c:	00300513          	li	a0,3
80003190:	00079663          	bnez	a5,8000319c <main+0x150>
80003194:	00010513          	mv	a0,sp
80003198:	eb1fd0ef          	jal	ra,80001048 <towers_verify.part.0>
8000319c:	02c12083          	lw	ra,44(sp)
800031a0:	03010113          	addi	sp,sp,48
800031a4:	00008067          	ret
800031a8:	ff010113          	addi	sp,sp,-16
800031ac:	00000517          	auipc	a0,0x0
800031b0:	03c50513          	addi	a0,a0,60 # 800031e8 <main+0x19c>
800031b4:	00112623          	sw	ra,12(sp)
800031b8:	925fe0ef          	jal	ra,80001adc <printstr>
800031bc:	00c12083          	lw	ra,12(sp)
800031c0:	fff00513          	li	a0,-1
800031c4:	01010113          	addi	sp,sp,16
800031c8:	00008067          	ret
