
towers.riscv:     file format elf32-littleriscv


Disassembly of section .text:

00002000 <_start>:
    2000:	00000093          	li	ra,0
    2004:	00000113          	li	sp,0
    2008:	00000193          	li	gp,0
    200c:	00000213          	li	tp,0
    2010:	00000293          	li	t0,0
    2014:	00000313          	li	t1,0
    2018:	00000393          	li	t2,0
    201c:	00000413          	li	s0,0
    2020:	00000493          	li	s1,0
    2024:	00000513          	li	a0,0
    2028:	00000593          	li	a1,0
    202c:	00000613          	li	a2,0
    2030:	00000693          	li	a3,0
    2034:	00000713          	li	a4,0
    2038:	00000793          	li	a5,0
    203c:	00000813          	li	a6,0
    2040:	00000893          	li	a7,0
    2044:	00000913          	li	s2,0
    2048:	00000993          	li	s3,0
    204c:	00000a13          	li	s4,0
    2050:	00000a93          	li	s5,0
    2054:	00000b13          	li	s6,0
    2058:	00000b93          	li	s7,0
    205c:	00000c13          	li	s8,0
    2060:	00000c93          	li	s9,0
    2064:	00000d13          	li	s10,0
    2068:	00000d93          	li	s11,0
    206c:	00000e13          	li	t3,0
    2070:	00000e93          	li	t4,0
    2074:	00000f13          	li	t5,0
    2078:	00000f93          	li	t6,0
    207c:	50b02573          	csrr	a0,hartid
    2080:	fe051ee3          	bnez	a0,207c <_start+0x7c>
    2084:	00020117          	auipc	sp,0x20
    2088:	52c10113          	addi	sp,sp,1324 # 225b0 <stacktop>
    208c:	3f4000ef          	jal	2480 <main>
    2090:	00000013          	nop
    2094:	00000013          	nop
    2098:	00000063          	b	2098 <_start+0x98>

0000209c <towers_verify.part.0>:
    209c:	01852603          	lw	a2,24(a0)
    20a0:	00052783          	lw	a5,0(a0)
    20a4:	00f60663          	beq	a2,a5,20b0 <towers_verify.part.0+0x14>
    20a8:	00400513          	li	a0,4
    20ac:	00008067          	ret
    20b0:	01c52783          	lw	a5,28(a0)
    20b4:	02078663          	beqz	a5,20e0 <towers_verify.part.0+0x44>
    20b8:	0007a683          	lw	a3,0(a5)
    20bc:	00100713          	li	a4,1
    20c0:	02e69e63          	bne	a3,a4,20fc <towers_verify.part.0+0x60>
    20c4:	00100713          	li	a4,1
    20c8:	00c0006f          	j	20d4 <towers_verify.part.0+0x38>
    20cc:	0007a683          	lw	a3,0(a5)
    20d0:	02d71663          	bne	a4,a3,20fc <towers_verify.part.0+0x60>
    20d4:	0047a783          	lw	a5,4(a5)
    20d8:	00170713          	addi	a4,a4,1
    20dc:	fe0798e3          	bnez	a5,20cc <towers_verify.part.0+0x30>
    20e0:	00452703          	lw	a4,4(a0)
    20e4:	00100793          	li	a5,1
    20e8:	00c79633          	sll	a2,a5,a2
    20ec:	fff60613          	addi	a2,a2,-1
    20f0:	00600513          	li	a0,6
    20f4:	00c70863          	beq	a4,a2,2104 <towers_verify.part.0+0x68>
    20f8:	00008067          	ret
    20fc:	00500513          	li	a0,5
    2100:	00008067          	ret
    2104:	00100513          	li	a0,1
    2108:	00008067          	ret

0000210c <barrier>:
    210c:	0330000f          	fence	rw,rw
    2110:	00022683          	lw	a3,0(tp) # 0 <threadsense.1375>
    2114:	00022737          	lui	a4,0x22
    2118:	5b470593          	addi	a1,a4,1460 # 225b4 <count.1374>
    211c:	0016b693          	seqz	a3,a3
    2120:	00d22023          	sw	a3,0(tp) # 0 <threadsense.1375>
    2124:	00100693          	li	a3,1
    2128:	06d5a62f          	amoadd.w.sc	a2,a3,(a1)
    212c:	000026b7          	lui	a3,0x2
    2130:	5646a683          	lw	a3,1380(a3) # 2564 <_end>
    2134:	fff68693          	addi	a3,a3,-1
    2138:	00d60e63          	beq	a2,a3,2154 <barrier+0x48>
    213c:	00022683          	lw	a3,0(tp) # 0 <threadsense.1375>
    2140:	00022737          	lui	a4,0x22
    2144:	5b072783          	lw	a5,1456(a4) # 225b0 <stacktop>
    2148:	fed79ee3          	bne	a5,a3,2144 <barrier+0x38>
    214c:	0330000f          	fence	rw,rw
    2150:	00008067          	ret
    2154:	00022683          	lw	a3,0(tp) # 0 <threadsense.1375>
    2158:	000227b7          	lui	a5,0x22
    215c:	5a072a23          	sw	zero,1460(a4)
    2160:	5ad7a823          	sw	a3,1456(a5) # 225b0 <stacktop>
    2164:	0330000f          	fence	rw,rw
    2168:	00008067          	ret

0000216c <finishTest>:
    216c:	51e51073          	csrw	tohost,a0
    2170:	00008067          	ret

00002174 <setStats>:
    2174:	0c051073          	csrw	stats,a0
    2178:	00008067          	ret

0000217c <list_getSize>:
    217c:	00052503          	lw	a0,0(a0)
    2180:	00008067          	ret

00002184 <list_init>:
    2184:	00052023          	sw	zero,0(a0)
    2188:	00052223          	sw	zero,4(a0)
    218c:	00008067          	ret

00002190 <list_push>:
    2190:	00002737          	lui	a4,0x2
    2194:	57070713          	addi	a4,a4,1392 # 2570 <g_nodeFreeList>
    2198:	00472783          	lw	a5,4(a4)
    219c:	00052683          	lw	a3,0(a0)
    21a0:	0047a603          	lw	a2,4(a5)
    21a4:	00168693          	addi	a3,a3,1
    21a8:	00c72223          	sw	a2,4(a4)
    21ac:	00452703          	lw	a4,4(a0)
    21b0:	00e7a223          	sw	a4,4(a5)
    21b4:	00f52223          	sw	a5,4(a0)
    21b8:	00b7a023          	sw	a1,0(a5)
    21bc:	00d52023          	sw	a3,0(a0)
    21c0:	00008067          	ret

000021c4 <list_pop>:
    21c4:	00452683          	lw	a3,4(a0)
    21c8:	00050793          	mv	a5,a0
    21cc:	00002737          	lui	a4,0x2
    21d0:	0046a583          	lw	a1,4(a3)
    21d4:	0007a603          	lw	a2,0(a5)
    21d8:	0006a503          	lw	a0,0(a3)
    21dc:	57070713          	addi	a4,a4,1392 # 2570 <g_nodeFreeList>
    21e0:	00b7a223          	sw	a1,4(a5)
    21e4:	00472583          	lw	a1,4(a4)
    21e8:	fff60613          	addi	a2,a2,-1
    21ec:	00b6a223          	sw	a1,4(a3)
    21f0:	00d72223          	sw	a3,4(a4)
    21f4:	00c7a023          	sw	a2,0(a5)
    21f8:	00008067          	ret

000021fc <list_clear>:
    21fc:	00052703          	lw	a4,0(a0)
    2200:	000026b7          	lui	a3,0x2
    2204:	57068693          	addi	a3,a3,1392 # 2570 <g_nodeFreeList>
    2208:	02e05463          	blez	a4,2230 <list_clear+0x34>
    220c:	00452783          	lw	a5,4(a0)
    2210:	fff70713          	addi	a4,a4,-1
    2214:	0047a603          	lw	a2,4(a5)
    2218:	00c52223          	sw	a2,4(a0)
    221c:	0046a603          	lw	a2,4(a3)
    2220:	00c7a223          	sw	a2,4(a5)
    2224:	00f6a223          	sw	a5,4(a3)
    2228:	fe0712e3          	bnez	a4,220c <list_clear+0x10>
    222c:	00052023          	sw	zero,0(a0)
    2230:	00008067          	ret

00002234 <towers_init>:
    2234:	00b52023          	sw	a1,0(a0)
    2238:	00052223          	sw	zero,4(a0)
    223c:	00052423          	sw	zero,8(a0)
    2240:	00052623          	sw	zero,12(a0)
    2244:	00052823          	sw	zero,16(a0)
    2248:	00052a23          	sw	zero,20(a0)
    224c:	00052c23          	sw	zero,24(a0)
    2250:	00052e23          	sw	zero,28(a0)
    2254:	04b05263          	blez	a1,2298 <towers_init+0x64>
    2258:	00002837          	lui	a6,0x2
    225c:	57080813          	addi	a6,a6,1392 # 2570 <g_nodeFreeList>
    2260:	00482783          	lw	a5,4(a6)
    2264:	00058713          	mv	a4,a1
    2268:	00000693          	li	a3,0
    226c:	0080006f          	j	2274 <towers_init+0x40>
    2270:	00060793          	mv	a5,a2
    2274:	00e7a023          	sw	a4,0(a5)
    2278:	fff70713          	addi	a4,a4,-1
    227c:	0047a603          	lw	a2,4(a5)
    2280:	00d7a223          	sw	a3,4(a5)
    2284:	00078693          	mv	a3,a5
    2288:	fe0714e3          	bnez	a4,2270 <towers_init+0x3c>
    228c:	00c82223          	sw	a2,4(a6)
    2290:	00f52623          	sw	a5,12(a0)
    2294:	00b52423          	sw	a1,8(a0)
    2298:	00008067          	ret

0000229c <towers_clear>:
    229c:	00852703          	lw	a4,8(a0)
    22a0:	02e05e63          	blez	a4,22dc <towers_clear+0x40>
    22a4:	000025b7          	lui	a1,0x2
    22a8:	57058593          	addi	a1,a1,1392 # 2570 <g_nodeFreeList>
    22ac:	00c52783          	lw	a5,12(a0)
    22b0:	0045a683          	lw	a3,4(a1)
    22b4:	0080006f          	j	22bc <towers_clear+0x20>
    22b8:	00060793          	mv	a5,a2
    22bc:	fff70713          	addi	a4,a4,-1
    22c0:	0047a603          	lw	a2,4(a5)
    22c4:	00d7a223          	sw	a3,4(a5)
    22c8:	00078693          	mv	a3,a5
    22cc:	fe0716e3          	bnez	a4,22b8 <towers_clear+0x1c>
    22d0:	00f5a223          	sw	a5,4(a1)
    22d4:	00c52623          	sw	a2,12(a0)
    22d8:	00052423          	sw	zero,8(a0)
    22dc:	01052703          	lw	a4,16(a0)
    22e0:	02e05e63          	blez	a4,231c <towers_clear+0x80>
    22e4:	000025b7          	lui	a1,0x2
    22e8:	57058593          	addi	a1,a1,1392 # 2570 <g_nodeFreeList>
    22ec:	01452783          	lw	a5,20(a0)
    22f0:	0045a683          	lw	a3,4(a1)
    22f4:	0080006f          	j	22fc <towers_clear+0x60>
    22f8:	00060793          	mv	a5,a2
    22fc:	fff70713          	addi	a4,a4,-1
    2300:	0047a603          	lw	a2,4(a5)
    2304:	00d7a223          	sw	a3,4(a5)
    2308:	00078693          	mv	a3,a5
    230c:	fe0716e3          	bnez	a4,22f8 <towers_clear+0x5c>
    2310:	00f5a223          	sw	a5,4(a1)
    2314:	00c52a23          	sw	a2,20(a0)
    2318:	00052823          	sw	zero,16(a0)
    231c:	01852703          	lw	a4,24(a0)
    2320:	02e05e63          	blez	a4,235c <towers_clear+0xc0>
    2324:	000025b7          	lui	a1,0x2
    2328:	57058593          	addi	a1,a1,1392 # 2570 <g_nodeFreeList>
    232c:	01c52783          	lw	a5,28(a0)
    2330:	0045a683          	lw	a3,4(a1)
    2334:	0080006f          	j	233c <towers_clear+0xa0>
    2338:	00060793          	mv	a5,a2
    233c:	fff70713          	addi	a4,a4,-1
    2340:	0047a603          	lw	a2,4(a5)
    2344:	00d7a223          	sw	a3,4(a5)
    2348:	00078693          	mv	a3,a5
    234c:	fe0716e3          	bnez	a4,2338 <towers_clear+0x9c>
    2350:	00c52e23          	sw	a2,28(a0)
    2354:	00f5a223          	sw	a5,4(a1)
    2358:	00052c23          	sw	zero,24(a0)
    235c:	00052583          	lw	a1,0(a0)
    2360:	ed5ff06f          	j	2234 <towers_init>

00002364 <towers_solve_h>:
    2364:	fe010113          	addi	sp,sp,-32
    2368:	00100793          	li	a5,1
    236c:	00812c23          	sw	s0,24(sp)
    2370:	00912a23          	sw	s1,20(sp)
    2374:	01212823          	sw	s2,16(sp)
    2378:	01312623          	sw	s3,12(sp)
    237c:	01412423          	sw	s4,8(sp)
    2380:	00112e23          	sw	ra,28(sp)
    2384:	00058493          	mv	s1,a1
    2388:	00050a13          	mv	s4,a0
    238c:	00060413          	mv	s0,a2
    2390:	00068913          	mv	s2,a3
    2394:	00070993          	mv	s3,a4
    2398:	00f59863          	bne	a1,a5,23a8 <towers_solve_h+0x44>
    239c:	0500006f          	j	23ec <towers_solve_h+0x88>
    23a0:	00040913          	mv	s2,s0
    23a4:	00070413          	mv	s0,a4
    23a8:	fff48493          	addi	s1,s1,-1
    23ac:	00048593          	mv	a1,s1
    23b0:	00040613          	mv	a2,s0
    23b4:	00098693          	mv	a3,s3
    23b8:	00090713          	mv	a4,s2
    23bc:	000a0513          	mv	a0,s4
    23c0:	fa5ff0ef          	jal	2364 <towers_solve_h>
    23c4:	00098713          	mv	a4,s3
    23c8:	000a0513          	mv	a0,s4
    23cc:	00040613          	mv	a2,s0
    23d0:	00090693          	mv	a3,s2
    23d4:	00100593          	li	a1,1
    23d8:	f8dff0ef          	jal	2364 <towers_solve_h>
    23dc:	00100793          	li	a5,1
    23e0:	00090713          	mv	a4,s2
    23e4:	faf49ee3          	bne	s1,a5,23a0 <towers_solve_h+0x3c>
    23e8:	00090413          	mv	s0,s2
    23ec:	00442683          	lw	a3,4(s0)
    23f0:	00042703          	lw	a4,0(s0)
    23f4:	004a2783          	lw	a5,4(s4)
    23f8:	0046a603          	lw	a2,4(a3)
    23fc:	fff70713          	addi	a4,a4,-1
    2400:	00e42023          	sw	a4,0(s0)
    2404:	00c42223          	sw	a2,4(s0)
    2408:	0009a703          	lw	a4,0(s3)
    240c:	0049a603          	lw	a2,4(s3)
    2410:	01c12083          	lw	ra,28(sp)
    2414:	00178793          	addi	a5,a5,1
    2418:	00170713          	addi	a4,a4,1
    241c:	00c6a223          	sw	a2,4(a3)
    2420:	01812403          	lw	s0,24(sp)
    2424:	00d9a223          	sw	a3,4(s3)
    2428:	00e9a023          	sw	a4,0(s3)
    242c:	01412483          	lw	s1,20(sp)
    2430:	00fa2223          	sw	a5,4(s4)
    2434:	01012903          	lw	s2,16(sp)
    2438:	00c12983          	lw	s3,12(sp)
    243c:	00812a03          	lw	s4,8(sp)
    2440:	02010113          	addi	sp,sp,32
    2444:	00008067          	ret

00002448 <towers_solve>:
    2448:	00052583          	lw	a1,0(a0)
    244c:	00850613          	addi	a2,a0,8
    2450:	01050693          	addi	a3,a0,16
    2454:	01850713          	addi	a4,a0,24
    2458:	f0dff06f          	j	2364 <towers_solve_h>

0000245c <towers_verify>:
    245c:	00852703          	lw	a4,8(a0)
    2460:	00070863          	beqz	a4,2470 <towers_verify+0x14>
    2464:	00200793          	li	a5,2
    2468:	00078513          	mv	a0,a5
    246c:	00008067          	ret
    2470:	01052703          	lw	a4,16(a0)
    2474:	00300793          	li	a5,3
    2478:	fe0718e3          	bnez	a4,2468 <towers_verify+0xc>
    247c:	c21ff06f          	j	209c <towers_verify.part.0>

Disassembly of section .text.startup:

00002480 <main>:
    2480:	00002737          	lui	a4,0x2
    2484:	000027b7          	lui	a5,0x2
    2488:	57878793          	addi	a5,a5,1400 # 2578 <g_nodePool>
    248c:	57070693          	addi	a3,a4,1392 # 2570 <g_nodeFreeList>
    2490:	00f6a223          	sw	a5,4(a3)
    2494:	00700693          	li	a3,7
    2498:	56d72823          	sw	a3,1392(a4)
    249c:	06300713          	li	a4,99
    24a0:	02e7a823          	sw	a4,48(a5)
    24a4:	0207aa23          	sw	zero,52(a5)
    24a8:	000027b7          	lui	a5,0x2
    24ac:	58078793          	addi	a5,a5,1408 # 2580 <g_nodePool+0x8>
    24b0:	00000713          	li	a4,0
    24b4:	00600693          	li	a3,6
    24b8:	fee7ac23          	sw	a4,-8(a5)
    24bc:	00170713          	addi	a4,a4,1
    24c0:	fef7ae23          	sw	a5,-4(a5)
    24c4:	00878793          	addi	a5,a5,8
    24c8:	fed718e3          	bne	a4,a3,24b8 <main+0x38>
    24cc:	fd010113          	addi	sp,sp,-48
    24d0:	00010513          	mv	a0,sp
    24d4:	00700593          	li	a1,7
    24d8:	02112623          	sw	ra,44(sp)
    24dc:	d59ff0ef          	jal	2234 <towers_init>
    24e0:	00012583          	lw	a1,0(sp)
    24e4:	00810613          	addi	a2,sp,8
    24e8:	01010693          	addi	a3,sp,16
    24ec:	01810713          	addi	a4,sp,24
    24f0:	00010513          	mv	a0,sp
    24f4:	e71ff0ef          	jal	2364 <towers_solve_h>
    24f8:	00010513          	mv	a0,sp
    24fc:	da1ff0ef          	jal	229c <towers_clear>
    2500:	00100793          	li	a5,1
    2504:	0c079073          	csrw	stats,a5
    2508:	00012583          	lw	a1,0(sp)
    250c:	00010513          	mv	a0,sp
    2510:	00810613          	addi	a2,sp,8
    2514:	01010693          	addi	a3,sp,16
    2518:	01810713          	addi	a4,sp,24
    251c:	e49ff0ef          	jal	2364 <towers_solve_h>
    2520:	00000793          	li	a5,0
    2524:	0c079073          	csrw	stats,a5
    2528:	00812783          	lw	a5,8(sp)
    252c:	00200513          	li	a0,2
    2530:	00079c63          	bnez	a5,2548 <main+0xc8>
    2534:	01012783          	lw	a5,16(sp)
    2538:	00300513          	li	a0,3
    253c:	00079663          	bnez	a5,2548 <main+0xc8>
    2540:	00010513          	mv	a0,sp
    2544:	b59ff0ef          	jal	209c <towers_verify.part.0>
    2548:	51e51073          	csrw	tohost,a0
    254c:	02c12083          	lw	ra,44(sp)
    2550:	00000513          	li	a0,0
    2554:	03010113          	addi	sp,sp,48
    2558:	00008067          	ret
