
towers.riscv:     file format elf32-littleriscv


Disassembly of section .text:

00000100 <user_trap_entry>:
     100:	2000006f          	j	300 <trap_entry>
     104:	00000013          	nop
     108:	00000013          	nop
     10c:	00000013          	nop
     110:	00000013          	nop
     114:	00000013          	nop
     118:	00000013          	nop
     11c:	00000013          	nop
     120:	00000013          	nop
     124:	00000013          	nop
     128:	00000013          	nop
     12c:	00000013          	nop
     130:	00000013          	nop
     134:	00000013          	nop
     138:	00000013          	nop
     13c:	00000013          	nop

00000140 <supervisor_trap_entry>:
     140:	0000006f          	j	140 <supervisor_trap_entry>
     144:	00000013          	nop
     148:	00000013          	nop
     14c:	00000013          	nop
     150:	00000013          	nop
     154:	00000013          	nop
     158:	00000013          	nop
     15c:	00000013          	nop
     160:	00000013          	nop
     164:	00000013          	nop
     168:	00000013          	nop
     16c:	00000013          	nop
     170:	00000013          	nop
     174:	00000013          	nop
     178:	00000013          	nop
     17c:	00000013          	nop

00000180 <hypervisor_trap_entry>:
     180:	0000006f          	j	180 <hypervisor_trap_entry>
     184:	00000013          	nop
     188:	00000013          	nop
     18c:	00000013          	nop
     190:	00000013          	nop
     194:	00000013          	nop
     198:	00000013          	nop
     19c:	00000013          	nop
     1a0:	00000013          	nop
     1a4:	00000013          	nop
     1a8:	00000013          	nop
     1ac:	00000013          	nop
     1b0:	00000013          	nop
     1b4:	00000013          	nop
     1b8:	00000013          	nop
     1bc:	00000013          	nop

000001c0 <machine_trap_entry>:
     1c0:	1400006f          	j	300 <trap_entry>
     1c4:	00000013          	nop
     1c8:	00000013          	nop
     1cc:	00000013          	nop
     1d0:	00000013          	nop
     1d4:	00000013          	nop
     1d8:	00000013          	nop
     1dc:	00000013          	nop
     1e0:	00000013          	nop
     1e4:	00000013          	nop
     1e8:	00000013          	nop
     1ec:	00000013          	nop
     1f0:	00000013          	nop
     1f4:	00000013          	nop
     1f8:	00000013          	nop
     1fc:	00000013          	nop

00000200 <_start>:
     200:	00000093          	li	ra,0
     204:	00000113          	li	sp,0
     208:	00000193          	li	gp,0
     20c:	00000213          	li	tp,0
     210:	00000293          	li	t0,0
     214:	00000313          	li	t1,0
     218:	00000393          	li	t2,0
     21c:	00000413          	li	s0,0
     220:	00000493          	li	s1,0
     224:	00000513          	li	a0,0
     228:	00000593          	li	a1,0
     22c:	00000613          	li	a2,0
     230:	00000693          	li	a3,0
     234:	00000713          	li	a4,0
     238:	00000793          	li	a5,0
     23c:	00000813          	li	a6,0
     240:	00000893          	li	a7,0
     244:	00000913          	li	s2,0
     248:	00000993          	li	s3,0
     24c:	00000a13          	li	s4,0
     250:	00000a93          	li	s5,0
     254:	00000b13          	li	s6,0
     258:	00000b93          	li	s7,0
     25c:	00000c13          	li	s8,0
     260:	00000c93          	li	s9,0
     264:	00000d13          	li	s10,0
     268:	00000d93          	li	s11,0
     26c:	00000e13          	li	t3,0
     270:	00000e93          	li	t4,0
     274:	00000f13          	li	t5,0
     278:	00000f93          	li	t6,0
     27c:	03000293          	li	t0,48
     280:	3002b073          	csrc	mstatus,t0
     284:	00800293          	li	t0,8
     288:	3002a073          	csrs	mstatus,t0
     28c:	000032b7          	lui	t0,0x3
     290:	3002a073          	csrs	mstatus,t0
     294:	0000c2b7          	lui	t0,0xc
     298:	3002a073          	csrs	mstatus,t0
     29c:	300022f3          	csrr	t0,mstatus
     2a0:	0000c337          	lui	t1,0xc
     2a4:	0062f333          	and	t1,t0,t1
     2a8:	00002397          	auipc	t2,0x2
     2ac:	5063a823          	sw	t1,1296(t2) # 27b8 <have_vec>
     2b0:	00003337          	lui	t1,0x3
     2b4:	0062f333          	and	t1,t0,t1
     2b8:	00030263          	beqz	t1,2bc <_start+0xbc>
     2bc:	00003197          	auipc	gp,0x3
     2c0:	cf418193          	addi	gp,gp,-780 # 2fb0 <_gp>
     2c4:	00002217          	auipc	tp,0x2
     2c8:	63b20213          	addi	tp,tp,1595 # 28ff <_end+0x3f>
     2cc:	fc027213          	andi	tp,tp,-64
     2d0:	f1002573          	csrr	a0,mhartid
     2d4:	00100593          	li	a1,1
     2d8:	00b57063          	bleu	a1,a0,2d8 <_start+0xd8>
     2dc:	01151613          	slli	a2,a0,0x11
     2e0:	00c20233          	add	tp,tp,a2
     2e4:	00150113          	addi	sp,a0,1
     2e8:	01111113          	slli	sp,sp,0x11
     2ec:	00410133          	add	sp,sp,tp
     2f0:	00001297          	auipc	t0,0x1
     2f4:	f2028293          	addi	t0,t0,-224 # 1210 <_init>
     2f8:	34129073          	csrw	mepc,t0
     2fc:	10000073          	eret

00000300 <trap_entry>:
     300:	ef010113          	addi	sp,sp,-272
     304:	00112223          	sw	ra,4(sp)
     308:	00212423          	sw	sp,8(sp)
     30c:	00312623          	sw	gp,12(sp)
     310:	00412823          	sw	tp,16(sp)
     314:	00512a23          	sw	t0,20(sp)
     318:	00612c23          	sw	t1,24(sp)
     31c:	00712e23          	sw	t2,28(sp)
     320:	02812023          	sw	s0,32(sp)
     324:	02912223          	sw	s1,36(sp)
     328:	02a12423          	sw	a0,40(sp)
     32c:	02b12623          	sw	a1,44(sp)
     330:	02c12823          	sw	a2,48(sp)
     334:	02d12a23          	sw	a3,52(sp)
     338:	02e12c23          	sw	a4,56(sp)
     33c:	02f12e23          	sw	a5,60(sp)
     340:	05012023          	sw	a6,64(sp)
     344:	05112223          	sw	a7,68(sp)
     348:	05212423          	sw	s2,72(sp)
     34c:	05312623          	sw	s3,76(sp)
     350:	05412823          	sw	s4,80(sp)
     354:	05512a23          	sw	s5,84(sp)
     358:	05612c23          	sw	s6,88(sp)
     35c:	05712e23          	sw	s7,92(sp)
     360:	07812023          	sw	s8,96(sp)
     364:	07912223          	sw	s9,100(sp)
     368:	07a12423          	sw	s10,104(sp)
     36c:	07b12623          	sw	s11,108(sp)
     370:	07c12823          	sw	t3,112(sp)
     374:	07d12a23          	sw	t4,116(sp)
     378:	07e12c23          	sw	t5,120(sp)
     37c:	07f12e23          	sw	t6,124(sp)
     380:	34202573          	csrr	a0,mcause
     384:	341025f3          	csrr	a1,mepc
     388:	00010613          	mv	a2,sp
     38c:	195000ef          	jal	d20 <handle_trap>
     390:	34151073          	csrw	mepc,a0
     394:	00412083          	lw	ra,4(sp)
     398:	00812103          	lw	sp,8(sp)
     39c:	00c12183          	lw	gp,12(sp)
     3a0:	01012203          	lw	tp,16(sp)
     3a4:	01412283          	lw	t0,20(sp)
     3a8:	01812303          	lw	t1,24(sp)
     3ac:	01c12383          	lw	t2,28(sp)
     3b0:	02012403          	lw	s0,32(sp)
     3b4:	02412483          	lw	s1,36(sp)
     3b8:	02812503          	lw	a0,40(sp)
     3bc:	02c12583          	lw	a1,44(sp)
     3c0:	03012603          	lw	a2,48(sp)
     3c4:	03412683          	lw	a3,52(sp)
     3c8:	03812703          	lw	a4,56(sp)
     3cc:	03c12783          	lw	a5,60(sp)
     3d0:	04012803          	lw	a6,64(sp)
     3d4:	04412883          	lw	a7,68(sp)
     3d8:	04812903          	lw	s2,72(sp)
     3dc:	04c12983          	lw	s3,76(sp)
     3e0:	05012a03          	lw	s4,80(sp)
     3e4:	05412a83          	lw	s5,84(sp)
     3e8:	05812b03          	lw	s6,88(sp)
     3ec:	05c12b83          	lw	s7,92(sp)
     3f0:	06012c03          	lw	s8,96(sp)
     3f4:	06412c83          	lw	s9,100(sp)
     3f8:	06812d03          	lw	s10,104(sp)
     3fc:	06c12d83          	lw	s11,108(sp)
     400:	07012e03          	lw	t3,112(sp)
     404:	07412e83          	lw	t4,116(sp)
     408:	07812f03          	lw	t5,120(sp)
     40c:	07c12f83          	lw	t6,124(sp)
     410:	11010113          	addi	sp,sp,272
     414:	10000073          	eret

00000418 <towers_verify.part.0>:
     418:	01852583          	lw	a1,24(a0)
     41c:	00052783          	lw	a5,0(a0)
     420:	00050693          	mv	a3,a0
     424:	00f58663          	beq	a1,a5,430 <towers_verify.part.0+0x18>
     428:	00400513          	li	a0,4
     42c:	00008067          	ret
     430:	01c52783          	lw	a5,28(a0)
     434:	02078663          	beqz	a5,460 <towers_verify.part.0+0x48>
     438:	0007a703          	lw	a4,0(a5)
     43c:	00100613          	li	a2,1
     440:	00500513          	li	a0,5
     444:	00c70863          	beq	a4,a2,454 <towers_verify.part.0+0x3c>
     448:	0400006f          	j	488 <towers_verify.part.0+0x70>
     44c:	0007a603          	lw	a2,0(a5)
     450:	02c71a63          	bne	a4,a2,484 <towers_verify.part.0+0x6c>
     454:	0047a783          	lw	a5,4(a5)
     458:	00170713          	addi	a4,a4,1
     45c:	fe0798e3          	bnez	a5,44c <towers_verify.part.0+0x34>
     460:	0046a783          	lw	a5,4(a3)
     464:	00100513          	li	a0,1
     468:	00b51533          	sll	a0,a0,a1
     46c:	fff50513          	addi	a0,a0,-1
     470:	40a78533          	sub	a0,a5,a0
     474:	00a03533          	snez	a0,a0
     478:	40a00533          	neg	a0,a0
     47c:	00657513          	andi	a0,a0,6
     480:	00008067          	ret
     484:	00500513          	li	a0,5
     488:	00008067          	ret

0000048c <list_getSize>:
     48c:	00052503          	lw	a0,0(a0)
     490:	00008067          	ret

00000494 <list_init>:
     494:	00052023          	sw	zero,0(a0)
     498:	00052223          	sw	zero,4(a0)
     49c:	00008067          	ret

000004a0 <list_push>:
     4a0:	80018713          	addi	a4,gp,-2048 # 27b0 <g_nodeFreeList>
     4a4:	00472783          	lw	a5,4(a4)
     4a8:	00052683          	lw	a3,0(a0)
     4ac:	0047a603          	lw	a2,4(a5)
     4b0:	00168693          	addi	a3,a3,1
     4b4:	00c72223          	sw	a2,4(a4)
     4b8:	00452703          	lw	a4,4(a0)
     4bc:	00e7a223          	sw	a4,4(a5)
     4c0:	00f52223          	sw	a5,4(a0)
     4c4:	00b7a023          	sw	a1,0(a5)
     4c8:	00d52023          	sw	a3,0(a0)
     4cc:	00008067          	ret

000004d0 <list_pop>:
     4d0:	00452683          	lw	a3,4(a0)
     4d4:	00050793          	mv	a5,a0
     4d8:	0046a583          	lw	a1,4(a3)
     4dc:	0007a603          	lw	a2,0(a5)
     4e0:	0006a503          	lw	a0,0(a3)
     4e4:	80018713          	addi	a4,gp,-2048 # 27b0 <g_nodeFreeList>
     4e8:	00b7a223          	sw	a1,4(a5)
     4ec:	00472583          	lw	a1,4(a4)
     4f0:	fff60613          	addi	a2,a2,-1
     4f4:	00b6a223          	sw	a1,4(a3)
     4f8:	00d72223          	sw	a3,4(a4)
     4fc:	00c7a023          	sw	a2,0(a5)
     500:	00008067          	ret

00000504 <list_clear>:
     504:	00052703          	lw	a4,0(a0)
     508:	80018693          	addi	a3,gp,-2048 # 27b0 <g_nodeFreeList>
     50c:	02e05463          	blez	a4,534 <list_clear+0x30>
     510:	00452783          	lw	a5,4(a0)
     514:	fff70713          	addi	a4,a4,-1
     518:	0047a603          	lw	a2,4(a5)
     51c:	00c52223          	sw	a2,4(a0)
     520:	0046a603          	lw	a2,4(a3)
     524:	00c7a223          	sw	a2,4(a5)
     528:	00f6a223          	sw	a5,4(a3)
     52c:	fe0712e3          	bnez	a4,510 <list_clear+0xc>
     530:	00052023          	sw	zero,0(a0)
     534:	00008067          	ret

00000538 <towers_init>:
     538:	00b52023          	sw	a1,0(a0)
     53c:	00052223          	sw	zero,4(a0)
     540:	00052423          	sw	zero,8(a0)
     544:	00052623          	sw	zero,12(a0)
     548:	00052823          	sw	zero,16(a0)
     54c:	00052a23          	sw	zero,20(a0)
     550:	00052c23          	sw	zero,24(a0)
     554:	00052e23          	sw	zero,28(a0)
     558:	04b05063          	blez	a1,598 <towers_init+0x60>
     55c:	80018813          	addi	a6,gp,-2048 # 27b0 <g_nodeFreeList>
     560:	00482783          	lw	a5,4(a6)
     564:	00058713          	mv	a4,a1
     568:	00000693          	li	a3,0
     56c:	0080006f          	j	574 <towers_init+0x3c>
     570:	00060793          	mv	a5,a2
     574:	00e7a023          	sw	a4,0(a5)
     578:	fff70713          	addi	a4,a4,-1
     57c:	0047a603          	lw	a2,4(a5)
     580:	00d7a223          	sw	a3,4(a5)
     584:	00078693          	mv	a3,a5
     588:	fe0714e3          	bnez	a4,570 <towers_init+0x38>
     58c:	00c82223          	sw	a2,4(a6)
     590:	00f52623          	sw	a5,12(a0)
     594:	00b52423          	sw	a1,8(a0)
     598:	00008067          	ret

0000059c <towers_clear>:
     59c:	00852703          	lw	a4,8(a0)
     5a0:	02e05c63          	blez	a4,5d8 <towers_clear+0x3c>
     5a4:	80018593          	addi	a1,gp,-2048 # 27b0 <g_nodeFreeList>
     5a8:	00c52783          	lw	a5,12(a0)
     5ac:	0045a683          	lw	a3,4(a1)
     5b0:	0080006f          	j	5b8 <towers_clear+0x1c>
     5b4:	00060793          	mv	a5,a2
     5b8:	fff70713          	addi	a4,a4,-1
     5bc:	0047a603          	lw	a2,4(a5)
     5c0:	00d7a223          	sw	a3,4(a5)
     5c4:	00078693          	mv	a3,a5
     5c8:	fe0716e3          	bnez	a4,5b4 <towers_clear+0x18>
     5cc:	00f5a223          	sw	a5,4(a1)
     5d0:	00c52623          	sw	a2,12(a0)
     5d4:	00052423          	sw	zero,8(a0)
     5d8:	01052703          	lw	a4,16(a0)
     5dc:	02e05c63          	blez	a4,614 <towers_clear+0x78>
     5e0:	80018593          	addi	a1,gp,-2048 # 27b0 <g_nodeFreeList>
     5e4:	01452783          	lw	a5,20(a0)
     5e8:	0045a683          	lw	a3,4(a1)
     5ec:	0080006f          	j	5f4 <towers_clear+0x58>
     5f0:	00060793          	mv	a5,a2
     5f4:	fff70713          	addi	a4,a4,-1
     5f8:	0047a603          	lw	a2,4(a5)
     5fc:	00d7a223          	sw	a3,4(a5)
     600:	00078693          	mv	a3,a5
     604:	fe0716e3          	bnez	a4,5f0 <towers_clear+0x54>
     608:	00f5a223          	sw	a5,4(a1)
     60c:	00c52a23          	sw	a2,20(a0)
     610:	00052823          	sw	zero,16(a0)
     614:	01852703          	lw	a4,24(a0)
     618:	02e05863          	blez	a4,648 <towers_clear+0xac>
     61c:	80018593          	addi	a1,gp,-2048 # 27b0 <g_nodeFreeList>
     620:	01c52783          	lw	a5,28(a0)
     624:	0045a683          	lw	a3,4(a1)
     628:	0080006f          	j	630 <towers_clear+0x94>
     62c:	00060793          	mv	a5,a2
     630:	fff70713          	addi	a4,a4,-1
     634:	0047a603          	lw	a2,4(a5)
     638:	00d7a223          	sw	a3,4(a5)
     63c:	00078693          	mv	a3,a5
     640:	fe0716e3          	bnez	a4,62c <towers_clear+0x90>
     644:	00f5a223          	sw	a5,4(a1)
     648:	00052803          	lw	a6,0(a0)
     64c:	00052223          	sw	zero,4(a0)
     650:	00052423          	sw	zero,8(a0)
     654:	00052623          	sw	zero,12(a0)
     658:	00052823          	sw	zero,16(a0)
     65c:	00052a23          	sw	zero,20(a0)
     660:	00052c23          	sw	zero,24(a0)
     664:	00052e23          	sw	zero,28(a0)
     668:	05005263          	blez	a6,6ac <towers_clear+0x110>
     66c:	80018593          	addi	a1,gp,-2048 # 27b0 <g_nodeFreeList>
     670:	0045a783          	lw	a5,4(a1)
     674:	00080713          	mv	a4,a6
     678:	00000693          	li	a3,0
     67c:	0080006f          	j	684 <towers_clear+0xe8>
     680:	00060793          	mv	a5,a2
     684:	00e7a023          	sw	a4,0(a5)
     688:	fff70713          	addi	a4,a4,-1
     68c:	0047a603          	lw	a2,4(a5)
     690:	00d7a223          	sw	a3,4(a5)
     694:	00078693          	mv	a3,a5
     698:	fe0714e3          	bnez	a4,680 <towers_clear+0xe4>
     69c:	00c5a223          	sw	a2,4(a1)
     6a0:	00f52623          	sw	a5,12(a0)
     6a4:	01052423          	sw	a6,8(a0)
     6a8:	00008067          	ret
     6ac:	00008067          	ret

000006b0 <towers_solve_h>:
     6b0:	fe010113          	addi	sp,sp,-32
     6b4:	01512223          	sw	s5,4(sp)
     6b8:	00100a93          	li	s5,1
     6bc:	00812c23          	sw	s0,24(sp)
     6c0:	00912a23          	sw	s1,20(sp)
     6c4:	01212823          	sw	s2,16(sp)
     6c8:	01312623          	sw	s3,12(sp)
     6cc:	01412423          	sw	s4,8(sp)
     6d0:	00112e23          	sw	ra,28(sp)
     6d4:	00050a13          	mv	s4,a0
     6d8:	00060413          	mv	s0,a2
     6dc:	00070993          	mv	s3,a4
     6e0:	00058493          	mv	s1,a1
     6e4:	00068913          	mv	s2,a3
     6e8:	01559863          	bne	a1,s5,6f8 <towers_solve_h+0x48>
     6ec:	04c0006f          	j	738 <towers_solve_h+0x88>
     6f0:	00040913          	mv	s2,s0
     6f4:	00078413          	mv	s0,a5
     6f8:	fff48493          	addi	s1,s1,-1
     6fc:	00048593          	mv	a1,s1
     700:	000a0513          	mv	a0,s4
     704:	00090713          	mv	a4,s2
     708:	00098693          	mv	a3,s3
     70c:	00040613          	mv	a2,s0
     710:	fa1ff0ef          	jal	6b0 <towers_solve_h>
     714:	00098713          	mv	a4,s3
     718:	00090693          	mv	a3,s2
     71c:	00040613          	mv	a2,s0
     720:	00100593          	li	a1,1
     724:	000a0513          	mv	a0,s4
     728:	f89ff0ef          	jal	6b0 <towers_solve_h>
     72c:	00090793          	mv	a5,s2
     730:	fd5490e3          	bne	s1,s5,6f0 <towers_solve_h+0x40>
     734:	00090413          	mv	s0,s2
     738:	00442683          	lw	a3,4(s0)
     73c:	00042703          	lw	a4,0(s0)
     740:	004a2783          	lw	a5,4(s4)
     744:	0046a603          	lw	a2,4(a3)
     748:	fff70713          	addi	a4,a4,-1
     74c:	00e42023          	sw	a4,0(s0)
     750:	00c42223          	sw	a2,4(s0)
     754:	0009a703          	lw	a4,0(s3)
     758:	0049a603          	lw	a2,4(s3)
     75c:	01c12083          	lw	ra,28(sp)
     760:	00178793          	addi	a5,a5,1
     764:	00170713          	addi	a4,a4,1
     768:	00c6a223          	sw	a2,4(a3)
     76c:	01812403          	lw	s0,24(sp)
     770:	00d9a223          	sw	a3,4(s3)
     774:	00e9a023          	sw	a4,0(s3)
     778:	01412483          	lw	s1,20(sp)
     77c:	00fa2223          	sw	a5,4(s4)
     780:	01012903          	lw	s2,16(sp)
     784:	00c12983          	lw	s3,12(sp)
     788:	00812a03          	lw	s4,8(sp)
     78c:	00412a83          	lw	s5,4(sp)
     790:	02010113          	addi	sp,sp,32
     794:	00008067          	ret

00000798 <towers_solve>:
     798:	00052583          	lw	a1,0(a0)
     79c:	01850713          	addi	a4,a0,24
     7a0:	01050693          	addi	a3,a0,16
     7a4:	00850613          	addi	a2,a0,8
     7a8:	f09ff06f          	j	6b0 <towers_solve_h>

000007ac <towers_verify>:
     7ac:	00852703          	lw	a4,8(a0)
     7b0:	00070863          	beqz	a4,7c0 <towers_verify+0x14>
     7b4:	00200793          	li	a5,2
     7b8:	00078513          	mv	a0,a5
     7bc:	00008067          	ret
     7c0:	01052703          	lw	a4,16(a0)
     7c4:	00300793          	li	a5,3
     7c8:	fe0718e3          	bnez	a4,7b8 <towers_verify+0xc>
     7cc:	c4dff06f          	j	418 <towers_verify.part.0>

000007d0 <putchar>:
     7d0:	04022803          	lw	a6,64(tp) # 40 <buflen.2779>
     7d4:	00020793          	mv	a5,tp
     7d8:	010787b3          	add	a5,a5,a6
     7dc:	00180613          	addi	a2,a6,1
     7e0:	00a78023          	sb	a0,0(a5)
     7e4:	00a00793          	li	a5,10
     7e8:	04c22023          	sw	a2,64(tp) # 40 <buflen.2779>
     7ec:	00f50a63          	beq	a0,a5,800 <putchar+0x30>
     7f0:	04000793          	li	a5,64
     7f4:	00f60663          	beq	a2,a5,800 <putchar+0x30>
     7f8:	00000513          	li	a0,0
     7fc:	00008067          	ret
     800:	04000893          	li	a7,64
     804:	00100513          	li	a0,1
     808:	00020593          	mv	a1,tp
     80c:	00000073          	ecall
     810:	04022023          	sw	zero,64(tp) # 40 <buflen.2779>
     814:	00000513          	li	a0,0
     818:	00008067          	ret

0000081c <sprintf_putch.2893>:
     81c:	0005a783          	lw	a5,0(a1)
     820:	00a78023          	sb	a0,0(a5)
     824:	0005a783          	lw	a5,0(a1)
     828:	00178793          	addi	a5,a5,1
     82c:	00f5a023          	sw	a5,0(a1)
     830:	00008067          	ret

00000834 <vprintfmt>:
     834:	eb010113          	addi	sp,sp,-336
     838:	14912223          	sw	s1,324(sp)
     83c:	15212023          	sw	s2,320(sp)
     840:	13312e23          	sw	s3,316(sp)
     844:	13512a23          	sw	s5,308(sp)
     848:	14112623          	sw	ra,332(sp)
     84c:	14812423          	sw	s0,328(sp)
     850:	13412c23          	sw	s4,312(sp)
     854:	13612823          	sw	s6,304(sp)
     858:	13712623          	sw	s7,300(sp)
     85c:	13812423          	sw	s8,296(sp)
     860:	13912223          	sw	s9,292(sp)
     864:	13a12023          	sw	s10,288(sp)
     868:	11b12e23          	sw	s11,284(sp)
     86c:	00050993          	mv	s3,a0
     870:	00058913          	mv	s2,a1
     874:	00060493          	mv	s1,a2
     878:	00d12623          	sw	a3,12(sp)
     87c:	02500a93          	li	s5,37
     880:	0140006f          	j	894 <vprintfmt+0x60>
     884:	06050463          	beqz	a0,8ec <vprintfmt+0xb8>
     888:	00148493          	addi	s1,s1,1
     88c:	00090593          	mv	a1,s2
     890:	000980e7          	jalr	s3
     894:	0004c503          	lbu	a0,0(s1)
     898:	ff5516e3          	bne	a0,s5,884 <vprintfmt+0x50>
     89c:	0014c503          	lbu	a0,1(s1)
     8a0:	00148a13          	addi	s4,s1,1
     8a4:	fff00413          	li	s0,-1
     8a8:	02000793          	li	a5,32
     8ac:	000a0713          	mv	a4,s4
     8b0:	00f12423          	sw	a5,8(sp)
     8b4:	00040b13          	mv	s6,s0
     8b8:	00000613          	li	a2,0
     8bc:	00900593          	li	a1,9
     8c0:	fdd50793          	addi	a5,a0,-35
     8c4:	0ff7f793          	andi	a5,a5,255
     8c8:	05500693          	li	a3,85
     8cc:	00170493          	addi	s1,a4,1
     8d0:	38f6e663          	bltu	a3,a5,c5c <vprintfmt+0x428>
     8d4:	000026b7          	lui	a3,0x2
     8d8:	00279793          	slli	a5,a5,0x2
     8dc:	3d468693          	addi	a3,a3,980 # 23d4 <main+0x12c>
     8e0:	00d787b3          	add	a5,a5,a3
     8e4:	0007a783          	lw	a5,0(a5)
     8e8:	00078067          	jr	a5
     8ec:	14c12083          	lw	ra,332(sp)
     8f0:	14812403          	lw	s0,328(sp)
     8f4:	14412483          	lw	s1,324(sp)
     8f8:	14012903          	lw	s2,320(sp)
     8fc:	13c12983          	lw	s3,316(sp)
     900:	13812a03          	lw	s4,312(sp)
     904:	13412a83          	lw	s5,308(sp)
     908:	13012b03          	lw	s6,304(sp)
     90c:	12c12b83          	lw	s7,300(sp)
     910:	12812c03          	lw	s8,296(sp)
     914:	12412c83          	lw	s9,292(sp)
     918:	12012d03          	lw	s10,288(sp)
     91c:	11c12d83          	lw	s11,284(sp)
     920:	15010113          	addi	sp,sp,336
     924:	00008067          	ret
     928:	000b5463          	bgez	s6,930 <vprintfmt+0xfc>
     92c:	00000b13          	li	s6,0
     930:	00174503          	lbu	a0,1(a4)
     934:	00048713          	mv	a4,s1
     938:	f89ff06f          	j	8c0 <vprintfmt+0x8c>
     93c:	00800413          	li	s0,8
     940:	00000a13          	li	s4,0
     944:	00100793          	li	a5,1
     948:	3ac7d663          	ble	a2,a5,cf4 <vprintfmt+0x4c0>
     94c:	00c12783          	lw	a5,12(sp)
     950:	00778c93          	addi	s9,a5,7
     954:	ff8cf793          	andi	a5,s9,-8
     958:	0007ac83          	lw	s9,0(a5)
     95c:	0047ab83          	lw	s7,4(a5)
     960:	00878713          	addi	a4,a5,8
     964:	00e12623          	sw	a4,12(sp)
     968:	00040613          	mv	a2,s0
     96c:	00000693          	li	a3,0
     970:	000c8513          	mv	a0,s9
     974:	000b8593          	mv	a1,s7
     978:	290010ef          	jal	1c08 <__umoddi3>
     97c:	00a12823          	sw	a0,16(sp)
     980:	357a0c63          	beq	s4,s7,cd8 <vprintfmt+0x4a4>
     984:	01410d93          	addi	s11,sp,20
     988:	00100d13          	li	s10,1
     98c:	00040613          	mv	a2,s0
     990:	00000693          	li	a3,0
     994:	000c8513          	mv	a0,s9
     998:	000b8593          	mv	a1,s7
     99c:	449000ef          	jal	15e4 <__udivdi3>
     9a0:	00040613          	mv	a2,s0
     9a4:	00000693          	li	a3,0
     9a8:	00050c93          	mv	s9,a0
     9ac:	00058b93          	mv	s7,a1
     9b0:	258010ef          	jal	1c08 <__umoddi3>
     9b4:	00ada023          	sw	a0,0(s11)
     9b8:	001d0c13          	addi	s8,s10,1
     9bc:	004d8d93          	addi	s11,s11,4
     9c0:	017a0663          	beq	s4,s7,9cc <vprintfmt+0x198>
     9c4:	000c0d13          	mv	s10,s8
     9c8:	fc5ff06f          	j	98c <vprintfmt+0x158>
     9cc:	fe8cfce3          	bleu	s0,s9,9c4 <vprintfmt+0x190>
     9d0:	fffb0413          	addi	s0,s6,-1
     9d4:	000d0a13          	mv	s4,s10
     9d8:	036c5263          	ble	s6,s8,9fc <vprintfmt+0x1c8>
     9dc:	00812503          	lw	a0,8(sp)
     9e0:	00090593          	mv	a1,s2
     9e4:	fff40413          	addi	s0,s0,-1
     9e8:	000980e7          	jalr	s3
     9ec:	00140793          	addi	a5,s0,1
     9f0:	fefc46e3          	blt	s8,a5,9dc <vprintfmt+0x1a8>
     9f4:	000a0d13          	mv	s10,s4
     9f8:	e9805ee3          	blez	s8,894 <vprintfmt+0x60>
     9fc:	002d1793          	slli	a5,s10,0x2
     a00:	11010693          	addi	a3,sp,272
     a04:	00f687b3          	add	a5,a3,a5
     a08:	f007a503          	lw	a0,-256(a5)
     a0c:	40000737          	lui	a4,0x40000
     a10:	fff70713          	addi	a4,a4,-1 # 3fffffff <_gp+0x3fffd04f>
     a14:	00ed0a33          	add	s4,s10,a4
     a18:	002a1a13          	slli	s4,s4,0x2
     a1c:	01010793          	addi	a5,sp,16
     a20:	000d0413          	mv	s0,s10
     a24:	01478a33          	add	s4,a5,s4
     a28:	0100006f          	j	a38 <vprintfmt+0x204>
     a2c:	000a2503          	lw	a0,0(s4)
     a30:	fff40413          	addi	s0,s0,-1
     a34:	ffca0a13          	addi	s4,s4,-4
     a38:	00a53793          	sltiu	a5,a0,10
     a3c:	40f007b3          	neg	a5,a5
     a40:	fd97f793          	andi	a5,a5,-39
     a44:	05778793          	addi	a5,a5,87
     a48:	00090593          	mv	a1,s2
     a4c:	00a78533          	add	a0,a5,a0
     a50:	000980e7          	jalr	s3
     a54:	fc804ce3          	bgtz	s0,a2c <vprintfmt+0x1f8>
     a58:	e3dff06f          	j	894 <vprintfmt+0x60>
     a5c:	00c12783          	lw	a5,12(sp)
     a60:	00174503          	lbu	a0,1(a4)
     a64:	00048713          	mv	a4,s1
     a68:	0007a403          	lw	s0,0(a5)
     a6c:	00478793          	addi	a5,a5,4
     a70:	00f12623          	sw	a5,12(sp)
     a74:	e40b56e3          	bgez	s6,8c0 <vprintfmt+0x8c>
     a78:	00040b13          	mv	s6,s0
     a7c:	fff00413          	li	s0,-1
     a80:	e41ff06f          	j	8c0 <vprintfmt+0x8c>
     a84:	00174503          	lbu	a0,1(a4)
     a88:	03000713          	li	a4,48
     a8c:	00e12423          	sw	a4,8(sp)
     a90:	00048713          	mv	a4,s1
     a94:	e2dff06f          	j	8c0 <vprintfmt+0x8c>
     a98:	00174503          	lbu	a0,1(a4)
     a9c:	02d00713          	li	a4,45
     aa0:	00e12423          	sw	a4,8(sp)
     aa4:	00048713          	mv	a4,s1
     aa8:	e19ff06f          	j	8c0 <vprintfmt+0x8c>
     aac:	00174683          	lbu	a3,1(a4)
     ab0:	fd050413          	addi	s0,a0,-48
     ab4:	00048713          	mv	a4,s1
     ab8:	fd068793          	addi	a5,a3,-48
     abc:	20f5e863          	bltu	a1,a5,ccc <vprintfmt+0x498>
     ac0:	00141793          	slli	a5,s0,0x1
     ac4:	00341413          	slli	s0,s0,0x3
     ac8:	00878433          	add	s0,a5,s0
     acc:	00170713          	addi	a4,a4,1
     ad0:	00d40433          	add	s0,s0,a3
     ad4:	00074683          	lbu	a3,0(a4)
     ad8:	fd040413          	addi	s0,s0,-48
     adc:	fd068793          	addi	a5,a3,-48
     ae0:	fef5f0e3          	bleu	a5,a1,ac0 <vprintfmt+0x28c>
     ae4:	00068513          	mv	a0,a3
     ae8:	f8dff06f          	j	a74 <vprintfmt+0x240>
     aec:	00c12703          	lw	a4,12(sp)
     af0:	00090593          	mv	a1,s2
     af4:	00072503          	lw	a0,0(a4)
     af8:	00470c93          	addi	s9,a4,4
     afc:	000980e7          	jalr	s3
     b00:	01912623          	sw	s9,12(sp)
     b04:	d91ff06f          	j	894 <vprintfmt+0x60>
     b08:	00100793          	li	a5,1
     b0c:	18c7d663          	ble	a2,a5,c98 <vprintfmt+0x464>
     b10:	00c12703          	lw	a4,12(sp)
     b14:	00770c93          	addi	s9,a4,7
     b18:	ff8cf793          	andi	a5,s9,-8
     b1c:	00878713          	addi	a4,a5,8
     b20:	0007a803          	lw	a6,0(a5)
     b24:	0047a783          	lw	a5,4(a5)
     b28:	00e12623          	sw	a4,12(sp)
     b2c:	00078b93          	mv	s7,a5
     b30:	00080c93          	mv	s9,a6
     b34:	1207de63          	bgez	a5,c70 <vprintfmt+0x43c>
     b38:	00090593          	mv	a1,s2
     b3c:	02d00513          	li	a0,45
     b40:	000980e7          	jalr	s3
     b44:	41900833          	neg	a6,s9
     b48:	01003733          	snez	a4,a6
     b4c:	417007b3          	neg	a5,s7
     b50:	00080c93          	mv	s9,a6
     b54:	40e78bb3          	sub	s7,a5,a4
     b58:	00a00413          	li	s0,10
     b5c:	00000a13          	li	s4,0
     b60:	e09ff06f          	j	968 <vprintfmt+0x134>
     b64:	00174503          	lbu	a0,1(a4)
     b68:	00160613          	addi	a2,a2,1
     b6c:	00048713          	mv	a4,s1
     b70:	d51ff06f          	j	8c0 <vprintfmt+0x8c>
     b74:	00c12783          	lw	a5,12(sp)
     b78:	0007ac03          	lw	s8,0(a5)
     b7c:	00478c93          	addi	s9,a5,4
     b80:	100c0663          	beqz	s8,c8c <vprintfmt+0x458>
     b84:	03605c63          	blez	s6,bbc <vprintfmt+0x388>
     b88:	00812783          	lw	a5,8(sp)
     b8c:	02d00713          	li	a4,45
     b90:	0ee78663          	beq	a5,a4,c7c <vprintfmt+0x448>
     b94:	00040593          	mv	a1,s0
     b98:	000c0513          	mv	a0,s8
     b9c:	205000ef          	jal	15a0 <strnlen>
     ba0:	40ab0b33          	sub	s6,s6,a0
     ba4:	01605c63          	blez	s6,bbc <vprintfmt+0x388>
     ba8:	00812503          	lw	a0,8(sp)
     bac:	fffb0b13          	addi	s6,s6,-1
     bb0:	00090593          	mv	a1,s2
     bb4:	000980e7          	jalr	s3
     bb8:	fe0b18e3          	bnez	s6,ba8 <vprintfmt+0x374>
     bbc:	000c4503          	lbu	a0,0(s8)
     bc0:	04050263          	beqz	a0,c04 <vprintfmt+0x3d0>
     bc4:	fff00a13          	li	s4,-1
     bc8:	00044663          	bltz	s0,bd4 <vprintfmt+0x3a0>
     bcc:	fff40413          	addi	s0,s0,-1
     bd0:	01440e63          	beq	s0,s4,bec <vprintfmt+0x3b8>
     bd4:	00090593          	mv	a1,s2
     bd8:	001c0c13          	addi	s8,s8,1
     bdc:	000980e7          	jalr	s3
     be0:	000c4503          	lbu	a0,0(s8)
     be4:	fffb0b13          	addi	s6,s6,-1
     be8:	fe0510e3          	bnez	a0,bc8 <vprintfmt+0x394>
     bec:	01605c63          	blez	s6,c04 <vprintfmt+0x3d0>
     bf0:	fffb0b13          	addi	s6,s6,-1
     bf4:	00090593          	mv	a1,s2
     bf8:	02000513          	li	a0,32
     bfc:	000980e7          	jalr	s3
     c00:	fe0b18e3          	bnez	s6,bf0 <vprintfmt+0x3bc>
     c04:	01912623          	sw	s9,12(sp)
     c08:	c8dff06f          	j	894 <vprintfmt+0x60>
     c0c:	00a00413          	li	s0,10
     c10:	00000a13          	li	s4,0
     c14:	d31ff06f          	j	944 <vprintfmt+0x110>
     c18:	01000413          	li	s0,16
     c1c:	00000a13          	li	s4,0
     c20:	d25ff06f          	j	944 <vprintfmt+0x110>
     c24:	03000513          	li	a0,48
     c28:	00090593          	mv	a1,s2
     c2c:	000980e7          	jalr	s3
     c30:	00090593          	mv	a1,s2
     c34:	07800513          	li	a0,120
     c38:	000980e7          	jalr	s3
     c3c:	01000413          	li	s0,16
     c40:	00000a13          	li	s4,0
     c44:	00c12783          	lw	a5,12(sp)
     c48:	00000b93          	li	s7,0
     c4c:	0007ac83          	lw	s9,0(a5)
     c50:	00478793          	addi	a5,a5,4
     c54:	00f12623          	sw	a5,12(sp)
     c58:	d11ff06f          	j	968 <vprintfmt+0x134>
     c5c:	00090593          	mv	a1,s2
     c60:	02500513          	li	a0,37
     c64:	000980e7          	jalr	s3
     c68:	000a0493          	mv	s1,s4
     c6c:	c29ff06f          	j	894 <vprintfmt+0x60>
     c70:	00a00413          	li	s0,10
     c74:	00000a13          	li	s4,0
     c78:	cf1ff06f          	j	968 <vprintfmt+0x134>
     c7c:	000c4503          	lbu	a0,0(s8)
     c80:	f60508e3          	beqz	a0,bf0 <vprintfmt+0x3bc>
     c84:	fff00a13          	li	s4,-1
     c88:	f41ff06f          	j	bc8 <vprintfmt+0x394>
     c8c:	000026b7          	lui	a3,0x2
     c90:	62c68c13          	addi	s8,a3,1580 # 262c <__clz_tab+0x100>
     c94:	ef1ff06f          	j	b84 <vprintfmt+0x350>
     c98:	00060e63          	beqz	a2,cb4 <vprintfmt+0x480>
     c9c:	00c12783          	lw	a5,12(sp)
     ca0:	0007a803          	lw	a6,0(a5)
     ca4:	00478793          	addi	a5,a5,4
     ca8:	00f12623          	sw	a5,12(sp)
     cac:	41f85793          	srai	a5,a6,0x1f
     cb0:	e7dff06f          	j	b2c <vprintfmt+0x2f8>
     cb4:	00c12703          	lw	a4,12(sp)
     cb8:	00072803          	lw	a6,0(a4)
     cbc:	00470713          	addi	a4,a4,4
     cc0:	00e12623          	sw	a4,12(sp)
     cc4:	41f85793          	srai	a5,a6,0x1f
     cc8:	e65ff06f          	j	b2c <vprintfmt+0x2f8>
     ccc:	00068513          	mv	a0,a3
     cd0:	00048713          	mv	a4,s1
     cd4:	da1ff06f          	j	a74 <vprintfmt+0x240>
     cd8:	ca8cf6e3          	bleu	s0,s9,984 <vprintfmt+0x150>
     cdc:	00100c13          	li	s8,1
     ce0:	fffb0413          	addi	s0,s6,-1
     ce4:	00000a13          	li	s4,0
     ce8:	00000d13          	li	s10,0
     cec:	cf6c48e3          	blt	s8,s6,9dc <vprintfmt+0x1a8>
     cf0:	d1dff06f          	j	a0c <vprintfmt+0x1d8>
     cf4:	f40618e3          	bnez	a2,c44 <vprintfmt+0x410>
     cf8:	00c12703          	lw	a4,12(sp)
     cfc:	00000b93          	li	s7,0
     d00:	00072c83          	lw	s9,0(a4)
     d04:	00470713          	addi	a4,a4,4
     d08:	00e12623          	sw	a4,12(sp)
     d0c:	c5dff06f          	j	968 <vprintfmt+0x134>

00000d10 <tohost_exit>:
     d10:	00151513          	slli	a0,a0,0x1
     d14:	00156513          	ori	a0,a0,1
     d18:	78051073          	csrw	mtohost,a0
     d1c:	0000006f          	j	d1c <tohost_exit+0xc>

00000d20 <handle_trap>:
     d20:	ff010113          	addi	sp,sp,-16
     d24:	00200693          	li	a3,2
     d28:	00812423          	sw	s0,8(sp)
     d2c:	00112623          	sw	ra,12(sp)
     d30:	01010413          	addi	s0,sp,16
     d34:	0080076f          	jal	a4,d3c <handle_trap+0x1c>
     d38:	0c002573          	csrr	a0,stats
     d3c:	f8010113          	addi	sp,sp,-128
     d40:	0ad50663          	beq	a0,a3,dec <handle_trap+0xcc>
     d44:	00800713          	li	a4,8
     d48:	00e50a63          	beq	a0,a4,d5c <handle_trap+0x3c>
     d4c:	000017b7          	lui	a5,0x1
     d50:	a7378793          	addi	a5,a5,-1421 # a73 <vprintfmt+0x23f>
     d54:	78079073          	csrw	mtohost,a5
     d58:	0000006f          	j	d58 <handle_trap+0x38>
     d5c:	04462703          	lw	a4,68(a2)
     d60:	05d00693          	li	a3,93
     d64:	2ed70e63          	beq	a4,a3,1060 <handle_trap+0x340>
     d68:	4d200693          	li	a3,1234
     d6c:	08d70c63          	beq	a4,a3,e04 <handle_trap+0xe4>
     d70:	02862283          	lw	t0,40(a2)
     d74:	02c62503          	lw	a0,44(a2)
     d78:	03062683          	lw	a3,48(a2)
     d7c:	03f10793          	addi	a5,sp,63
     d80:	fc07f793          	andi	a5,a5,-64
     d84:	41f75f93          	srai	t6,a4,0x1f
     d88:	41f2de93          	srai	t4,t0,0x1f
     d8c:	41f55393          	srai	t2,a0,0x1f
     d90:	41f6d893          	srai	a7,a3,0x1f
     d94:	00e7a023          	sw	a4,0(a5)
     d98:	01f7a223          	sw	t6,4(a5)
     d9c:	0057a423          	sw	t0,8(a5)
     da0:	01d7a623          	sw	t4,12(a5)
     da4:	00a7a823          	sw	a0,16(a5)
     da8:	0077aa23          	sw	t2,20(a5)
     dac:	00d7ac23          	sw	a3,24(a5)
     db0:	0117ae23          	sw	a7,28(a5)
     db4:	0330000f          	fence	rw,rw
     db8:	78079073          	csrw	mtohost,a5
     dbc:	00000713          	li	a4,0
     dc0:	781716f3          	csrrw	a3,mfromhost,a4
     dc4:	fe068ee3          	beqz	a3,dc0 <handle_trap+0xa0>
     dc8:	0007a703          	lw	a4,0(a5)
     dcc:	0047a783          	lw	a5,4(a5)
     dd0:	ff040113          	addi	sp,s0,-16
     dd4:	00c12083          	lw	ra,12(sp)
     dd8:	00458513          	addi	a0,a1,4
     ddc:	00812403          	lw	s0,8(sp)
     de0:	02e62423          	sw	a4,40(a2)
     de4:	01010113          	addi	sp,sp,16
     de8:	00008067          	ret
     dec:	00072703          	lw	a4,0(a4)
     df0:	0005a783          	lw	a5,0(a1)
     df4:	00f777b3          	and	a5,a4,a5
     df8:	f4f71ae3          	bne	a4,a5,d4c <handle_trap+0x2c>
     dfc:	00000713          	li	a4,0
     e00:	fd1ff06f          	j	dd0 <handle_trap+0xb0>
     e04:	02862703          	lw	a4,40(a2)
     e08:	00070463          	beqz	a4,e10 <handle_trap+0xf0>
     e0c:	0c00e573          	csrrs	a0,stats,1
     e10:	c0002573          	rdcycle	a0
     e14:	84418793          	addi	a5,gp,-1980 # 27f4 <counters>
     e18:	00071c63          	bnez	a4,e30 <handle_trap+0x110>
     e1c:	0007a683          	lw	a3,0(a5)
     e20:	40d50533          	sub	a0,a0,a3
     e24:	000026b7          	lui	a3,0x2
     e28:	63468693          	addi	a3,a3,1588 # 2634 <__clz_tab+0x108>
     e2c:	04d7a423          	sw	a3,72(a5)
     e30:	00a7a023          	sw	a0,0(a5)
     e34:	c0202573          	rdinstret	a0
     e38:	00071c63          	bnez	a4,e50 <handle_trap+0x130>
     e3c:	0047a683          	lw	a3,4(a5)
     e40:	40d50533          	sub	a0,a0,a3
     e44:	000026b7          	lui	a3,0x2
     e48:	63c68693          	addi	a3,a3,1596 # 263c <__clz_tab+0x110>
     e4c:	04d7a623          	sw	a3,76(a5)
     e50:	00a7a223          	sw	a0,4(a5)
     e54:	cc002573          	csrr	a0,uarch0
     e58:	00071c63          	bnez	a4,e70 <handle_trap+0x150>
     e5c:	0087a683          	lw	a3,8(a5)
     e60:	40d50533          	sub	a0,a0,a3
     e64:	000026b7          	lui	a3,0x2
     e68:	64468693          	addi	a3,a3,1604 # 2644 <__clz_tab+0x118>
     e6c:	04d7a823          	sw	a3,80(a5)
     e70:	00a7a423          	sw	a0,8(a5)
     e74:	cc102573          	csrr	a0,uarch1
     e78:	00071c63          	bnez	a4,e90 <handle_trap+0x170>
     e7c:	00c7a683          	lw	a3,12(a5)
     e80:	40d50533          	sub	a0,a0,a3
     e84:	000026b7          	lui	a3,0x2
     e88:	64c68693          	addi	a3,a3,1612 # 264c <__clz_tab+0x120>
     e8c:	04d7aa23          	sw	a3,84(a5)
     e90:	00a7a623          	sw	a0,12(a5)
     e94:	cc202573          	csrr	a0,uarch2
     e98:	00071c63          	bnez	a4,eb0 <handle_trap+0x190>
     e9c:	0107a683          	lw	a3,16(a5)
     ea0:	40d50533          	sub	a0,a0,a3
     ea4:	000026b7          	lui	a3,0x2
     ea8:	65468693          	addi	a3,a3,1620 # 2654 <__clz_tab+0x128>
     eac:	04d7ac23          	sw	a3,88(a5)
     eb0:	00a7a823          	sw	a0,16(a5)
     eb4:	cc302573          	csrr	a0,uarch3
     eb8:	00071c63          	bnez	a4,ed0 <handle_trap+0x1b0>
     ebc:	0147a683          	lw	a3,20(a5)
     ec0:	40d50533          	sub	a0,a0,a3
     ec4:	000026b7          	lui	a3,0x2
     ec8:	65c68693          	addi	a3,a3,1628 # 265c <__clz_tab+0x130>
     ecc:	04d7ae23          	sw	a3,92(a5)
     ed0:	00a7aa23          	sw	a0,20(a5)
     ed4:	cc402573          	csrr	a0,uarch4
     ed8:	00071c63          	bnez	a4,ef0 <handle_trap+0x1d0>
     edc:	0187a683          	lw	a3,24(a5)
     ee0:	40d50533          	sub	a0,a0,a3
     ee4:	000026b7          	lui	a3,0x2
     ee8:	66468693          	addi	a3,a3,1636 # 2664 <__clz_tab+0x138>
     eec:	06d7a023          	sw	a3,96(a5)
     ef0:	00a7ac23          	sw	a0,24(a5)
     ef4:	cc502573          	csrr	a0,uarch5
     ef8:	00071c63          	bnez	a4,f10 <handle_trap+0x1f0>
     efc:	01c7a683          	lw	a3,28(a5)
     f00:	40d50533          	sub	a0,a0,a3
     f04:	000026b7          	lui	a3,0x2
     f08:	66c68693          	addi	a3,a3,1644 # 266c <__clz_tab+0x140>
     f0c:	06d7a223          	sw	a3,100(a5)
     f10:	00a7ae23          	sw	a0,28(a5)
     f14:	cc602573          	csrr	a0,uarch6
     f18:	00071c63          	bnez	a4,f30 <handle_trap+0x210>
     f1c:	0207a683          	lw	a3,32(a5)
     f20:	40d50533          	sub	a0,a0,a3
     f24:	000026b7          	lui	a3,0x2
     f28:	67468693          	addi	a3,a3,1652 # 2674 <__clz_tab+0x148>
     f2c:	06d7a423          	sw	a3,104(a5)
     f30:	02a7a023          	sw	a0,32(a5)
     f34:	cc702573          	csrr	a0,uarch7
     f38:	00071c63          	bnez	a4,f50 <handle_trap+0x230>
     f3c:	0247a683          	lw	a3,36(a5)
     f40:	40d50533          	sub	a0,a0,a3
     f44:	000026b7          	lui	a3,0x2
     f48:	67c68693          	addi	a3,a3,1660 # 267c <__clz_tab+0x150>
     f4c:	06d7a623          	sw	a3,108(a5)
     f50:	02a7a223          	sw	a0,36(a5)
     f54:	cc802573          	csrr	a0,uarch8
     f58:	00071c63          	bnez	a4,f70 <handle_trap+0x250>
     f5c:	0287a683          	lw	a3,40(a5)
     f60:	40d50533          	sub	a0,a0,a3
     f64:	000026b7          	lui	a3,0x2
     f68:	68468693          	addi	a3,a3,1668 # 2684 <__clz_tab+0x158>
     f6c:	06d7a823          	sw	a3,112(a5)
     f70:	02a7a423          	sw	a0,40(a5)
     f74:	cc902573          	csrr	a0,uarch9
     f78:	00071c63          	bnez	a4,f90 <handle_trap+0x270>
     f7c:	02c7a683          	lw	a3,44(a5)
     f80:	40d50533          	sub	a0,a0,a3
     f84:	000026b7          	lui	a3,0x2
     f88:	68c68693          	addi	a3,a3,1676 # 268c <__clz_tab+0x160>
     f8c:	06d7aa23          	sw	a3,116(a5)
     f90:	02a7a623          	sw	a0,44(a5)
     f94:	cca02573          	csrr	a0,uarch10
     f98:	00071c63          	bnez	a4,fb0 <handle_trap+0x290>
     f9c:	0307a683          	lw	a3,48(a5)
     fa0:	40d50533          	sub	a0,a0,a3
     fa4:	000026b7          	lui	a3,0x2
     fa8:	69468693          	addi	a3,a3,1684 # 2694 <__clz_tab+0x168>
     fac:	06d7ac23          	sw	a3,120(a5)
     fb0:	02a7a823          	sw	a0,48(a5)
     fb4:	ccb02573          	csrr	a0,uarch11
     fb8:	00071c63          	bnez	a4,fd0 <handle_trap+0x2b0>
     fbc:	0347a683          	lw	a3,52(a5)
     fc0:	40d50533          	sub	a0,a0,a3
     fc4:	000026b7          	lui	a3,0x2
     fc8:	69c68693          	addi	a3,a3,1692 # 269c <__clz_tab+0x170>
     fcc:	06d7ae23          	sw	a3,124(a5)
     fd0:	02a7aa23          	sw	a0,52(a5)
     fd4:	ccc02573          	csrr	a0,uarch12
     fd8:	00071c63          	bnez	a4,ff0 <handle_trap+0x2d0>
     fdc:	0387a683          	lw	a3,56(a5)
     fe0:	40d50533          	sub	a0,a0,a3
     fe4:	000026b7          	lui	a3,0x2
     fe8:	6a468693          	addi	a3,a3,1700 # 26a4 <__clz_tab+0x178>
     fec:	08d7a023          	sw	a3,128(a5)
     ff0:	02a7ac23          	sw	a0,56(a5)
     ff4:	ccd02573          	csrr	a0,uarch13
     ff8:	00071c63          	bnez	a4,1010 <handle_trap+0x2f0>
     ffc:	03c7a683          	lw	a3,60(a5)
    1000:	40d50533          	sub	a0,a0,a3
    1004:	000026b7          	lui	a3,0x2
    1008:	6ac68693          	addi	a3,a3,1708 # 26ac <__clz_tab+0x180>
    100c:	08d7a223          	sw	a3,132(a5)
    1010:	02a7ae23          	sw	a0,60(a5)
    1014:	cce02573          	csrr	a0,uarch14
    1018:	00071c63          	bnez	a4,1030 <handle_trap+0x310>
    101c:	0407a683          	lw	a3,64(a5)
    1020:	40d50533          	sub	a0,a0,a3
    1024:	000026b7          	lui	a3,0x2
    1028:	6b468693          	addi	a3,a3,1716 # 26b4 <__clz_tab+0x188>
    102c:	08d7a423          	sw	a3,136(a5)
    1030:	04a7a023          	sw	a0,64(a5)
    1034:	ccf02573          	csrr	a0,uarch15
    1038:	02071863          	bnez	a4,1068 <handle_trap+0x348>
    103c:	0447a703          	lw	a4,68(a5)
    1040:	40e50533          	sub	a0,a0,a4
    1044:	00002737          	lui	a4,0x2
    1048:	6bc70713          	addi	a4,a4,1724 # 26bc <__clz_tab+0x190>
    104c:	08e7a623          	sw	a4,140(a5)
    1050:	04a7a223          	sw	a0,68(a5)
    1054:	0c00f573          	csrrc	a0,stats,1
    1058:	00000713          	li	a4,0
    105c:	d75ff06f          	j	dd0 <handle_trap+0xb0>
    1060:	02862503          	lw	a0,40(a2)
    1064:	cadff0ef          	jal	d10 <tohost_exit>
    1068:	04a7a223          	sw	a0,68(a5)
    106c:	00000713          	li	a4,0
    1070:	d61ff06f          	j	dd0 <handle_trap+0xb0>

00001074 <exit>:
    1074:	05d00893          	li	a7,93
    1078:	00000593          	li	a1,0
    107c:	00000613          	li	a2,0
    1080:	00000073          	ecall
    1084:	0000006f          	j	1084 <exit+0x10>

00001088 <setStats>:
    1088:	4d200893          	li	a7,1234
    108c:	00000593          	li	a1,0
    1090:	00000613          	li	a2,0
    1094:	00000073          	ecall
    1098:	00008067          	ret

0000109c <printstr>:
    109c:	ff010113          	addi	sp,sp,-16
    10a0:	00812423          	sw	s0,8(sp)
    10a4:	00112623          	sw	ra,12(sp)
    10a8:	00050413          	mv	s0,a0
    10ac:	464000ef          	jal	1510 <strlen>
    10b0:	00050613          	mv	a2,a0
    10b4:	04000893          	li	a7,64
    10b8:	00100513          	li	a0,1
    10bc:	00040593          	mv	a1,s0
    10c0:	00000073          	ecall
    10c4:	00c12083          	lw	ra,12(sp)
    10c8:	00812403          	lw	s0,8(sp)
    10cc:	01010113          	addi	sp,sp,16
    10d0:	00008067          	ret

000010d4 <thread_entry>:
    10d4:	00050463          	beqz	a0,10dc <thread_entry+0x8>
    10d8:	0000006f          	j	10d8 <thread_entry+0x4>
    10dc:	00008067          	ret

000010e0 <printhex>:
    10e0:	fd010113          	addi	sp,sp,-48
    10e4:	02112623          	sw	ra,44(sp)
    10e8:	01b10693          	addi	a3,sp,27
    10ec:	00b10893          	addi	a7,sp,11
    10f0:	00900813          	li	a6,9
    10f4:	00f57613          	andi	a2,a0,15
    10f8:	00c83733          	sltu	a4,a6,a2
    10fc:	40e00733          	neg	a4,a4
    1100:	02777793          	andi	a5,a4,39
    1104:	03078793          	addi	a5,a5,48
    1108:	00c787b3          	add	a5,a5,a2
    110c:	01c59713          	slli	a4,a1,0x1c
    1110:	00f68023          	sb	a5,0(a3)
    1114:	00455513          	srli	a0,a0,0x4
    1118:	fff68693          	addi	a3,a3,-1
    111c:	00a76533          	or	a0,a4,a0
    1120:	0045d593          	srli	a1,a1,0x4
    1124:	fd1698e3          	bne	a3,a7,10f4 <printhex+0x14>
    1128:	00c10513          	addi	a0,sp,12
    112c:	00010e23          	sb	zero,28(sp)
    1130:	3e0000ef          	jal	1510 <strlen>
    1134:	00050613          	mv	a2,a0
    1138:	04000893          	li	a7,64
    113c:	00100513          	li	a0,1
    1140:	00c10593          	addi	a1,sp,12
    1144:	00000073          	ecall
    1148:	02c12083          	lw	ra,44(sp)
    114c:	03010113          	addi	sp,sp,48
    1150:	00008067          	ret

00001154 <printf>:
    1154:	fc010113          	addi	sp,sp,-64
    1158:	02410293          	addi	t0,sp,36
    115c:	02c12423          	sw	a2,40(sp)
    1160:	00050613          	mv	a2,a0
    1164:	02b12223          	sw	a1,36(sp)
    1168:	02d12623          	sw	a3,44(sp)
    116c:	7d000513          	li	a0,2000
    1170:	00028693          	mv	a3,t0
    1174:	00000593          	li	a1,0
    1178:	00112e23          	sw	ra,28(sp)
    117c:	02e12823          	sw	a4,48(sp)
    1180:	02f12a23          	sw	a5,52(sp)
    1184:	03012c23          	sw	a6,56(sp)
    1188:	03112e23          	sw	a7,60(sp)
    118c:	00512623          	sw	t0,12(sp)
    1190:	ea4ff0ef          	jal	834 <vprintfmt>
    1194:	01c12083          	lw	ra,28(sp)
    1198:	00000513          	li	a0,0
    119c:	04010113          	addi	sp,sp,64
    11a0:	00008067          	ret

000011a4 <sprintf>:
    11a4:	fb010113          	addi	sp,sp,-80
    11a8:	03810293          	addi	t0,sp,56
    11ac:	02812423          	sw	s0,40(sp)
    11b0:	00a12623          	sw	a0,12(sp)
    11b4:	00050413          	mv	s0,a0
    11b8:	00001537          	lui	a0,0x1
    11bc:	02c12c23          	sw	a2,56(sp)
    11c0:	02d12e23          	sw	a3,60(sp)
    11c4:	00058613          	mv	a2,a1
    11c8:	81c50513          	addi	a0,a0,-2020 # 81c <sprintf_putch.2893>
    11cc:	00c10593          	addi	a1,sp,12
    11d0:	00028693          	mv	a3,t0
    11d4:	02112623          	sw	ra,44(sp)
    11d8:	04f12223          	sw	a5,68(sp)
    11dc:	04e12023          	sw	a4,64(sp)
    11e0:	05012423          	sw	a6,72(sp)
    11e4:	05112623          	sw	a7,76(sp)
    11e8:	00512e23          	sw	t0,28(sp)
    11ec:	e48ff0ef          	jal	834 <vprintfmt>
    11f0:	00c12783          	lw	a5,12(sp)
    11f4:	00078023          	sb	zero,0(a5)
    11f8:	00c12503          	lw	a0,12(sp)
    11fc:	02c12083          	lw	ra,44(sp)
    1200:	40850533          	sub	a0,a0,s0
    1204:	02812403          	lw	s0,40(sp)
    1208:	05010113          	addi	sp,sp,80
    120c:	00008067          	ret

00001210 <_init>:
    1210:	fd010113          	addi	sp,sp,-48
    1214:	02912223          	sw	s1,36(sp)
    1218:	03212023          	sw	s2,32(sp)
    121c:	00020913          	mv	s2,tp
    1220:	00020493          	mv	s1,tp
    1224:	409904b3          	sub	s1,s2,s1
    1228:	01412c23          	sw	s4,24(sp)
    122c:	00058a13          	mv	s4,a1
    1230:	02112623          	sw	ra,44(sp)
    1234:	02812423          	sw	s0,40(sp)
    1238:	01312e23          	sw	s3,28(sp)
    123c:	03010413          	addi	s0,sp,48
    1240:	01512a23          	sw	s5,20(sp)
    1244:	01612823          	sw	s6,16(sp)
    1248:	01712623          	sw	s7,12(sp)
    124c:	00050993          	mv	s3,a0
    1250:	d8010113          	addi	sp,sp,-640
    1254:	00020513          	mv	a0,tp
    1258:	00048613          	mv	a2,s1
    125c:	91018593          	addi	a1,gp,-1776 # 28c0 <_end>
    1260:	00020b13          	mv	s6,tp
    1264:	0b0000ef          	jal	1314 <memcpy>
    1268:	04420613          	addi	a2,tp,68 # 44 <_tbss_end>
    126c:	41260633          	sub	a2,a2,s2
    1270:	009b0533          	add	a0,s6,s1
    1274:	00000593          	li	a1,0
    1278:	1bc000ef          	jal	1434 <memset>
    127c:	000a0593          	mv	a1,s4
    1280:	00098513          	mv	a0,s3
    1284:	e51ff0ef          	jal	10d4 <thread_entry>
    1288:	03f10a93          	addi	s5,sp,63
    128c:	00000593          	li	a1,0
    1290:	00000513          	li	a0,0
    1294:	84418493          	addi	s1,gp,-1980 # 27f4 <counters>
    1298:	fc0afa93          	andi	s5,s5,-64
    129c:	00c010ef          	jal	22a8 <main>
    12a0:	04848913          	addi	s2,s1,72
    12a4:	00050b93          	mv	s7,a0
    12a8:	00090993          	mv	s3,s2
    12ac:	000a8a13          	mv	s4,s5
    12b0:	00002b37          	lui	s6,0x2
    12b4:	0100006f          	j	12c4 <_init+0xb4>
    12b8:	00448493          	addi	s1,s1,4
    12bc:	00490913          	addi	s2,s2,4
    12c0:	03348663          	beq	s1,s3,12ec <_init+0xdc>
    12c4:	0004a683          	lw	a3,0(s1)
    12c8:	fe0688e3          	beqz	a3,12b8 <_init+0xa8>
    12cc:	00092603          	lw	a2,0(s2)
    12d0:	000a0513          	mv	a0,s4
    12d4:	6dcb0593          	addi	a1,s6,1756 # 26dc <__clz_tab+0x1b0>
    12d8:	ecdff0ef          	jal	11a4 <sprintf>
    12dc:	00448493          	addi	s1,s1,4
    12e0:	00aa0a33          	add	s4,s4,a0
    12e4:	00490913          	addi	s2,s2,4
    12e8:	fd349ee3          	bne	s1,s3,12c4 <_init+0xb4>
    12ec:	034a8063          	beq	s5,s4,130c <_init+0xfc>
    12f0:	000a8513          	mv	a0,s5
    12f4:	21c000ef          	jal	1510 <strlen>
    12f8:	00050613          	mv	a2,a0
    12fc:	04000893          	li	a7,64
    1300:	00100513          	li	a0,1
    1304:	000a8593          	mv	a1,s5
    1308:	00000073          	ecall
    130c:	000b8513          	mv	a0,s7
    1310:	d65ff0ef          	jal	1074 <exit>

00001314 <memcpy>:
    1314:	00a5c7b3          	xor	a5,a1,a0
    1318:	0037f793          	andi	a5,a5,3
    131c:	00c508b3          	add	a7,a0,a2
    1320:	0e079263          	bnez	a5,1404 <memcpy+0xf0>
    1324:	00300793          	li	a5,3
    1328:	0ec7fe63          	bleu	a2,a5,1424 <memcpy+0x110>
    132c:	00357793          	andi	a5,a0,3
    1330:	04079a63          	bnez	a5,1384 <memcpy+0x70>
    1334:	ffc8f813          	andi	a6,a7,-4
    1338:	fe080793          	addi	a5,a6,-32
    133c:	00050713          	mv	a4,a0
    1340:	06f56663          	bltu	a0,a5,13ac <memcpy+0x98>
    1344:	00058693          	mv	a3,a1
    1348:	00070793          	mv	a5,a4
    134c:	03077863          	bleu	a6,a4,137c <memcpy+0x68>
    1350:	0006a603          	lw	a2,0(a3)
    1354:	00478793          	addi	a5,a5,4
    1358:	00468693          	addi	a3,a3,4
    135c:	fec7ae23          	sw	a2,-4(a5)
    1360:	ff07e8e3          	bltu	a5,a6,1350 <memcpy+0x3c>
    1364:	fff74793          	not	a5,a4
    1368:	01078833          	add	a6,a5,a6
    136c:	ffc87813          	andi	a6,a6,-4
    1370:	00480813          	addi	a6,a6,4
    1374:	01070733          	add	a4,a4,a6
    1378:	010585b3          	add	a1,a1,a6
    137c:	09176863          	bltu	a4,a7,140c <memcpy+0xf8>
    1380:	00008067          	ret
    1384:	00050713          	mv	a4,a0
    1388:	0005c683          	lbu	a3,0(a1)
    138c:	00170713          	addi	a4,a4,1
    1390:	00377793          	andi	a5,a4,3
    1394:	00158593          	addi	a1,a1,1
    1398:	fed70fa3          	sb	a3,-1(a4)
    139c:	fe0796e3          	bnez	a5,1388 <memcpy+0x74>
    13a0:	ffc8f813          	andi	a6,a7,-4
    13a4:	fe080793          	addi	a5,a6,-32
    13a8:	f8f77ee3          	bleu	a5,a4,1344 <memcpy+0x30>
    13ac:	0005af83          	lw	t6,0(a1)
    13b0:	0045af03          	lw	t5,4(a1)
    13b4:	0085ae83          	lw	t4,8(a1)
    13b8:	00c5ae03          	lw	t3,12(a1)
    13bc:	0105a383          	lw	t2,16(a1)
    13c0:	0145a303          	lw	t1,20(a1)
    13c4:	0185a283          	lw	t0,24(a1)
    13c8:	01c5a603          	lw	a2,28(a1)
    13cc:	02458593          	addi	a1,a1,36
    13d0:	02470713          	addi	a4,a4,36
    13d4:	ffc5a683          	lw	a3,-4(a1)
    13d8:	fdf72e23          	sw	t6,-36(a4)
    13dc:	ffe72023          	sw	t5,-32(a4)
    13e0:	ffd72223          	sw	t4,-28(a4)
    13e4:	ffc72423          	sw	t3,-24(a4)
    13e8:	fe772623          	sw	t2,-20(a4)
    13ec:	fe672823          	sw	t1,-16(a4)
    13f0:	fe572a23          	sw	t0,-12(a4)
    13f4:	fec72c23          	sw	a2,-8(a4)
    13f8:	fed72e23          	sw	a3,-4(a4)
    13fc:	faf768e3          	bltu	a4,a5,13ac <memcpy+0x98>
    1400:	f45ff06f          	j	1344 <memcpy+0x30>
    1404:	00050713          	mv	a4,a0
    1408:	03157463          	bleu	a7,a0,1430 <memcpy+0x11c>
    140c:	0005c783          	lbu	a5,0(a1)
    1410:	00170713          	addi	a4,a4,1
    1414:	00158593          	addi	a1,a1,1
    1418:	fef70fa3          	sb	a5,-1(a4)
    141c:	ff1768e3          	bltu	a4,a7,140c <memcpy+0xf8>
    1420:	00008067          	ret
    1424:	00050713          	mv	a4,a0
    1428:	ff1562e3          	bltu	a0,a7,140c <memcpy+0xf8>
    142c:	f55ff06f          	j	1380 <memcpy+0x6c>
    1430:	00008067          	ret

00001434 <memset>:
    1434:	00f00813          	li	a6,15
    1438:	00050713          	mv	a4,a0
    143c:	02c87e63          	bleu	a2,a6,1478 <memset+0x44>
    1440:	00f77793          	andi	a5,a4,15
    1444:	0a079063          	bnez	a5,14e4 <memset+0xb0>
    1448:	08059263          	bnez	a1,14cc <memset+0x98>
    144c:	ff067693          	andi	a3,a2,-16
    1450:	00f67613          	andi	a2,a2,15
    1454:	00e686b3          	add	a3,a3,a4
    1458:	00b72023          	sw	a1,0(a4)
    145c:	00b72223          	sw	a1,4(a4)
    1460:	00b72423          	sw	a1,8(a4)
    1464:	00b72623          	sw	a1,12(a4)
    1468:	01070713          	addi	a4,a4,16
    146c:	fed766e3          	bltu	a4,a3,1458 <memset+0x24>
    1470:	00061463          	bnez	a2,1478 <memset+0x44>
    1474:	00008067          	ret
    1478:	40c806b3          	sub	a3,a6,a2
    147c:	00269693          	slli	a3,a3,0x2
    1480:	00000297          	auipc	t0,0x0
    1484:	005686b3          	add	a3,a3,t0
    1488:	00c68067          	jr	a3,12
    148c:	00b70723          	sb	a1,14(a4)
    1490:	00b706a3          	sb	a1,13(a4)
    1494:	00b70623          	sb	a1,12(a4)
    1498:	00b705a3          	sb	a1,11(a4)
    149c:	00b70523          	sb	a1,10(a4)
    14a0:	00b704a3          	sb	a1,9(a4)
    14a4:	00b70423          	sb	a1,8(a4)
    14a8:	00b703a3          	sb	a1,7(a4)
    14ac:	00b70323          	sb	a1,6(a4)
    14b0:	00b702a3          	sb	a1,5(a4)
    14b4:	00b70223          	sb	a1,4(a4)
    14b8:	00b701a3          	sb	a1,3(a4)
    14bc:	00b70123          	sb	a1,2(a4)
    14c0:	00b700a3          	sb	a1,1(a4)
    14c4:	00b70023          	sb	a1,0(a4)
    14c8:	00008067          	ret
    14cc:	0ff5f593          	andi	a1,a1,255
    14d0:	00859693          	slli	a3,a1,0x8
    14d4:	00d5e5b3          	or	a1,a1,a3
    14d8:	01059693          	slli	a3,a1,0x10
    14dc:	00d5e5b3          	or	a1,a1,a3
    14e0:	f6dff06f          	j	144c <memset+0x18>
    14e4:	00279693          	slli	a3,a5,0x2
    14e8:	00000297          	auipc	t0,0x0
    14ec:	005686b3          	add	a3,a3,t0
    14f0:	00008293          	mv	t0,ra
    14f4:	fa0680e7          	jalr	a3,-96
    14f8:	00028093          	mv	ra,t0
    14fc:	ff078793          	addi	a5,a5,-16
    1500:	40f70733          	sub	a4,a4,a5
    1504:	00f60633          	add	a2,a2,a5
    1508:	f6c878e3          	bleu	a2,a6,1478 <memset+0x44>
    150c:	f3dff06f          	j	1448 <memset+0x14>

00001510 <strlen>:
    1510:	00357793          	andi	a5,a0,3
    1514:	00050593          	mv	a1,a0
    1518:	04079a63          	bnez	a5,156c <strlen+0x5c>
    151c:	7f7f86b7          	lui	a3,0x7f7f8
    1520:	f7f68693          	addi	a3,a3,-129 # 7f7f7f7f <_gp+0x7f7f4fcf>
    1524:	fff00613          	li	a2,-1
    1528:	00450513          	addi	a0,a0,4
    152c:	ffc52783          	lw	a5,-4(a0)
    1530:	00d7f733          	and	a4,a5,a3
    1534:	00d70733          	add	a4,a4,a3
    1538:	00d7e7b3          	or	a5,a5,a3
    153c:	00f767b3          	or	a5,a4,a5
    1540:	fec784e3          	beq	a5,a2,1528 <strlen+0x18>
    1544:	ffc54703          	lbu	a4,-4(a0)
    1548:	40b507b3          	sub	a5,a0,a1
    154c:	ffd54683          	lbu	a3,-3(a0)
    1550:	ffe54603          	lbu	a2,-2(a0)
    1554:	02070e63          	beqz	a4,1590 <strlen+0x80>
    1558:	02068863          	beqz	a3,1588 <strlen+0x78>
    155c:	fff78513          	addi	a0,a5,-1
    1560:	02060c63          	beqz	a2,1598 <strlen+0x88>
    1564:	00008067          	ret
    1568:	fa070ae3          	beqz	a4,151c <strlen+0xc>
    156c:	00054783          	lbu	a5,0(a0)
    1570:	00150513          	addi	a0,a0,1
    1574:	00357713          	andi	a4,a0,3
    1578:	fe0798e3          	bnez	a5,1568 <strlen+0x58>
    157c:	40b50533          	sub	a0,a0,a1
    1580:	fff50513          	addi	a0,a0,-1
    1584:	00008067          	ret
    1588:	ffd78513          	addi	a0,a5,-3
    158c:	00008067          	ret
    1590:	ffc78513          	addi	a0,a5,-4
    1594:	00008067          	ret
    1598:	ffe78513          	addi	a0,a5,-2
    159c:	00008067          	ret

000015a0 <strnlen>:
    15a0:	02058e63          	beqz	a1,15dc <strnlen+0x3c>
    15a4:	00054783          	lbu	a5,0(a0)
    15a8:	02078a63          	beqz	a5,15dc <strnlen+0x3c>
    15ac:	00150793          	addi	a5,a0,1
    15b0:	00b505b3          	add	a1,a0,a1
    15b4:	0100006f          	j	15c4 <strnlen+0x24>
    15b8:	fff74683          	lbu	a3,-1(a4)
    15bc:	00068c63          	beqz	a3,15d4 <strnlen+0x34>
    15c0:	00070793          	mv	a5,a4
    15c4:	00178713          	addi	a4,a5,1
    15c8:	fef598e3          	bne	a1,a5,15b8 <strnlen+0x18>
    15cc:	40a58533          	sub	a0,a1,a0
    15d0:	00008067          	ret
    15d4:	40a78533          	sub	a0,a5,a0
    15d8:	00008067          	ret
    15dc:	00000513          	li	a0,0
    15e0:	00008067          	ret

000015e4 <__udivdi3>:
    15e4:	fd010113          	addi	sp,sp,-48
    15e8:	02912223          	sw	s1,36(sp)
    15ec:	01312e23          	sw	s3,28(sp)
    15f0:	01412c23          	sw	s4,24(sp)
    15f4:	02112623          	sw	ra,44(sp)
    15f8:	02812423          	sw	s0,40(sp)
    15fc:	03212023          	sw	s2,32(sp)
    1600:	01512a23          	sw	s5,20(sp)
    1604:	01612823          	sw	s6,16(sp)
    1608:	01712623          	sw	s7,12(sp)
    160c:	01812423          	sw	s8,8(sp)
    1610:	01912223          	sw	s9,4(sp)
    1614:	01a12023          	sw	s10,0(sp)
    1618:	00050a13          	mv	s4,a0
    161c:	00058493          	mv	s1,a1
    1620:	00058993          	mv	s3,a1
    1624:	12069063          	bnez	a3,1744 <__udivdi3+0x160>
    1628:	00060413          	mv	s0,a2
    162c:	00050913          	mv	s2,a0
    1630:	16c5fa63          	bleu	a2,a1,17a4 <__udivdi3+0x1c0>
    1634:	000107b7          	lui	a5,0x10
    1638:	2ef67463          	bleu	a5,a2,1920 <__udivdi3+0x33c>
    163c:	0ff00793          	li	a5,255
    1640:	00c7b7b3          	sltu	a5,a5,a2
    1644:	00379793          	slli	a5,a5,0x3
    1648:	00002737          	lui	a4,0x2
    164c:	00f656b3          	srl	a3,a2,a5
    1650:	52c70713          	addi	a4,a4,1324 # 252c <__clz_tab>
    1654:	00e68733          	add	a4,a3,a4
    1658:	00074703          	lbu	a4,0(a4)
    165c:	00f707b3          	add	a5,a4,a5
    1660:	02000713          	li	a4,32
    1664:	40f70733          	sub	a4,a4,a5
    1668:	00070c63          	beqz	a4,1680 <__udivdi3+0x9c>
    166c:	00e494b3          	sll	s1,s1,a4
    1670:	00fa57b3          	srl	a5,s4,a5
    1674:	00e61433          	sll	s0,a2,a4
    1678:	0097e9b3          	or	s3,a5,s1
    167c:	00ea1933          	sll	s2,s4,a4
    1680:	01045b13          	srli	s6,s0,0x10
    1684:	000b0593          	mv	a1,s6
    1688:	00098513          	mv	a0,s3
    168c:	3b9000ef          	jal	2244 <__umodsi3>
    1690:	00050a13          	mv	s4,a0
    1694:	000b0593          	mv	a1,s6
    1698:	00098513          	mv	a0,s3
    169c:	01041b93          	slli	s7,s0,0x10
    16a0:	35d000ef          	jal	21fc <__udivsi3>
    16a4:	010bdb93          	srli	s7,s7,0x10
    16a8:	00050593          	mv	a1,a0
    16ac:	00050a93          	mv	s5,a0
    16b0:	000b8513          	mv	a0,s7
    16b4:	31d000ef          	jal	21d0 <__mulsi3>
    16b8:	010a1a13          	slli	s4,s4,0x10
    16bc:	01095793          	srli	a5,s2,0x10
    16c0:	0147e7b3          	or	a5,a5,s4
    16c4:	00a7fc63          	bleu	a0,a5,16dc <__udivdi3+0xf8>
    16c8:	008787b3          	add	a5,a5,s0
    16cc:	fffa8713          	addi	a4,s5,-1
    16d0:	0087e463          	bltu	a5,s0,16d8 <__udivdi3+0xf4>
    16d4:	52a7e463          	bltu	a5,a0,1bfc <__udivdi3+0x618>
    16d8:	00070a93          	mv	s5,a4
    16dc:	40a784b3          	sub	s1,a5,a0
    16e0:	000b0593          	mv	a1,s6
    16e4:	00048513          	mv	a0,s1
    16e8:	35d000ef          	jal	2244 <__umodsi3>
    16ec:	00050993          	mv	s3,a0
    16f0:	000b0593          	mv	a1,s6
    16f4:	00048513          	mv	a0,s1
    16f8:	305000ef          	jal	21fc <__udivsi3>
    16fc:	01091913          	slli	s2,s2,0x10
    1700:	00050593          	mv	a1,a0
    1704:	00050493          	mv	s1,a0
    1708:	01099993          	slli	s3,s3,0x10
    170c:	000b8513          	mv	a0,s7
    1710:	01095913          	srli	s2,s2,0x10
    1714:	2bd000ef          	jal	21d0 <__mulsi3>
    1718:	01396933          	or	s2,s2,s3
    171c:	00a97c63          	bleu	a0,s2,1734 <__udivdi3+0x150>
    1720:	01240933          	add	s2,s0,s2
    1724:	fff48793          	addi	a5,s1,-1
    1728:	46896263          	bltu	s2,s0,1b8c <__udivdi3+0x5a8>
    172c:	ffe48493          	addi	s1,s1,-2
    1730:	44a97e63          	bleu	a0,s2,1b8c <__udivdi3+0x5a8>
    1734:	010a9513          	slli	a0,s5,0x10
    1738:	00956533          	or	a0,a0,s1
    173c:	00000a93          	li	s5,0
    1740:	1840006f          	j	18c4 <__udivdi3+0x2e0>
    1744:	00068793          	mv	a5,a3
    1748:	16d5ea63          	bltu	a1,a3,18bc <__udivdi3+0x2d8>
    174c:	00010737          	lui	a4,0x10
    1750:	1ae6e863          	bltu	a3,a4,1900 <__udivdi3+0x31c>
    1754:	01000737          	lui	a4,0x1000
    1758:	00e6b733          	sltu	a4,a3,a4
    175c:	00174713          	xori	a4,a4,1
    1760:	40e00733          	neg	a4,a4
    1764:	00877713          	andi	a4,a4,8
    1768:	01070713          	addi	a4,a4,16 # 1000010 <_gp+0xffd060>
    176c:	000025b7          	lui	a1,0x2
    1770:	00e6d533          	srl	a0,a3,a4
    1774:	52c58593          	addi	a1,a1,1324 # 252c <__clz_tab>
    1778:	00b505b3          	add	a1,a0,a1
    177c:	0005c583          	lbu	a1,0(a1)
    1780:	02000a93          	li	s5,32
    1784:	00e58733          	add	a4,a1,a4
    1788:	40ea8ab3          	sub	s5,s5,a4
    178c:	1a0a9863          	bnez	s5,193c <__udivdi3+0x358>
    1790:	00100513          	li	a0,1
    1794:	1337e863          	bltu	a5,s3,18c4 <__udivdi3+0x2e0>
    1798:	00ca3533          	sltu	a0,s4,a2
    179c:	00154513          	xori	a0,a0,1
    17a0:	1240006f          	j	18c4 <__udivdi3+0x2e0>
    17a4:	00061a63          	bnez	a2,17b8 <__udivdi3+0x1d4>
    17a8:	00000593          	li	a1,0
    17ac:	00100513          	li	a0,1
    17b0:	24d000ef          	jal	21fc <__udivsi3>
    17b4:	00050413          	mv	s0,a0
    17b8:	000107b7          	lui	a5,0x10
    17bc:	14f46a63          	bltu	s0,a5,1910 <__udivdi3+0x32c>
    17c0:	010007b7          	lui	a5,0x1000
    17c4:	00f437b3          	sltu	a5,s0,a5
    17c8:	0017c793          	xori	a5,a5,1
    17cc:	40f007b3          	neg	a5,a5
    17d0:	0087f793          	andi	a5,a5,8
    17d4:	01078793          	addi	a5,a5,16 # 1000010 <_gp+0xffd060>
    17d8:	00002737          	lui	a4,0x2
    17dc:	00f456b3          	srl	a3,s0,a5
    17e0:	52c70713          	addi	a4,a4,1324 # 252c <__clz_tab>
    17e4:	00e68733          	add	a4,a3,a4
    17e8:	00074703          	lbu	a4,0(a4)
    17ec:	00f707b3          	add	a5,a4,a5
    17f0:	02000713          	li	a4,32
    17f4:	40f70733          	sub	a4,a4,a5
    17f8:	2a071263          	bnez	a4,1a9c <__udivdi3+0x4b8>
    17fc:	01041b13          	slli	s6,s0,0x10
    1800:	408484b3          	sub	s1,s1,s0
    1804:	01045b93          	srli	s7,s0,0x10
    1808:	010b5b13          	srli	s6,s6,0x10
    180c:	00100a93          	li	s5,1
    1810:	000b8593          	mv	a1,s7
    1814:	00048513          	mv	a0,s1
    1818:	22d000ef          	jal	2244 <__umodsi3>
    181c:	00050993          	mv	s3,a0
    1820:	000b8593          	mv	a1,s7
    1824:	00048513          	mv	a0,s1
    1828:	1d5000ef          	jal	21fc <__udivsi3>
    182c:	000b0593          	mv	a1,s6
    1830:	00050a13          	mv	s4,a0
    1834:	01099993          	slli	s3,s3,0x10
    1838:	199000ef          	jal	21d0 <__mulsi3>
    183c:	01095793          	srli	a5,s2,0x10
    1840:	0137e7b3          	or	a5,a5,s3
    1844:	00a7fc63          	bleu	a0,a5,185c <__udivdi3+0x278>
    1848:	008787b3          	add	a5,a5,s0
    184c:	fffa0713          	addi	a4,s4,-1
    1850:	0087e463          	bltu	a5,s0,1858 <__udivdi3+0x274>
    1854:	38a7ee63          	bltu	a5,a0,1bf0 <__udivdi3+0x60c>
    1858:	00070a13          	mv	s4,a4
    185c:	40a784b3          	sub	s1,a5,a0
    1860:	000b8593          	mv	a1,s7
    1864:	00048513          	mv	a0,s1
    1868:	1dd000ef          	jal	2244 <__umodsi3>
    186c:	00050993          	mv	s3,a0
    1870:	000b8593          	mv	a1,s7
    1874:	00048513          	mv	a0,s1
    1878:	01091913          	slli	s2,s2,0x10
    187c:	181000ef          	jal	21fc <__udivsi3>
    1880:	01099993          	slli	s3,s3,0x10
    1884:	000b0593          	mv	a1,s6
    1888:	01095913          	srli	s2,s2,0x10
    188c:	00050493          	mv	s1,a0
    1890:	01396933          	or	s2,s2,s3
    1894:	13d000ef          	jal	21d0 <__mulsi3>
    1898:	00a97c63          	bleu	a0,s2,18b0 <__udivdi3+0x2cc>
    189c:	01240933          	add	s2,s0,s2
    18a0:	fff48793          	addi	a5,s1,-1
    18a4:	2e896063          	bltu	s2,s0,1b84 <__udivdi3+0x5a0>
    18a8:	ffe48493          	addi	s1,s1,-2
    18ac:	2ca97c63          	bleu	a0,s2,1b84 <__udivdi3+0x5a0>
    18b0:	010a1513          	slli	a0,s4,0x10
    18b4:	00956533          	or	a0,a0,s1
    18b8:	00c0006f          	j	18c4 <__udivdi3+0x2e0>
    18bc:	00000a93          	li	s5,0
    18c0:	00000513          	li	a0,0
    18c4:	000a8593          	mv	a1,s5
    18c8:	02c12083          	lw	ra,44(sp)
    18cc:	02812403          	lw	s0,40(sp)
    18d0:	02412483          	lw	s1,36(sp)
    18d4:	02012903          	lw	s2,32(sp)
    18d8:	01c12983          	lw	s3,28(sp)
    18dc:	01812a03          	lw	s4,24(sp)
    18e0:	01412a83          	lw	s5,20(sp)
    18e4:	01012b03          	lw	s6,16(sp)
    18e8:	00c12b83          	lw	s7,12(sp)
    18ec:	00812c03          	lw	s8,8(sp)
    18f0:	00412c83          	lw	s9,4(sp)
    18f4:	00012d03          	lw	s10,0(sp)
    18f8:	03010113          	addi	sp,sp,48
    18fc:	00008067          	ret
    1900:	0ff00713          	li	a4,255
    1904:	00d73733          	sltu	a4,a4,a3
    1908:	00371713          	slli	a4,a4,0x3
    190c:	e61ff06f          	j	176c <__udivdi3+0x188>
    1910:	0ff00793          	li	a5,255
    1914:	0087b7b3          	sltu	a5,a5,s0
    1918:	00379793          	slli	a5,a5,0x3
    191c:	ebdff06f          	j	17d8 <__udivdi3+0x1f4>
    1920:	010007b7          	lui	a5,0x1000
    1924:	00f637b3          	sltu	a5,a2,a5
    1928:	0017c793          	xori	a5,a5,1
    192c:	40f007b3          	neg	a5,a5
    1930:	0087f793          	andi	a5,a5,8
    1934:	01078793          	addi	a5,a5,16 # 1000010 <_gp+0xffd060>
    1938:	d11ff06f          	j	1648 <__udivdi3+0x64>
    193c:	00e65cb3          	srl	s9,a2,a4
    1940:	015696b3          	sll	a3,a3,s5
    1944:	0196ecb3          	or	s9,a3,s9
    1948:	00e4d433          	srl	s0,s1,a4
    194c:	010cd993          	srli	s3,s9,0x10
    1950:	00ea5733          	srl	a4,s4,a4
    1954:	00098593          	mv	a1,s3
    1958:	015494b3          	sll	s1,s1,s5
    195c:	00040513          	mv	a0,s0
    1960:	009764b3          	or	s1,a4,s1
    1964:	01561b33          	sll	s6,a2,s5
    1968:	0dd000ef          	jal	2244 <__umodsi3>
    196c:	00050913          	mv	s2,a0
    1970:	00098593          	mv	a1,s3
    1974:	010c9c13          	slli	s8,s9,0x10
    1978:	00040513          	mv	a0,s0
    197c:	081000ef          	jal	21fc <__udivsi3>
    1980:	010c5c13          	srli	s8,s8,0x10
    1984:	00050593          	mv	a1,a0
    1988:	00050b93          	mv	s7,a0
    198c:	000c0513          	mv	a0,s8
    1990:	041000ef          	jal	21d0 <__mulsi3>
    1994:	01091913          	slli	s2,s2,0x10
    1998:	0104d793          	srli	a5,s1,0x10
    199c:	0127e7b3          	or	a5,a5,s2
    19a0:	00a7fa63          	bleu	a0,a5,19b4 <__udivdi3+0x3d0>
    19a4:	019787b3          	add	a5,a5,s9
    19a8:	fffb8713          	addi	a4,s7,-1
    19ac:	2397f263          	bleu	s9,a5,1bd0 <__udivdi3+0x5ec>
    19b0:	00070b93          	mv	s7,a4
    19b4:	40a78433          	sub	s0,a5,a0
    19b8:	00098593          	mv	a1,s3
    19bc:	00040513          	mv	a0,s0
    19c0:	085000ef          	jal	2244 <__umodsi3>
    19c4:	00050913          	mv	s2,a0
    19c8:	00098593          	mv	a1,s3
    19cc:	00040513          	mv	a0,s0
    19d0:	02d000ef          	jal	21fc <__udivsi3>
    19d4:	01049493          	slli	s1,s1,0x10
    19d8:	00050593          	mv	a1,a0
    19dc:	00050413          	mv	s0,a0
    19e0:	01091913          	slli	s2,s2,0x10
    19e4:	000c0513          	mv	a0,s8
    19e8:	0104d493          	srli	s1,s1,0x10
    19ec:	7e4000ef          	jal	21d0 <__mulsi3>
    19f0:	0124e4b3          	or	s1,s1,s2
    19f4:	00050793          	mv	a5,a0
    19f8:	00a4fa63          	bleu	a0,s1,1a0c <__udivdi3+0x428>
    19fc:	019484b3          	add	s1,s1,s9
    1a00:	fff40713          	addi	a4,s0,-1
    1a04:	1b94fe63          	bleu	s9,s1,1bc0 <__udivdi3+0x5dc>
    1a08:	00070413          	mv	s0,a4
    1a0c:	010b9b93          	slli	s7,s7,0x10
    1a10:	00010cb7          	lui	s9,0x10
    1a14:	008bebb3          	or	s7,s7,s0
    1a18:	fffc8413          	addi	s0,s9,-1 # ffff <_gp+0xd04f>
    1a1c:	008bf9b3          	and	s3,s7,s0
    1a20:	008b7433          	and	s0,s6,s0
    1a24:	00040593          	mv	a1,s0
    1a28:	00098513          	mv	a0,s3
    1a2c:	40f484b3          	sub	s1,s1,a5
    1a30:	010bdc13          	srli	s8,s7,0x10
    1a34:	79c000ef          	jal	21d0 <__mulsi3>
    1a38:	00050d13          	mv	s10,a0
    1a3c:	00040593          	mv	a1,s0
    1a40:	000c0513          	mv	a0,s8
    1a44:	78c000ef          	jal	21d0 <__mulsi3>
    1a48:	010b5b13          	srli	s6,s6,0x10
    1a4c:	00050913          	mv	s2,a0
    1a50:	000b0593          	mv	a1,s6
    1a54:	000c0513          	mv	a0,s8
    1a58:	778000ef          	jal	21d0 <__mulsi3>
    1a5c:	00050413          	mv	s0,a0
    1a60:	000b0593          	mv	a1,s6
    1a64:	00098513          	mv	a0,s3
    1a68:	768000ef          	jal	21d0 <__mulsi3>
    1a6c:	01250533          	add	a0,a0,s2
    1a70:	010d5793          	srli	a5,s10,0x10
    1a74:	00a787b3          	add	a5,a5,a0
    1a78:	0127f463          	bleu	s2,a5,1a80 <__udivdi3+0x49c>
    1a7c:	01940433          	add	s0,s0,s9
    1a80:	0107d513          	srli	a0,a5,0x10
    1a84:	00850533          	add	a0,a0,s0
    1a88:	12a4e663          	bltu	s1,a0,1bb4 <__udivdi3+0x5d0>
    1a8c:	10a48463          	beq	s1,a0,1b94 <__udivdi3+0x5b0>
    1a90:	000b8513          	mv	a0,s7
    1a94:	00000a93          	li	s5,0
    1a98:	e2dff06f          	j	18c4 <__udivdi3+0x2e0>
    1a9c:	00e41433          	sll	s0,s0,a4
    1aa0:	00f4dab3          	srl	s5,s1,a5
    1aa4:	01045993          	srli	s3,s0,0x10
    1aa8:	00e494b3          	sll	s1,s1,a4
    1aac:	00fa57b3          	srl	a5,s4,a5
    1ab0:	00098593          	mv	a1,s3
    1ab4:	000a8513          	mv	a0,s5
    1ab8:	00ea1933          	sll	s2,s4,a4
    1abc:	0097ec33          	or	s8,a5,s1
    1ac0:	784000ef          	jal	2244 <__umodsi3>
    1ac4:	00050a13          	mv	s4,a0
    1ac8:	00098593          	mv	a1,s3
    1acc:	01041b13          	slli	s6,s0,0x10
    1ad0:	000a8513          	mv	a0,s5
    1ad4:	728000ef          	jal	21fc <__udivsi3>
    1ad8:	010b5b13          	srli	s6,s6,0x10
    1adc:	00050593          	mv	a1,a0
    1ae0:	00050c93          	mv	s9,a0
    1ae4:	000b0513          	mv	a0,s6
    1ae8:	6e8000ef          	jal	21d0 <__mulsi3>
    1aec:	010a1a13          	slli	s4,s4,0x10
    1af0:	010c5713          	srli	a4,s8,0x10
    1af4:	01476733          	or	a4,a4,s4
    1af8:	00a77e63          	bleu	a0,a4,1b14 <__udivdi3+0x530>
    1afc:	00870733          	add	a4,a4,s0
    1b00:	fffc8793          	addi	a5,s9,-1
    1b04:	0e876263          	bltu	a4,s0,1be8 <__udivdi3+0x604>
    1b08:	0ea77063          	bleu	a0,a4,1be8 <__udivdi3+0x604>
    1b0c:	ffec8c93          	addi	s9,s9,-2
    1b10:	00870733          	add	a4,a4,s0
    1b14:	40a70bb3          	sub	s7,a4,a0
    1b18:	00098593          	mv	a1,s3
    1b1c:	000b8513          	mv	a0,s7
    1b20:	724000ef          	jal	2244 <__umodsi3>
    1b24:	00050a13          	mv	s4,a0
    1b28:	00098593          	mv	a1,s3
    1b2c:	000b8513          	mv	a0,s7
    1b30:	6cc000ef          	jal	21fc <__udivsi3>
    1b34:	00050593          	mv	a1,a0
    1b38:	00050a93          	mv	s5,a0
    1b3c:	000b0513          	mv	a0,s6
    1b40:	690000ef          	jal	21d0 <__mulsi3>
    1b44:	010c1793          	slli	a5,s8,0x10
    1b48:	010a1a13          	slli	s4,s4,0x10
    1b4c:	0107d793          	srli	a5,a5,0x10
    1b50:	0147e7b3          	or	a5,a5,s4
    1b54:	00a7fe63          	bleu	a0,a5,1b70 <__udivdi3+0x58c>
    1b58:	008787b3          	add	a5,a5,s0
    1b5c:	fffa8713          	addi	a4,s5,-1
    1b60:	0887e063          	bltu	a5,s0,1be0 <__udivdi3+0x5fc>
    1b64:	06a7fe63          	bleu	a0,a5,1be0 <__udivdi3+0x5fc>
    1b68:	ffea8a93          	addi	s5,s5,-2
    1b6c:	008787b3          	add	a5,a5,s0
    1b70:	010c9c93          	slli	s9,s9,0x10
    1b74:	40a784b3          	sub	s1,a5,a0
    1b78:	015ceab3          	or	s5,s9,s5
    1b7c:	00098b93          	mv	s7,s3
    1b80:	c91ff06f          	j	1810 <__udivdi3+0x22c>
    1b84:	00078493          	mv	s1,a5
    1b88:	d29ff06f          	j	18b0 <__udivdi3+0x2cc>
    1b8c:	00078493          	mv	s1,a5
    1b90:	ba5ff06f          	j	1734 <__udivdi3+0x150>
    1b94:	000106b7          	lui	a3,0x10
    1b98:	fff68693          	addi	a3,a3,-1 # ffff <_gp+0xd04f>
    1b9c:	00d7f7b3          	and	a5,a5,a3
    1ba0:	01079713          	slli	a4,a5,0x10
    1ba4:	00dd77b3          	and	a5,s10,a3
    1ba8:	015a1a33          	sll	s4,s4,s5
    1bac:	00f707b3          	add	a5,a4,a5
    1bb0:	eefa70e3          	bleu	a5,s4,1a90 <__udivdi3+0x4ac>
    1bb4:	fffb8513          	addi	a0,s7,-1
    1bb8:	00000a93          	li	s5,0
    1bbc:	d09ff06f          	j	18c4 <__udivdi3+0x2e0>
    1bc0:	e4a4f4e3          	bleu	a0,s1,1a08 <__udivdi3+0x424>
    1bc4:	ffe40413          	addi	s0,s0,-2
    1bc8:	019484b3          	add	s1,s1,s9
    1bcc:	e41ff06f          	j	1a0c <__udivdi3+0x428>
    1bd0:	dea7f0e3          	bleu	a0,a5,19b0 <__udivdi3+0x3cc>
    1bd4:	ffeb8b93          	addi	s7,s7,-2
    1bd8:	019787b3          	add	a5,a5,s9
    1bdc:	dd9ff06f          	j	19b4 <__udivdi3+0x3d0>
    1be0:	00070a93          	mv	s5,a4
    1be4:	f8dff06f          	j	1b70 <__udivdi3+0x58c>
    1be8:	00078c93          	mv	s9,a5
    1bec:	f29ff06f          	j	1b14 <__udivdi3+0x530>
    1bf0:	ffea0a13          	addi	s4,s4,-2
    1bf4:	008787b3          	add	a5,a5,s0
    1bf8:	c65ff06f          	j	185c <__udivdi3+0x278>
    1bfc:	ffea8a93          	addi	s5,s5,-2
    1c00:	008787b3          	add	a5,a5,s0
    1c04:	ad9ff06f          	j	16dc <__udivdi3+0xf8>

00001c08 <__umoddi3>:
    1c08:	fb010113          	addi	sp,sp,-80
    1c0c:	04812423          	sw	s0,72(sp)
    1c10:	04912223          	sw	s1,68(sp)
    1c14:	05212023          	sw	s2,64(sp)
    1c18:	03312e23          	sw	s3,60(sp)
    1c1c:	03512a23          	sw	s5,52(sp)
    1c20:	04112623          	sw	ra,76(sp)
    1c24:	03412c23          	sw	s4,56(sp)
    1c28:	03612823          	sw	s6,48(sp)
    1c2c:	03712623          	sw	s7,44(sp)
    1c30:	03812423          	sw	s8,40(sp)
    1c34:	03912223          	sw	s9,36(sp)
    1c38:	03a12023          	sw	s10,32(sp)
    1c3c:	01b12e23          	sw	s11,28(sp)
    1c40:	00058493          	mv	s1,a1
    1c44:	00050413          	mv	s0,a0
    1c48:	00060913          	mv	s2,a2
    1c4c:	00050993          	mv	s3,a0
    1c50:	00058a93          	mv	s5,a1
    1c54:	0c069a63          	bnez	a3,1d28 <__umoddi3+0x120>
    1c58:	14c5f063          	bleu	a2,a1,1d98 <__umoddi3+0x190>
    1c5c:	000107b7          	lui	a5,0x10
    1c60:	28f67e63          	bleu	a5,a2,1efc <__umoddi3+0x2f4>
    1c64:	0ff00793          	li	a5,255
    1c68:	00c7b7b3          	sltu	a5,a5,a2
    1c6c:	00379793          	slli	a5,a5,0x3
    1c70:	00002737          	lui	a4,0x2
    1c74:	00f656b3          	srl	a3,a2,a5
    1c78:	52c70713          	addi	a4,a4,1324 # 252c <__clz_tab>
    1c7c:	00e68733          	add	a4,a3,a4
    1c80:	00074583          	lbu	a1,0(a4)
    1c84:	02000513          	li	a0,32
    1c88:	00f587b3          	add	a5,a1,a5
    1c8c:	40f50a33          	sub	s4,a0,a5
    1c90:	000a0c63          	beqz	s4,1ca8 <__umoddi3+0xa0>
    1c94:	014495b3          	sll	a1,s1,s4
    1c98:	00f457b3          	srl	a5,s0,a5
    1c9c:	01461933          	sll	s2,a2,s4
    1ca0:	00b7eab3          	or	s5,a5,a1
    1ca4:	014419b3          	sll	s3,s0,s4
    1ca8:	01095b13          	srli	s6,s2,0x10
    1cac:	000b0593          	mv	a1,s6
    1cb0:	000a8513          	mv	a0,s5
    1cb4:	590000ef          	jal	2244 <__umodsi3>
    1cb8:	00050493          	mv	s1,a0
    1cbc:	000b0593          	mv	a1,s6
    1cc0:	000a8513          	mv	a0,s5
    1cc4:	01091a93          	slli	s5,s2,0x10
    1cc8:	534000ef          	jal	21fc <__udivsi3>
    1ccc:	010ada93          	srli	s5,s5,0x10
    1cd0:	00050593          	mv	a1,a0
    1cd4:	000a8513          	mv	a0,s5
    1cd8:	4f8000ef          	jal	21d0 <__mulsi3>
    1cdc:	01049493          	slli	s1,s1,0x10
    1ce0:	0109d793          	srli	a5,s3,0x10
    1ce4:	0097e7b3          	or	a5,a5,s1
    1ce8:	00a7fa63          	bleu	a0,a5,1cfc <__umoddi3+0xf4>
    1cec:	012787b3          	add	a5,a5,s2
    1cf0:	0127e663          	bltu	a5,s2,1cfc <__umoddi3+0xf4>
    1cf4:	00a7f463          	bleu	a0,a5,1cfc <__umoddi3+0xf4>
    1cf8:	012787b3          	add	a5,a5,s2
    1cfc:	40a78433          	sub	s0,a5,a0
    1d00:	000b0593          	mv	a1,s6
    1d04:	00040513          	mv	a0,s0
    1d08:	53c000ef          	jal	2244 <__umodsi3>
    1d0c:	00050493          	mv	s1,a0
    1d10:	000b0593          	mv	a1,s6
    1d14:	00040513          	mv	a0,s0
    1d18:	4e4000ef          	jal	21fc <__udivsi3>
    1d1c:	00050593          	mv	a1,a0
    1d20:	000a8513          	mv	a0,s5
    1d24:	1400006f          	j	1e64 <__umoddi3+0x25c>
    1d28:	16d5ea63          	bltu	a1,a3,1e9c <__umoddi3+0x294>
    1d2c:	000107b7          	lui	a5,0x10
    1d30:	00068813          	mv	a6,a3
    1d34:	1af6e463          	bltu	a3,a5,1edc <__umoddi3+0x2d4>
    1d38:	01000737          	lui	a4,0x1000
    1d3c:	00e6b733          	sltu	a4,a3,a4
    1d40:	00174713          	xori	a4,a4,1
    1d44:	40e00733          	neg	a4,a4
    1d48:	00877713          	andi	a4,a4,8
    1d4c:	01070713          	addi	a4,a4,16 # 1000010 <_gp+0xffd060>
    1d50:	000027b7          	lui	a5,0x2
    1d54:	00e6d5b3          	srl	a1,a3,a4
    1d58:	52c78793          	addi	a5,a5,1324 # 252c <__clz_tab>
    1d5c:	00f587b3          	add	a5,a1,a5
    1d60:	0007cb03          	lbu	s6,0(a5)
    1d64:	02000593          	li	a1,32
    1d68:	00eb0b33          	add	s6,s6,a4
    1d6c:	41658a33          	sub	s4,a1,s6
    1d70:	1a0a1463          	bnez	s4,1f18 <__umoddi3+0x310>
    1d74:	01586663          	bltu	a6,s5,1d80 <__umoddi3+0x178>
    1d78:	00040513          	mv	a0,s0
    1d7c:	0129ea63          	bltu	s3,s2,1d90 <__umoddi3+0x188>
    1d80:	40c40533          	sub	a0,s0,a2
    1d84:	40d486b3          	sub	a3,s1,a3
    1d88:	00a43433          	sltu	s0,s0,a0
    1d8c:	40868ab3          	sub	s5,a3,s0
    1d90:	000a8593          	mv	a1,s5
    1d94:	10c0006f          	j	1ea0 <__umoddi3+0x298>
    1d98:	00061a63          	bnez	a2,1dac <__umoddi3+0x1a4>
    1d9c:	00000593          	li	a1,0
    1da0:	00100513          	li	a0,1
    1da4:	458000ef          	jal	21fc <__udivsi3>
    1da8:	00050913          	mv	s2,a0
    1dac:	000107b7          	lui	a5,0x10
    1db0:	12f96e63          	bltu	s2,a5,1eec <__umoddi3+0x2e4>
    1db4:	010007b7          	lui	a5,0x1000
    1db8:	00f937b3          	sltu	a5,s2,a5
    1dbc:	0017c793          	xori	a5,a5,1
    1dc0:	40f007b3          	neg	a5,a5
    1dc4:	0087f793          	andi	a5,a5,8
    1dc8:	01078793          	addi	a5,a5,16 # 1000010 <_gp+0xffd060>
    1dcc:	00002737          	lui	a4,0x2
    1dd0:	00f956b3          	srl	a3,s2,a5
    1dd4:	52c70713          	addi	a4,a4,1324 # 252c <__clz_tab>
    1dd8:	00e68733          	add	a4,a3,a4
    1ddc:	00074703          	lbu	a4,0(a4)
    1de0:	02000513          	li	a0,32
    1de4:	00f707b3          	add	a5,a4,a5
    1de8:	40f50a33          	sub	s4,a0,a5
    1dec:	2c0a1663          	bnez	s4,20b8 <__umoddi3+0x4b0>
    1df0:	01091b93          	slli	s7,s2,0x10
    1df4:	412484b3          	sub	s1,s1,s2
    1df8:	01095b13          	srli	s6,s2,0x10
    1dfc:	010bdb93          	srli	s7,s7,0x10
    1e00:	000b0593          	mv	a1,s6
    1e04:	00048513          	mv	a0,s1
    1e08:	43c000ef          	jal	2244 <__umodsi3>
    1e0c:	00050a93          	mv	s5,a0
    1e10:	000b0593          	mv	a1,s6
    1e14:	00048513          	mv	a0,s1
    1e18:	3e4000ef          	jal	21fc <__udivsi3>
    1e1c:	000b8593          	mv	a1,s7
    1e20:	3b0000ef          	jal	21d0 <__mulsi3>
    1e24:	010a9a93          	slli	s5,s5,0x10
    1e28:	0109d793          	srli	a5,s3,0x10
    1e2c:	0157e7b3          	or	a5,a5,s5
    1e30:	00a7f863          	bleu	a0,a5,1e40 <__umoddi3+0x238>
    1e34:	012787b3          	add	a5,a5,s2
    1e38:	0127e463          	bltu	a5,s2,1e40 <__umoddi3+0x238>
    1e3c:	36a7ee63          	bltu	a5,a0,21b8 <__umoddi3+0x5b0>
    1e40:	40a78433          	sub	s0,a5,a0
    1e44:	000b0593          	mv	a1,s6
    1e48:	00040513          	mv	a0,s0
    1e4c:	3f8000ef          	jal	2244 <__umodsi3>
    1e50:	00050493          	mv	s1,a0
    1e54:	000b0593          	mv	a1,s6
    1e58:	00040513          	mv	a0,s0
    1e5c:	3a0000ef          	jal	21fc <__udivsi3>
    1e60:	000b8593          	mv	a1,s7
    1e64:	36c000ef          	jal	21d0 <__mulsi3>
    1e68:	01099793          	slli	a5,s3,0x10
    1e6c:	01049493          	slli	s1,s1,0x10
    1e70:	0107d793          	srli	a5,a5,0x10
    1e74:	0097e7b3          	or	a5,a5,s1
    1e78:	00a7fa63          	bleu	a0,a5,1e8c <__umoddi3+0x284>
    1e7c:	012787b3          	add	a5,a5,s2
    1e80:	0127e663          	bltu	a5,s2,1e8c <__umoddi3+0x284>
    1e84:	00a7f463          	bleu	a0,a5,1e8c <__umoddi3+0x284>
    1e88:	012787b3          	add	a5,a5,s2
    1e8c:	40a78533          	sub	a0,a5,a0
    1e90:	01455533          	srl	a0,a0,s4
    1e94:	00000593          	li	a1,0
    1e98:	0080006f          	j	1ea0 <__umoddi3+0x298>
    1e9c:	00040513          	mv	a0,s0
    1ea0:	04c12083          	lw	ra,76(sp)
    1ea4:	04812403          	lw	s0,72(sp)
    1ea8:	04412483          	lw	s1,68(sp)
    1eac:	04012903          	lw	s2,64(sp)
    1eb0:	03c12983          	lw	s3,60(sp)
    1eb4:	03812a03          	lw	s4,56(sp)
    1eb8:	03412a83          	lw	s5,52(sp)
    1ebc:	03012b03          	lw	s6,48(sp)
    1ec0:	02c12b83          	lw	s7,44(sp)
    1ec4:	02812c03          	lw	s8,40(sp)
    1ec8:	02412c83          	lw	s9,36(sp)
    1ecc:	02012d03          	lw	s10,32(sp)
    1ed0:	01c12d83          	lw	s11,28(sp)
    1ed4:	05010113          	addi	sp,sp,80
    1ed8:	00008067          	ret
    1edc:	0ff00713          	li	a4,255
    1ee0:	00d73733          	sltu	a4,a4,a3
    1ee4:	00371713          	slli	a4,a4,0x3
    1ee8:	e69ff06f          	j	1d50 <__umoddi3+0x148>
    1eec:	0ff00793          	li	a5,255
    1ef0:	0127b7b3          	sltu	a5,a5,s2
    1ef4:	00379793          	slli	a5,a5,0x3
    1ef8:	ed5ff06f          	j	1dcc <__umoddi3+0x1c4>
    1efc:	010007b7          	lui	a5,0x1000
    1f00:	00f637b3          	sltu	a5,a2,a5
    1f04:	0017c793          	xori	a5,a5,1
    1f08:	40f007b3          	neg	a5,a5
    1f0c:	0087f793          	andi	a5,a5,8
    1f10:	01078793          	addi	a5,a5,16 # 1000010 <_gp+0xffd060>
    1f14:	d5dff06f          	j	1c70 <__umoddi3+0x68>
    1f18:	016659b3          	srl	s3,a2,s6
    1f1c:	014696b3          	sll	a3,a3,s4
    1f20:	0136e9b3          	or	s3,a3,s3
    1f24:	0164dab3          	srl	s5,s1,s6
    1f28:	0109db93          	srli	s7,s3,0x10
    1f2c:	014496b3          	sll	a3,s1,s4
    1f30:	000b8593          	mv	a1,s7
    1f34:	016454b3          	srl	s1,s0,s6
    1f38:	000a8513          	mv	a0,s5
    1f3c:	00d4e4b3          	or	s1,s1,a3
    1f40:	01461933          	sll	s2,a2,s4
    1f44:	300000ef          	jal	2244 <__umodsi3>
    1f48:	00050c13          	mv	s8,a0
    1f4c:	000b8593          	mv	a1,s7
    1f50:	01099c93          	slli	s9,s3,0x10
    1f54:	000a8513          	mv	a0,s5
    1f58:	2a4000ef          	jal	21fc <__udivsi3>
    1f5c:	010cdc93          	srli	s9,s9,0x10
    1f60:	00050593          	mv	a1,a0
    1f64:	00050d13          	mv	s10,a0
    1f68:	000c8513          	mv	a0,s9
    1f6c:	264000ef          	jal	21d0 <__mulsi3>
    1f70:	010c1c13          	slli	s8,s8,0x10
    1f74:	0104d793          	srli	a5,s1,0x10
    1f78:	0187e7b3          	or	a5,a5,s8
    1f7c:	01441433          	sll	s0,s0,s4
    1f80:	00a7fa63          	bleu	a0,a5,1f94 <__umoddi3+0x38c>
    1f84:	013787b3          	add	a5,a5,s3
    1f88:	fffd0713          	addi	a4,s10,-1
    1f8c:	2137fe63          	bleu	s3,a5,21a8 <__umoddi3+0x5a0>
    1f90:	00070d13          	mv	s10,a4
    1f94:	40a78ab3          	sub	s5,a5,a0
    1f98:	000b8593          	mv	a1,s7
    1f9c:	000a8513          	mv	a0,s5
    1fa0:	2a4000ef          	jal	2244 <__umodsi3>
    1fa4:	00050c13          	mv	s8,a0
    1fa8:	000b8593          	mv	a1,s7
    1fac:	000a8513          	mv	a0,s5
    1fb0:	24c000ef          	jal	21fc <__udivsi3>
    1fb4:	00050593          	mv	a1,a0
    1fb8:	00050a93          	mv	s5,a0
    1fbc:	000c8513          	mv	a0,s9
    1fc0:	210000ef          	jal	21d0 <__mulsi3>
    1fc4:	01049693          	slli	a3,s1,0x10
    1fc8:	010c1c13          	slli	s8,s8,0x10
    1fcc:	0106d693          	srli	a3,a3,0x10
    1fd0:	0186e4b3          	or	s1,a3,s8
    1fd4:	00050793          	mv	a5,a0
    1fd8:	00a4fa63          	bleu	a0,s1,1fec <__umoddi3+0x3e4>
    1fdc:	013484b3          	add	s1,s1,s3
    1fe0:	fffa8713          	addi	a4,s5,-1
    1fe4:	1b34fa63          	bleu	s3,s1,2198 <__umoddi3+0x590>
    1fe8:	00070a93          	mv	s5,a4
    1fec:	00010737          	lui	a4,0x10
    1ff0:	010d1d13          	slli	s10,s10,0x10
    1ff4:	fff70b93          	addi	s7,a4,-1 # ffff <_gp+0xd04f>
    1ff8:	015d6ab3          	or	s5,s10,s5
    1ffc:	017afdb3          	and	s11,s5,s7
    2000:	01797bb3          	and	s7,s2,s7
    2004:	000b8593          	mv	a1,s7
    2008:	000d8513          	mv	a0,s11
    200c:	00e12623          	sw	a4,12(sp)
    2010:	40f484b3          	sub	s1,s1,a5
    2014:	010ada93          	srli	s5,s5,0x10
    2018:	1b8000ef          	jal	21d0 <__mulsi3>
    201c:	00050c93          	mv	s9,a0
    2020:	000b8593          	mv	a1,s7
    2024:	000a8513          	mv	a0,s5
    2028:	1a8000ef          	jal	21d0 <__mulsi3>
    202c:	01095c13          	srli	s8,s2,0x10
    2030:	00050d13          	mv	s10,a0
    2034:	000c0593          	mv	a1,s8
    2038:	000a8513          	mv	a0,s5
    203c:	194000ef          	jal	21d0 <__mulsi3>
    2040:	00050a93          	mv	s5,a0
    2044:	000c0593          	mv	a1,s8
    2048:	000d8513          	mv	a0,s11
    204c:	184000ef          	jal	21d0 <__mulsi3>
    2050:	01a50533          	add	a0,a0,s10
    2054:	010cd613          	srli	a2,s9,0x10
    2058:	00a60533          	add	a0,a2,a0
    205c:	00c12703          	lw	a4,12(sp)
    2060:	01a57463          	bleu	s10,a0,2068 <__umoddi3+0x460>
    2064:	00ea8ab3          	add	s5,s5,a4
    2068:	00010637          	lui	a2,0x10
    206c:	fff60813          	addi	a6,a2,-1 # ffff <_gp+0xd04f>
    2070:	01055593          	srli	a1,a0,0x10
    2074:	01057533          	and	a0,a0,a6
    2078:	01051613          	slli	a2,a0,0x10
    207c:	010cf733          	and	a4,s9,a6
    2080:	015585b3          	add	a1,a1,s5
    2084:	00e60733          	add	a4,a2,a4
    2088:	0eb4ec63          	bltu	s1,a1,2180 <__umoddi3+0x578>
    208c:	12b48a63          	beq	s1,a1,21c0 <__umoddi3+0x5b8>
    2090:	40b487b3          	sub	a5,s1,a1
    2094:	00070613          	mv	a2,a4
    2098:	40c40633          	sub	a2,s0,a2
    209c:	00c435b3          	sltu	a1,s0,a2
    20a0:	40b785b3          	sub	a1,a5,a1
    20a4:	01659533          	sll	a0,a1,s6
    20a8:	01465633          	srl	a2,a2,s4
    20ac:	00c56533          	or	a0,a0,a2
    20b0:	0145d5b3          	srl	a1,a1,s4
    20b4:	dedff06f          	j	1ea0 <__umoddi3+0x298>
    20b8:	01491933          	sll	s2,s2,s4
    20bc:	00f4db33          	srl	s6,s1,a5
    20c0:	01095a93          	srli	s5,s2,0x10
    20c4:	00f457b3          	srl	a5,s0,a5
    20c8:	000a8593          	mv	a1,s5
    20cc:	014494b3          	sll	s1,s1,s4
    20d0:	000b0513          	mv	a0,s6
    20d4:	0097ec33          	or	s8,a5,s1
    20d8:	16c000ef          	jal	2244 <__umodsi3>
    20dc:	00050993          	mv	s3,a0
    20e0:	000a8593          	mv	a1,s5
    20e4:	01091b93          	slli	s7,s2,0x10
    20e8:	000b0513          	mv	a0,s6
    20ec:	110000ef          	jal	21fc <__udivsi3>
    20f0:	010bdb93          	srli	s7,s7,0x10
    20f4:	00050593          	mv	a1,a0
    20f8:	000b8513          	mv	a0,s7
    20fc:	01099993          	slli	s3,s3,0x10
    2100:	0d0000ef          	jal	21d0 <__mulsi3>
    2104:	010c5713          	srli	a4,s8,0x10
    2108:	01376733          	or	a4,a4,s3
    210c:	014419b3          	sll	s3,s0,s4
    2110:	00a77a63          	bleu	a0,a4,2124 <__umoddi3+0x51c>
    2114:	01270733          	add	a4,a4,s2
    2118:	01276663          	bltu	a4,s2,2124 <__umoddi3+0x51c>
    211c:	00a77463          	bleu	a0,a4,2124 <__umoddi3+0x51c>
    2120:	01270733          	add	a4,a4,s2
    2124:	40a70b33          	sub	s6,a4,a0
    2128:	000a8593          	mv	a1,s5
    212c:	000b0513          	mv	a0,s6
    2130:	114000ef          	jal	2244 <__umodsi3>
    2134:	00050413          	mv	s0,a0
    2138:	000a8593          	mv	a1,s5
    213c:	000b0513          	mv	a0,s6
    2140:	0bc000ef          	jal	21fc <__udivsi3>
    2144:	00050593          	mv	a1,a0
    2148:	000b8513          	mv	a0,s7
    214c:	084000ef          	jal	21d0 <__mulsi3>
    2150:	010c1793          	slli	a5,s8,0x10
    2154:	01041413          	slli	s0,s0,0x10
    2158:	0107d793          	srli	a5,a5,0x10
    215c:	0087e7b3          	or	a5,a5,s0
    2160:	00a7fa63          	bleu	a0,a5,2174 <__umoddi3+0x56c>
    2164:	012787b3          	add	a5,a5,s2
    2168:	0127e663          	bltu	a5,s2,2174 <__umoddi3+0x56c>
    216c:	00a7f463          	bleu	a0,a5,2174 <__umoddi3+0x56c>
    2170:	012787b3          	add	a5,a5,s2
    2174:	40a784b3          	sub	s1,a5,a0
    2178:	000a8b13          	mv	s6,s5
    217c:	c85ff06f          	j	1e00 <__umoddi3+0x1f8>
    2180:	41270633          	sub	a2,a4,s2
    2184:	413587b3          	sub	a5,a1,s3
    2188:	00c73733          	sltu	a4,a4,a2
    218c:	40e78733          	sub	a4,a5,a4
    2190:	40e487b3          	sub	a5,s1,a4
    2194:	f05ff06f          	j	2098 <__umoddi3+0x490>
    2198:	e4a4f8e3          	bleu	a0,s1,1fe8 <__umoddi3+0x3e0>
    219c:	ffea8a93          	addi	s5,s5,-2
    21a0:	013484b3          	add	s1,s1,s3
    21a4:	e49ff06f          	j	1fec <__umoddi3+0x3e4>
    21a8:	dea7f4e3          	bleu	a0,a5,1f90 <__umoddi3+0x388>
    21ac:	ffed0d13          	addi	s10,s10,-2
    21b0:	013787b3          	add	a5,a5,s3
    21b4:	de1ff06f          	j	1f94 <__umoddi3+0x38c>
    21b8:	012787b3          	add	a5,a5,s2
    21bc:	c85ff06f          	j	1e40 <__umoddi3+0x238>
    21c0:	fce460e3          	bltu	s0,a4,2180 <__umoddi3+0x578>
    21c4:	00070613          	mv	a2,a4
    21c8:	00000793          	li	a5,0
    21cc:	ecdff06f          	j	2098 <__umoddi3+0x490>

000021d0 <__mulsi3>:
    21d0:	00050613          	mv	a2,a0
    21d4:	00000513          	li	a0,0
    21d8:	01f59693          	slli	a3,a1,0x1f
    21dc:	0006d463          	bgez	a3,21e4 <__mulsi3+0x14>
    21e0:	00c50533          	add	a0,a0,a2
    21e4:	0015d593          	srli	a1,a1,0x1
    21e8:	00161613          	slli	a2,a2,0x1
    21ec:	fe0596e3          	bnez	a1,21d8 <__mulsi3+0x8>
    21f0:	00008067          	ret

000021f4 <__divsi3>:
    21f4:	06054063          	bltz	a0,2254 <__umodsi3+0x10>
    21f8:	0605c663          	bltz	a1,2264 <__umodsi3+0x20>

000021fc <__udivsi3>:
    21fc:	00058613          	mv	a2,a1
    2200:	00050593          	mv	a1,a0
    2204:	fff00513          	li	a0,-1
    2208:	02060c63          	beqz	a2,2240 <__udivsi3+0x44>
    220c:	00100693          	li	a3,1
    2210:	00b67a63          	bleu	a1,a2,2224 <__udivsi3+0x28>
    2214:	00c05863          	blez	a2,2224 <__udivsi3+0x28>
    2218:	00161613          	slli	a2,a2,0x1
    221c:	00169693          	slli	a3,a3,0x1
    2220:	feb66ae3          	bltu	a2,a1,2214 <__udivsi3+0x18>
    2224:	00000513          	li	a0,0
    2228:	00c5e663          	bltu	a1,a2,2234 <__udivsi3+0x38>
    222c:	40c585b3          	sub	a1,a1,a2
    2230:	00d56533          	or	a0,a0,a3
    2234:	0016d693          	srli	a3,a3,0x1
    2238:	00165613          	srli	a2,a2,0x1
    223c:	fe0696e3          	bnez	a3,2228 <__udivsi3+0x2c>
    2240:	00008067          	ret

00002244 <__umodsi3>:
    2244:	00008293          	mv	t0,ra
    2248:	fb5ff0ef          	jal	21fc <__udivsi3>
    224c:	00058513          	mv	a0,a1
    2250:	00028067          	jr	t0
    2254:	40a00533          	neg	a0,a0
    2258:	0005d863          	bgez	a1,2268 <__umodsi3+0x24>
    225c:	40b005b3          	neg	a1,a1
    2260:	f95ff06f          	j	21f4 <__divsi3>
    2264:	40b005b3          	neg	a1,a1
    2268:	00008293          	mv	t0,ra
    226c:	f89ff0ef          	jal	21f4 <__divsi3>
    2270:	40a00533          	neg	a0,a0
    2274:	00028067          	jr	t0

00002278 <__modsi3>:
    2278:	00008293          	mv	t0,ra
    227c:	0005ca63          	bltz	a1,2290 <__modsi3+0x18>
    2280:	00054c63          	bltz	a0,2298 <__modsi3+0x20>
    2284:	f79ff0ef          	jal	21fc <__udivsi3>
    2288:	00058513          	mv	a0,a1
    228c:	00028067          	jr	t0
    2290:	40b005b3          	neg	a1,a1
    2294:	fe0558e3          	bgez	a0,2284 <__modsi3+0xc>
    2298:	40a00533          	neg	a0,a0
    229c:	f61ff0ef          	jal	21fc <__udivsi3>
    22a0:	40b00533          	neg	a0,a1
    22a4:	00028067          	jr	t0

Disassembly of section .text.startup:

000022a8 <main>:
    22a8:	00700713          	li	a4,7
    22ac:	80c18793          	addi	a5,gp,-2036 # 27bc <g_nodePool>
    22b0:	80e1a023          	sw	a4,-2048(gp) # 27b0 <g_nodeFreeList>
    22b4:	06300713          	li	a4,99
    22b8:	02e7a823          	sw	a4,48(a5)
    22bc:	0207aa23          	sw	zero,52(a5)
    22c0:	00878713          	addi	a4,a5,8
    22c4:	00000693          	li	a3,0
    22c8:	00600613          	li	a2,6
    22cc:	fed72c23          	sw	a3,-8(a4)
    22d0:	00168693          	addi	a3,a3,1
    22d4:	fee72e23          	sw	a4,-4(a4)
    22d8:	00870713          	addi	a4,a4,8
    22dc:	fec698e3          	bne	a3,a2,22cc <main+0x24>
    22e0:	fd010113          	addi	sp,sp,-48
    22e4:	00700713          	li	a4,7
    22e8:	02112623          	sw	ra,44(sp)
    22ec:	00e12023          	sw	a4,0(sp)
    22f0:	00012223          	sw	zero,4(sp)
    22f4:	00012823          	sw	zero,16(sp)
    22f8:	00012a23          	sw	zero,20(sp)
    22fc:	00012c23          	sw	zero,24(sp)
    2300:	00012e23          	sw	zero,28(sp)
    2304:	00000693          	li	a3,0
    2308:	0080006f          	j	2310 <main+0x68>
    230c:	00080793          	mv	a5,a6
    2310:	00e7a023          	sw	a4,0(a5)
    2314:	fff70713          	addi	a4,a4,-1
    2318:	0047a803          	lw	a6,4(a5)
    231c:	00d7a223          	sw	a3,4(a5)
    2320:	00078693          	mv	a3,a5
    2324:	fe0714e3          	bnez	a4,230c <main+0x64>
    2328:	00700293          	li	t0,7
    232c:	80018893          	addi	a7,gp,-2048 # 27b0 <g_nodeFreeList>
    2330:	00028593          	mv	a1,t0
    2334:	01810713          	addi	a4,sp,24
    2338:	01010693          	addi	a3,sp,16
    233c:	00810613          	addi	a2,sp,8
    2340:	00010513          	mv	a0,sp
    2344:	00f12623          	sw	a5,12(sp)
    2348:	0108a223          	sw	a6,4(a7)
    234c:	00512423          	sw	t0,8(sp)
    2350:	b60fe0ef          	jal	6b0 <towers_solve_h>
    2354:	00010513          	mv	a0,sp
    2358:	a44fe0ef          	jal	59c <towers_clear>
    235c:	00100513          	li	a0,1
    2360:	d29fe0ef          	jal	1088 <setStats>
    2364:	00012583          	lw	a1,0(sp)
    2368:	01810713          	addi	a4,sp,24
    236c:	01010693          	addi	a3,sp,16
    2370:	00810613          	addi	a2,sp,8
    2374:	00010513          	mv	a0,sp
    2378:	b38fe0ef          	jal	6b0 <towers_solve_h>
    237c:	00000513          	li	a0,0
    2380:	d09fe0ef          	jal	1088 <setStats>
    2384:	00812783          	lw	a5,8(sp)
    2388:	00200513          	li	a0,2
    238c:	00078863          	beqz	a5,239c <main+0xf4>
    2390:	02c12083          	lw	ra,44(sp)
    2394:	03010113          	addi	sp,sp,48
    2398:	00008067          	ret
    239c:	01012783          	lw	a5,16(sp)
    23a0:	00300513          	li	a0,3
    23a4:	fe0796e3          	bnez	a5,2390 <main+0xe8>
    23a8:	00010513          	mv	a0,sp
    23ac:	86cfe0ef          	jal	418 <towers_verify.part.0>
    23b0:	fe1ff06f          	j	2390 <main+0xe8>
    23b4:	000025b7          	lui	a1,0x2
    23b8:	04000893          	li	a7,64
    23bc:	00100513          	li	a0,1
    23c0:	6c458593          	addi	a1,a1,1732 # 26c4 <__clz_tab+0x198>
    23c4:	01700613          	li	a2,23
    23c8:	00000073          	ecall
    23cc:	fff00513          	li	a0,-1
    23d0:	00008067          	ret
