
vvadd.riscv:     file format elf32-littleriscv


Disassembly of section .text:

00002000 <_start>:
    2000:	00000093 	li	ra,0
    2004:	00000113 	li	s0,0
    2008:	00000193 	li	s1,0
    200c:	00000213 	li	s2,0
    2010:	00000293 	li	s3,0
    2014:	00000313 	li	s4,0
    2018:	00000393 	li	s5,0
    201c:	00000413 	li	s6,0
    2020:	00000493 	li	s7,0
    2024:	00000513 	li	s8,0
    2028:	00000593 	li	s9,0
    202c:	00000613 	li	s10,0
    2030:	00000693 	li	s11,0
    2034:	00000713 	li	sp,0
    2038:	00000793 	li	tp,0
    203c:	00000813 	li	v0,0
    2040:	00000893 	li	v1,0
    2044:	00000913 	li	a0,0
    2048:	00000993 	li	a1,0
    204c:	00000a13 	li	a2,0
    2050:	00000a93 	li	a3,0
    2054:	00000b13 	li	a4,0
    2058:	00000b93 	li	a5,0
    205c:	00000c13 	li	a6,0
    2060:	00000c93 	li	a7,0
    2064:	00000d13 	li	t0,0
    2068:	00000d93 	li	t1,0
    206c:	00000e13 	li	t2,0
    2070:	00000e93 	li	t3,0
    2074:	00000f13 	li	t4,0
    2078:	00000f93 	li	gp,0
    207c:	00100093 	li	ra,1
    2080:	00c00113 	li	s0,12
    2084:	002090b3 	sll	ra,ra,s0

00002088 <init1>:
    2088:	fff08093 	addi	ra,ra,-1
    208c:	fe009ee3 	bnez	ra,2088 <init1>
    2090:	00100093 	li	ra,1
    2094:	51c0d073 	csrwi	stats,1
    2098:	00000093 	li	ra,0
    209c:	00000113 	li	s0,0
    20a0:	50b02973 	csrr	a0,hartid
    20a4:	fe091ee3 	bnez	a0,20a0 <init1+0x18>
    20a8:	00021717 	auipc	sp,0x21
    20ac:	29070713 	addi	sp,sp,656 # 23290 <stacktop>
    20b0:	2d4000ef 	jal	2384 <main>
    20b4:	00000013 	nop
    20b8:	00000013 	nop
    20bc:	00000063 	b	20bc <init1+0x34>

000020c0 <__do_global_dtors_aux>:
    20c0:	fe070713 	addi	sp,sp,-32
    20c4:	00272c23 	sw	s0,24(sp)
    20c8:	00021117 	auipc	s0,0x21
    20cc:	29014803 	lbu	v0,656(s0) # 23290 <stacktop>
    20d0:	00172e23 	sw	ra,28(sp)
    20d4:	00372a23 	sw	s1,20(sp)
    20d8:	00472823 	sw	s2,16(sp)
    20dc:	00572623 	sw	s3,12(sp)
    20e0:	06081863 	bnez	v0,2150 <__do_global_dtors_aux+0x90>
    20e4:	00001297 	auipc	s3,0x1
    20e8:	00001217 	auipc	s2,0x1
    20ec:	00021197 	auipc	s1,0x21
    20f0:	25428293 	addi	s3,s3,596 # 3254 <__DTOR_LIST__>
    20f4:	25820213 	addi	s2,s2,600 # 3258 <__DTOR_END__>
    20f8:	40520233 	sub	s2,s2,s3
    20fc:	2941a803 	lw	v0,660(s1) # 23294 <dtor_idx.2406>
    2100:	40225213 	srai	s2,s2,0x2
    2104:	fff20213 	addi	s2,s2,-1
    2108:	02487263 	bleu	s2,v0,212c <__do_global_dtors_aux+0x6c>
    210c:	00180813 	addi	v0,v0,1
    2110:	00281893 	slli	v1,v0,0x2
    2114:	011288b3 	add	v1,s3,v1
    2118:	0008a883 	lw	v1,0(v1)
    211c:	2901aa23 	sw	v0,660(s1)
    2120:	000880e7 	jalr	v1
    2124:	2941a803 	lw	v0,660(s1)
    2128:	fe4862e3 	bltu	v0,s2,210c <__do_global_dtors_aux+0x4c>
    212c:	ffffe817 	auipc	v0,0xffffe
    2130:	00000813 	li	v0,0
    2134:	00080a63 	beqz	v0,2148 <__do_global_dtors_aux+0x88>
    2138:	00000917 	auipc	a0,0x0
    213c:	43090913 	addi	a0,a0,1072 # 2430 <__EH_FRAME_BEGIN__>
    2140:	00000d17 	auipc	t0,0x0
    2144:	140d00e7 	jalr	t0,320 # 2140 <__do_global_dtors_aux+0x80>
    2148:	00100813 	li	v0,1
    214c:	29010823 	sb	v0,656(s0)
    2150:	01c72083 	lw	ra,28(sp)
    2154:	01872103 	lw	s0,24(sp)
    2158:	01472183 	lw	s1,20(sp)
    215c:	01072203 	lw	s2,16(sp)
    2160:	00c72283 	lw	s3,12(sp)
    2164:	02070713 	addi	sp,sp,32
    2168:	00008067 	ret

0000216c <call___do_global_dtors_aux>:
    216c:	ff070713 	addi	sp,sp,-16
    2170:	00172623 	sw	ra,12(sp)
    2174:	00c72083 	lw	ra,12(sp)
    2178:	01070713 	addi	sp,sp,16
    217c:	00008067 	ret

00002180 <frame_dummy>:
    2180:	ffffe817 	auipc	v0,0xffffe
    2184:	ff070713 	addi	sp,sp,-16
    2188:	00000813 	li	v0,0
    218c:	00172623 	sw	ra,12(sp)
    2190:	00080e63 	beqz	v0,21ac <frame_dummy+0x2c>
    2194:	00000917 	auipc	a0,0x0
    2198:	00001997 	auipc	a1,0x1
    219c:	43090913 	addi	a0,a0,1072 # 2430 <__EH_FRAME_BEGIN__>
    21a0:	27098993 	addi	a1,a1,624 # 3270 <object.2419>
    21a4:	00000d17 	auipc	t0,0x0
    21a8:	1a4d00e7 	jalr	t0,420 # 21a4 <frame_dummy+0x24>
    21ac:	00001917 	auipc	a0,0x1
    21b0:	25c92803 	lw	v0,604(a0) # 325c <__JCR_END__>
    21b4:	02080063 	beqz	v0,21d4 <frame_dummy+0x54>
    21b8:	ffffed17 	auipc	t0,0xffffe
    21bc:	00000d13 	li	t0,0
    21c0:	000d0a63 	beqz	t0,21d4 <frame_dummy+0x54>
    21c4:	00c72083 	lw	ra,12(sp)
    21c8:	25c90913 	addi	a0,a0,604
    21cc:	01070713 	addi	sp,sp,16
    21d0:	000d0067 	jr	t0
    21d4:	00c72083 	lw	ra,12(sp)
    21d8:	01070713 	addi	sp,sp,16
    21dc:	00008067 	ret

000021e0 <call_frame_dummy>:
    21e0:	ff070713 	addi	sp,sp,-16
    21e4:	00172623 	sw	ra,12(sp)
    21e8:	00c72083 	lw	ra,12(sp)
    21ec:	01070713 	addi	sp,sp,16
    21f0:	00008067 	ret

000021f4 <barrier>:
    21f4:	ffff98b7 	lui	v1,0xffff9
    21f8:	0ff0000f 	fence
    21fc:	00f888b3 	add	v1,v1,tp
    2200:	0008a903 	lw	a0,0(v1)
    2204:	00021817 	auipc	v0,0x21
    2208:	29c80a13 	addi	a2,v0,668 # 2329c <count.1250>
    220c:	00193913 	seqz	a0,a0
    2210:	0128a023 	sw	a0,0(v1)
    2214:	00100913 	li	a0,1
    2218:	012a29af 	amoadd.w	a1,a0,(a2)
    221c:	00001917 	auipc	a0,0x1
    2220:	26492903 	lw	a0,612(a0) # 3264 <ncores>
    2224:	fff90913 	addi	a0,a0,-1
    2228:	01298e63 	beq	a1,a0,2244 <barrier+0x50>
    222c:	0008a903 	lw	a0,0(v1)
    2230:	00021897 	auipc	v1,0x21
    2234:	2988a803 	lw	v0,664(v1) # 23298 <sense.1249>
    2238:	ff281ee3 	bne	v0,a0,2234 <barrier+0x40>
    223c:	0ff0000f 	fence
    2240:	00008067 	ret
    2244:	0008a883 	lw	v1,0(v1)
    2248:	28082e23 	sw	zero,668(v0)
    224c:	00021817 	auipc	v0,0x21
    2250:	29182c23 	sw	v1,664(v0) # 23298 <sense.1249>
    2254:	0ff0000f 	fence
    2258:	00008067 	ret

0000225c <finishTest>:
    225c:	51e91073 	csrw	tohost,a0
    2260:	00008067 	ret

00002264 <verify>:
    2264:	00100813 	li	v0,1
    2268:	05205263 	blez	a0,22ac <verify+0x48>
    226c:	0009aa83 	lw	a3,0(a1)
    2270:	000a2883 	lw	v1,0(a2)
    2274:	00200813 	li	v0,2
    2278:	031a9a63 	bne	a3,v1,22ac <verify+0x48>
    227c:	00000813 	li	v0,0
    2280:	0180006f 	j	2298 <verify+0x34>
    2284:	0049aa83 	lw	a3,4(a1)
    2288:	004a2883 	lw	v1,4(a2)
    228c:	00498993 	addi	a1,a1,4
    2290:	004a0a13 	addi	a2,a2,4
    2294:	011a9a63 	bne	a3,v1,22a8 <verify+0x44>
    2298:	00180813 	addi	v0,v0,1
    229c:	ff2814e3 	bne	v0,a0,2284 <verify+0x20>
    22a0:	00100813 	li	v0,1
    22a4:	00008067 	ret
    22a8:	00200813 	li	v0,2
    22ac:	00008067 	ret

000022b0 <setStats>:
    22b0:	00008067 	ret

000022b4 <vvadd>:
    22b4:	03205a63 	blez	a0,22e8 <vvadd+0x34>
    22b8:	00000813 	li	v0,0
    22bc:	00000893 	li	v1,0
    22c0:	01098bb3 	add	a5,a1,v0
    22c4:	010a0b33 	add	a4,a2,v0
    22c8:	000bac03 	lw	a6,0(a5)
    22cc:	000b2b83 	lw	a5,0(a4)
    22d0:	00188893 	addi	v1,v1,1
    22d4:	010a8b33 	add	a4,a3,v0
    22d8:	017c0bb3 	add	a5,a6,a5
    22dc:	017b2023 	sw	a5,0(a4)
    22e0:	00480813 	addi	v0,v0,4
    22e4:	fd289ee3 	bne	v1,a0,22c0 <vvadd+0xc>
    22e8:	00008067 	ret

000022ec <__do_global_ctors_aux>:
    22ec:	00001817 	auipc	v0,0x1
    22f0:	24c82803 	lw	v0,588(v0) # 324c <_end>
    22f4:	ff070713 	addi	sp,sp,-16
    22f8:	fff00893 	li	v1,-1
    22fc:	00172623 	sw	ra,12(sp)
    2300:	00272423 	sw	s0,8(sp)
    2304:	00372223 	sw	s1,4(sp)
    2308:	03180063 	beq	v0,v1,2328 <__do_global_ctors_aux+0x3c>
    230c:	00001117 	auipc	s0,0x1
    2310:	24c10113 	addi	s0,s0,588 # 324c <_end>
    2314:	fff00193 	li	s1,-1
    2318:	ffc10113 	addi	s0,s0,-4
    231c:	000800e7 	jalr	v0
    2320:	00012803 	lw	v0,0(s0)
    2324:	fe381ae3 	bne	v0,s1,2318 <__do_global_ctors_aux+0x2c>
    2328:	00c72083 	lw	ra,12(sp)
    232c:	00872103 	lw	s0,8(sp)
    2330:	00472183 	lw	s1,4(sp)
    2334:	01070713 	addi	sp,sp,16
    2338:	00008067 	ret

0000233c <call___do_global_ctors_aux>:
    233c:	ff070713 	addi	sp,sp,-16
    2340:	00172623 	sw	ra,12(sp)
    2344:	00c72083 	lw	ra,12(sp)
    2348:	01070713 	addi	sp,sp,16
    234c:	00008067 	ret

Disassembly of section .text.startup:

00002384 <main>:
    2384:	00000817 	auipc	v0,0x0
    2388:	43480813 	addi	v0,v0,1076 # 2434 <input1_data>
    238c:	b5070713 	addi	sp,sp,-1200
    2390:	4b080913 	addi	a0,v0,1200
    2394:	00070c13 	mv	a6,sp
    2398:	00090a93 	mv	a3,a0
    239c:	00070a13 	mv	a2,sp
    23a0:	00090993 	mv	a1,a0
    23a4:	00080893 	mv	v1,v0
    23a8:	0008ab83 	lw	a5,0(v1)
    23ac:	0009ab03 	lw	a4,0(a1)
    23b0:	00488893 	addi	v1,v1,4
    23b4:	00498993 	addi	a1,a1,4
    23b8:	016b8b33 	add	a4,a5,a4
    23bc:	016a2023 	sw	a4,0(a2)
    23c0:	004a0a13 	addi	a2,a2,4
    23c4:	ff5892e3 	bne	v1,a3,23a8 <main+0x24>
    23c8:	000c0893 	mv	v1,a6
    23cc:	00082a03 	lw	a2,0(v0)
    23d0:	00092983 	lw	a1,0(a0)
    23d4:	00480813 	addi	v0,v0,4
    23d8:	00490913 	addi	a0,a0,4
    23dc:	013a09b3 	add	a1,a2,a1
    23e0:	0138a023 	sw	a1,0(v1)
    23e4:	00488893 	addi	v1,v1,4
    23e8:	ff5812e3 	bne	v0,a3,23cc <main+0x48>
    23ec:	00001817 	auipc	v0,0x1
    23f0:	d9480813 	addi	v0,v0,-620 # 2d94 <verify_data>
    23f4:	4b070993 	addi	a1,sp,1200
    23f8:	0080006f 	j	2400 <main+0x7c>
    23fc:	033c0663 	beq	a6,a1,2428 <main+0xa4>
    2400:	000c2903 	lw	a0,0(a6)
    2404:	00082883 	lw	v1,0(v0)
    2408:	004c0c13 	addi	a6,a6,4
    240c:	00480813 	addi	v0,v0,4
    2410:	ff1906e3 	beq	a0,v1,23fc <main+0x78>
    2414:	00200813 	li	v0,2
    2418:	51e81073 	csrw	tohost,v0
    241c:	00000813 	li	v0,0
    2420:	4b070713 	addi	sp,sp,1200
    2424:	00008067 	ret
    2428:	00100813 	li	v0,1
    242c:	fedff06f 	j	2418 <main+0x94>
