
towers.riscv:     file format elf32-littleriscv


Disassembly of section .text:

00002000 <_start>:
    2000:	00000093 	li	ra,0
    2004:	00000113 	li	s0,0
    2008:	00000193 	li	s1,0
    200c:	00000213 	li	s2,0
    2010:	00000293 	li	s3,0
    2014:	00000313 	li	s4,0
    2018:	00000393 	li	s5,0
    201c:	00000413 	li	s6,0
    2020:	00000493 	li	s7,0
    2024:	00000513 	li	s8,0
    2028:	00000593 	li	s9,0
    202c:	00000613 	li	s10,0
    2030:	00000693 	li	s11,0
    2034:	00000713 	li	sp,0
    2038:	00000793 	li	tp,0
    203c:	00000813 	li	v0,0
    2040:	00000893 	li	v1,0
    2044:	00000913 	li	a0,0
    2048:	00000993 	li	a1,0
    204c:	00000a13 	li	a2,0
    2050:	00000a93 	li	a3,0
    2054:	00000b13 	li	a4,0
    2058:	00000b93 	li	a5,0
    205c:	00000c13 	li	a6,0
    2060:	00000c93 	li	a7,0
    2064:	00000d13 	li	t0,0
    2068:	00000d93 	li	t1,0
    206c:	00000e13 	li	t2,0
    2070:	00000e93 	li	t3,0
    2074:	00000f13 	li	t4,0
    2078:	00000f93 	li	gp,0
    207c:	50b02973 	csrr	a0,hartid
    2080:	fe091ee3 	bnez	a0,207c <_start+0x7c>
    2084:	00020717 	auipc	sp,0x20
    2088:	76070713 	add	sp,sp,1888 # 22760 <stacktop>
    208c:	5b0000ef 	jal	263c <main>
    2090:	00000013 	nop
    2094:	00000013 	nop
    2098:	00000063 	b	2098 <_start+0x98>

0000209c <__do_global_dtors_aux>:
    209c:	fe070713 	add	sp,sp,-32
    20a0:	00272c23 	sw	s0,24(sp)
    20a4:	00020117 	auipc	s0,0x20
    20a8:	76014803 	lbu	v0,1888(s0) # 22760 <stacktop>
    20ac:	00172e23 	sw	ra,28(sp)
    20b0:	00372a23 	sw	s1,20(sp)
    20b4:	00472823 	sw	s2,16(sp)
    20b8:	00572623 	sw	s3,12(sp)
    20bc:	06081863 	bnez	v0,212c <__do_global_dtors_aux+0x90>
    20c0:	00000297 	auipc	s3,0x0
    20c4:	00000217 	auipc	s2,0x0
    20c8:	00020197 	auipc	s1,0x20
    20cc:	6f028293 	add	s3,s3,1776 # 26f0 <__DTOR_LIST__>
    20d0:	6f420213 	add	s2,s2,1780 # 26f4 <__DTOR_END__>
    20d4:	40520233 	sub	s2,s2,s3
    20d8:	7641a803 	lw	v0,1892(s1) # 22764 <dtor_idx.2406>
    20dc:	40225213 	sra	s2,s2,0x2
    20e0:	fff20213 	add	s2,s2,-1
    20e4:	02487263 	bleu	s2,v0,2108 <__do_global_dtors_aux+0x6c>
    20e8:	00180813 	add	v0,v0,1
    20ec:	00281893 	sll	v1,v0,0x2
    20f0:	011288b3 	add	v1,s3,v1
    20f4:	0008a883 	lw	v1,0(v1)
    20f8:	7701a223 	sw	v0,1892(s1)
    20fc:	000880e7 	jalr	v1
    2100:	7641a803 	lw	v0,1892(s1)
    2104:	fe4862e3 	bltu	v0,s2,20e8 <__do_global_dtors_aux+0x4c>
    2108:	ffffe817 	auipc	v0,0xffffe
    210c:	00000813 	li	v0,0
    2110:	00080a63 	beqz	v0,2124 <__do_global_dtors_aux+0x88>
    2114:	00000917 	auipc	a0,0x0
    2118:	6dc90913 	add	a0,a0,1756 # 26dc <__EH_FRAME_BEGIN__>
    211c:	00000d17 	auipc	t0,0x0
    2120:	11cd00e7 	jalr	t0,284 # 211c <__do_global_dtors_aux+0x80>
    2124:	00100813 	li	v0,1
    2128:	77010023 	sb	v0,1888(s0)
    212c:	01c72083 	lw	ra,28(sp)
    2130:	01872103 	lw	s0,24(sp)
    2134:	01472183 	lw	s1,20(sp)
    2138:	01072203 	lw	s2,16(sp)
    213c:	00c72283 	lw	s3,12(sp)
    2140:	02070713 	add	sp,sp,32
    2144:	00008067 	ret

00002148 <call___do_global_dtors_aux>:
    2148:	ff070713 	add	sp,sp,-16
    214c:	00172623 	sw	ra,12(sp)
    2150:	00c72083 	lw	ra,12(sp)
    2154:	01070713 	add	sp,sp,16
    2158:	00008067 	ret

0000215c <frame_dummy>:
    215c:	ffffe817 	auipc	v0,0xffffe
    2160:	ff070713 	add	sp,sp,-16
    2164:	00000813 	li	v0,0
    2168:	00172623 	sw	ra,12(sp)
    216c:	00080e63 	beqz	v0,2188 <frame_dummy+0x2c>
    2170:	00000917 	auipc	a0,0x0
    2174:	00000997 	auipc	a1,0x0
    2178:	6dc90913 	add	a0,a0,1756 # 26dc <__EH_FRAME_BEGIN__>
    217c:	71098993 	add	a1,a1,1808 # 2710 <object.2419>
    2180:	00000d17 	auipc	t0,0x0
    2184:	180d00e7 	jalr	t0,384 # 2180 <frame_dummy+0x24>
    2188:	00000917 	auipc	a0,0x0
    218c:	6f892803 	lw	v0,1784(a0) # 26f8 <__JCR_END__>
    2190:	02080063 	beqz	v0,21b0 <frame_dummy+0x54>
    2194:	ffffed17 	auipc	t0,0xffffe
    2198:	00000d13 	li	t0,0
    219c:	000d0a63 	beqz	t0,21b0 <frame_dummy+0x54>
    21a0:	00c72083 	lw	ra,12(sp)
    21a4:	6f890913 	add	a0,a0,1784
    21a8:	01070713 	add	sp,sp,16
    21ac:	000d0067 	jr	t0
    21b0:	00c72083 	lw	ra,12(sp)
    21b4:	01070713 	add	sp,sp,16
    21b8:	00008067 	ret

000021bc <call_frame_dummy>:
    21bc:	ff070713 	add	sp,sp,-16
    21c0:	00172623 	sw	ra,12(sp)
    21c4:	00c72083 	lw	ra,12(sp)
    21c8:	01070713 	add	sp,sp,16
    21cc:	00008067 	ret

000021d0 <barrier>:
    21d0:	ffff98b7 	lui	v1,0xffff9
    21d4:	0ff0000f 	fence
    21d8:	00f888b3 	add	v1,v1,tp
    21dc:	0008a903 	lw	a0,0(v1)
    21e0:	00020817 	auipc	v0,0x20
    21e4:	77480a13 	add	a2,v0,1908 # 22774 <count.1250>
    21e8:	00193913 	seqz	a0,a0
    21ec:	0128a023 	sw	a0,0(v1)
    21f0:	00100913 	li	a0,1
    21f4:	012a29af 	amoadd.w	a1,a0,(a2)
    21f8:	00000917 	auipc	a0,0x0
    21fc:	70092903 	lw	a0,1792(a0) # 2700 <ncores>
    2200:	fff90913 	add	a0,a0,-1
    2204:	01298e63 	beq	a1,a0,2220 <barrier+0x50>
    2208:	0008a903 	lw	a0,0(v1)
    220c:	00020897 	auipc	v1,0x20
    2210:	7708a803 	lw	v0,1904(v1) # 22770 <sense.1249>
    2214:	ff281ee3 	bne	v0,a0,2210 <barrier+0x40>
    2218:	0ff0000f 	fence
    221c:	00008067 	ret
    2220:	0008a883 	lw	v1,0(v1)
    2224:	76082a23 	sw	zero,1908(v0)
    2228:	00020817 	auipc	v0,0x20
    222c:	77182823 	sw	v1,1904(v0) # 22770 <sense.1249>
    2230:	0ff0000f 	fence
    2234:	00008067 	ret

00002238 <finishTest>:
    2238:	51e91073 	csrw	tohost,a0
    223c:	00008067 	ret

00002240 <setStats>:
    2240:	00008067 	ret

00002244 <list_getSize>:
    2244:	00092803 	lw	v0,0(a0)
    2248:	00008067 	ret

0000224c <list_init>:
    224c:	00092023 	sw	zero,0(a0)
    2250:	00092223 	sw	zero,4(a0)
    2254:	00008067 	ret

00002258 <list_push>:
    2258:	00020897 	auipc	v1,0x20
    225c:	76888893 	add	v1,v1,1896 # 22768 <g_nodeFreeList>
    2260:	0048a803 	lw	v0,4(v1)
    2264:	00092a03 	lw	a2,0(a0)
    2268:	00482a83 	lw	a3,4(v0)
    226c:	001a0a13 	add	a2,a2,1
    2270:	0158a223 	sw	a3,4(v1)
    2274:	00492883 	lw	v1,4(a0)
    2278:	01182223 	sw	v1,4(v0)
    227c:	01092223 	sw	v0,4(a0)
    2280:	01382023 	sw	a1,0(v0)
    2284:	01492023 	sw	a2,0(a0)
    2288:	00008067 	ret

0000228c <list_pop>:
    228c:	00492883 	lw	v1,4(a0)
    2290:	00020997 	auipc	a1,0x20
    2294:	00092a03 	lw	a2,0(a0)
    2298:	0048aa83 	lw	a3,4(v1)
    229c:	0008a803 	lw	v0,0(v1)
    22a0:	76898993 	add	a1,a1,1896 # 22768 <g_nodeFreeList>
    22a4:	01592223 	sw	a3,4(a0)
    22a8:	0049aa83 	lw	a3,4(a1)
    22ac:	fffa0a13 	add	a2,a2,-1
    22b0:	0158a223 	sw	a3,4(v1)
    22b4:	0119a223 	sw	v1,4(a1)
    22b8:	01492023 	sw	a2,0(a0)
    22bc:	00008067 	ret

000022c0 <list_clear>:
    22c0:	00092883 	lw	v1,0(a0)
    22c4:	03105863 	blez	v1,22f4 <list_clear+0x34>
    22c8:	00020997 	auipc	a1,0x20
    22cc:	76898993 	add	a1,a1,1896 # 22768 <g_nodeFreeList>
    22d0:	00492803 	lw	v0,4(a0)
    22d4:	fff88893 	add	v1,v1,-1
    22d8:	00482a03 	lw	a2,4(v0)
    22dc:	01492223 	sw	a2,4(a0)
    22e0:	0049aa03 	lw	a2,4(a1)
    22e4:	01482223 	sw	a2,4(v0)
    22e8:	0109a223 	sw	v0,4(a1)
    22ec:	fe0892e3 	bnez	v1,22d0 <list_clear+0x10>
    22f0:	00092023 	sw	zero,0(a0)
    22f4:	00008067 	ret

000022f8 <towers_init>:
    22f8:	01392023 	sw	a1,0(a0)
    22fc:	00092223 	sw	zero,4(a0)
    2300:	00092423 	sw	zero,8(a0)
    2304:	00092623 	sw	zero,12(a0)
    2308:	00092823 	sw	zero,16(a0)
    230c:	00092a23 	sw	zero,20(a0)
    2310:	00092c23 	sw	zero,24(a0)
    2314:	00092e23 	sw	zero,28(a0)
    2318:	05305263 	blez	a1,235c <towers_init+0x64>
    231c:	00020b17 	auipc	a4,0x20
    2320:	768b0b13 	add	a4,a4,1896 # 22768 <g_nodeFreeList>
    2324:	004b2803 	lw	v0,4(a4)
    2328:	00098893 	mv	v1,a1
    232c:	00000a93 	li	a3,0
    2330:	00c0006f 	j	233c <towers_init+0x44>
    2334:	00080a93 	mv	a3,v0
    2338:	000a0813 	mv	v0,a2
    233c:	01182023 	sw	v1,0(v0)
    2340:	fff88893 	add	v1,v1,-1
    2344:	00482a03 	lw	a2,4(v0)
    2348:	01582223 	sw	a3,4(v0)
    234c:	fe0894e3 	bnez	v1,2334 <towers_init+0x3c>
    2350:	014b2223 	sw	a2,4(a4)
    2354:	01092623 	sw	v0,12(a0)
    2358:	01392423 	sw	a1,8(a0)
    235c:	00008067 	ret

00002360 <towers_clear>:
    2360:	00892883 	lw	v1,8(a0)
    2364:	03105e63 	blez	v1,23a0 <towers_clear+0x40>
    2368:	00020a97 	auipc	a3,0x20
    236c:	768a8a93 	add	a3,a3,1896 # 22768 <g_nodeFreeList>
    2370:	00c92803 	lw	v0,12(a0)
    2374:	004aaa03 	lw	a2,4(a3)
    2378:	00c0006f 	j	2384 <towers_clear+0x24>
    237c:	00080a13 	mv	a2,v0
    2380:	00098813 	mv	v0,a1
    2384:	fff88893 	add	v1,v1,-1
    2388:	00482983 	lw	a1,4(v0)
    238c:	01482223 	sw	a2,4(v0)
    2390:	fe0896e3 	bnez	v1,237c <towers_clear+0x1c>
    2394:	01392623 	sw	a1,12(a0)
    2398:	010aa223 	sw	v0,4(a3)
    239c:	00092423 	sw	zero,8(a0)
    23a0:	01092883 	lw	v1,16(a0)
    23a4:	03105e63 	blez	v1,23e0 <towers_clear+0x80>
    23a8:	00020a97 	auipc	a3,0x20
    23ac:	768a8a93 	add	a3,a3,1896 # 22768 <g_nodeFreeList>
    23b0:	01492803 	lw	v0,20(a0)
    23b4:	004aaa03 	lw	a2,4(a3)
    23b8:	00c0006f 	j	23c4 <towers_clear+0x64>
    23bc:	00080a13 	mv	a2,v0
    23c0:	00098813 	mv	v0,a1
    23c4:	fff88893 	add	v1,v1,-1
    23c8:	00482983 	lw	a1,4(v0)
    23cc:	01482223 	sw	a2,4(v0)
    23d0:	fe0896e3 	bnez	v1,23bc <towers_clear+0x5c>
    23d4:	010aa223 	sw	v0,4(a3)
    23d8:	01392a23 	sw	a1,20(a0)
    23dc:	00092823 	sw	zero,16(a0)
    23e0:	01892883 	lw	v1,24(a0)
    23e4:	03105e63 	blez	v1,2420 <towers_clear+0xc0>
    23e8:	00020a97 	auipc	a3,0x20
    23ec:	768a8a93 	add	a3,a3,1896 # 22768 <g_nodeFreeList>
    23f0:	01c92803 	lw	v0,28(a0)
    23f4:	004aaa03 	lw	a2,4(a3)
    23f8:	00c0006f 	j	2404 <towers_clear+0xa4>
    23fc:	00080a13 	mv	a2,v0
    2400:	00098813 	mv	v0,a1
    2404:	fff88893 	add	v1,v1,-1
    2408:	00482983 	lw	a1,4(v0)
    240c:	01482223 	sw	a2,4(v0)
    2410:	fe0896e3 	bnez	v1,23fc <towers_clear+0x9c>
    2414:	010aa223 	sw	v0,4(a3)
    2418:	01392e23 	sw	a1,28(a0)
    241c:	00092c23 	sw	zero,24(a0)
    2420:	00092983 	lw	a1,0(a0)
    2424:	ed5ff06f 	j	22f8 <towers_init>

00002428 <towers_solve_h>:
    2428:	fe070713 	add	sp,sp,-32
    242c:	00100813 	li	v0,1
    2430:	00272c23 	sw	s0,24(sp)
    2434:	00372a23 	sw	s1,20(sp)
    2438:	00472823 	sw	s2,16(sp)
    243c:	00572623 	sw	s3,12(sp)
    2440:	00672423 	sw	s4,8(sp)
    2444:	00172e23 	sw	ra,28(sp)
    2448:	00098193 	mv	s1,a1
    244c:	00090313 	mv	s4,a0
    2450:	000a0113 	mv	s0,a2
    2454:	000a8213 	mv	s2,a3
    2458:	000b0293 	mv	s3,a4
    245c:	01099663 	bne	a1,v0,2468 <towers_solve_h+0x40>
    2460:	04c0006f 	j	24ac <towers_solve_h+0x84>
    2464:	00088213 	mv	s2,v1
    2468:	fff18193 	add	s1,s1,-1
    246c:	00010a13 	mv	a2,s0
    2470:	00018993 	mv	a1,s1
    2474:	00028a93 	mv	a3,s3
    2478:	00020b13 	mv	a4,s2
    247c:	00030913 	mv	a0,s4
    2480:	fa9ff0ef 	jal	2428 <towers_solve_h>
    2484:	00010a13 	mv	a2,s0
    2488:	00030913 	mv	a0,s4
    248c:	00020a93 	mv	a3,s2
    2490:	00100993 	li	a1,1
    2494:	00028b13 	mv	a4,s3
    2498:	f91ff0ef 	jal	2428 <towers_solve_h>
    249c:	00100813 	li	v0,1
    24a0:	00010893 	mv	v1,s0
    24a4:	00020113 	mv	s0,s2
    24a8:	fb019ee3 	bne	s1,v0,2464 <towers_solve_h+0x3c>
    24ac:	00412803 	lw	v0,4(s0)
    24b0:	00012983 	lw	a1,0(s0)
    24b4:	00432883 	lw	v1,4(s4)
    24b8:	00482903 	lw	a0,4(v0)
    24bc:	fff98993 	add	a1,a1,-1
    24c0:	01312023 	sw	a1,0(s0)
    24c4:	01212223 	sw	a0,4(s0)
    24c8:	0002a903 	lw	a0,0(s3)
    24cc:	0042a983 	lw	a1,4(s3)
    24d0:	01c72083 	lw	ra,28(sp)
    24d4:	00188893 	add	v1,v1,1
    24d8:	00190913 	add	a0,a0,1
    24dc:	01382223 	sw	a1,4(v0)
    24e0:	01872103 	lw	s0,24(sp)
    24e4:	0102a223 	sw	v0,4(s3)
    24e8:	0122a023 	sw	a0,0(s3)
    24ec:	01472183 	lw	s1,20(sp)
    24f0:	01132223 	sw	v1,4(s4)
    24f4:	01072203 	lw	s2,16(sp)
    24f8:	00c72283 	lw	s3,12(sp)
    24fc:	00872303 	lw	s4,8(sp)
    2500:	02070713 	add	sp,sp,32
    2504:	00008067 	ret

00002508 <towers_solve>:
    2508:	00092983 	lw	a1,0(a0)
    250c:	00890a13 	add	a2,a0,8
    2510:	01090a93 	add	a3,a0,16
    2514:	01890b13 	add	a4,a0,24
    2518:	f11ff06f 	j	2428 <towers_solve_h>

0000251c <towers_verify>:
    251c:	00892883 	lw	v1,8(a0)
    2520:	00200813 	li	v0,2
    2524:	00088463 	beqz	v1,252c <towers_verify+0x10>
    2528:	00008067 	ret
    252c:	01092883 	lw	v1,16(a0)
    2530:	00300813 	li	v0,3
    2534:	fe089ae3 	bnez	v1,2528 <towers_verify+0xc>
    2538:	00092a03 	lw	a2,0(a0)
    253c:	01892883 	lw	v1,24(a0)
    2540:	00400813 	li	v0,4
    2544:	ff1a12e3 	bne	a2,v1,2528 <towers_verify+0xc>
    2548:	01c92883 	lw	v1,28(a0)
    254c:	02088863 	beqz	v1,257c <towers_verify+0x60>
    2550:	0008aa83 	lw	a3,0(v1)
    2554:	00100993 	li	a1,1
    2558:	00500813 	li	v0,5
    255c:	fd3a96e3 	bne	a3,a1,2528 <towers_verify+0xc>
    2560:	00100813 	li	v0,1
    2564:	00c0006f 	j	2570 <towers_verify+0x54>
    2568:	0008a803 	lw	v0,0(v1)
    256c:	03381863 	bne	v0,a1,259c <towers_verify+0x80>
    2570:	0048a883 	lw	v1,4(v1)
    2574:	00180993 	add	a1,v0,1
    2578:	fe0898e3 	bnez	v1,2568 <towers_verify+0x4c>
    257c:	00100893 	li	v1,1
    2580:	00492903 	lw	a0,4(a0)
    2584:	014898b3 	sll	v1,v1,a2
    2588:	fff88893 	add	v1,v1,-1
    258c:	00100813 	li	v0,1
    2590:	f9190ce3 	beq	a0,v1,2528 <towers_verify+0xc>
    2594:	00600813 	li	v0,6
    2598:	00008067 	ret
    259c:	00500813 	li	v0,5
    25a0:	00008067 	ret

000025a4 <__do_global_ctors_aux>:
    25a4:	00000817 	auipc	v0,0x0
    25a8:	6e882803 	lw	v0,1768(v0) # 26e8 <_end>
    25ac:	ff070713 	add	sp,sp,-16
    25b0:	fff00893 	li	v1,-1
    25b4:	00172623 	sw	ra,12(sp)
    25b8:	00272423 	sw	s0,8(sp)
    25bc:	00372223 	sw	s1,4(sp)
    25c0:	03180063 	beq	v0,v1,25e0 <__do_global_ctors_aux+0x3c>
    25c4:	00000117 	auipc	s0,0x0
    25c8:	6e810113 	add	s0,s0,1768 # 26e8 <_end>
    25cc:	fff00193 	li	s1,-1
    25d0:	ffc10113 	add	s0,s0,-4
    25d4:	000800e7 	jalr	v0
    25d8:	00012803 	lw	v0,0(s0)
    25dc:	fe381ae3 	bne	v0,s1,25d0 <__do_global_ctors_aux+0x2c>
    25e0:	00c72083 	lw	ra,12(sp)
    25e4:	00872103 	lw	s0,8(sp)
    25e8:	00472183 	lw	s1,4(sp)
    25ec:	01070713 	add	sp,sp,16
    25f0:	00008067 	ret

000025f4 <call___do_global_ctors_aux>:
    25f4:	ff070713 	add	sp,sp,-16
    25f8:	00172623 	sw	ra,12(sp)
    25fc:	00c72083 	lw	ra,12(sp)
    2600:	01070713 	add	sp,sp,16
    2604:	00008067 	ret

Disassembly of section .text.startup:

0000263c <main>:
    263c:	00020817 	auipc	v0,0x20
    2640:	00000a17 	auipc	a2,0x0
    2644:	728a0a13 	add	a2,a2,1832 # 2728 <g_nodePool>
    2648:	76880893 	add	v1,v0,1896 # 22768 <g_nodeFreeList>
    264c:	fd070713 	add	sp,sp,-48
    2650:	02172623 	sw	ra,44(sp)
    2654:	0148a223 	sw	a2,4(v1)
    2658:	00700893 	li	v1,7
    265c:	77182423 	sw	v1,1896(v0)
    2660:	06300813 	li	v0,99
    2664:	00000897 	auipc	v1,0x0
    2668:	030a2823 	sw	v0,48(a2)
    266c:	020a2a23 	sw	zero,52(a2)
    2670:	72c88893 	add	v1,v1,1836 # 272c <g_nodePool+0x4>
    2674:	00000813 	li	v0,0
    2678:	00600a93 	li	a3,6
    267c:	00180913 	add	a0,v0,1
    2680:	00391993 	sll	a1,a0,0x3
    2684:	013a09b3 	add	a1,a2,a1
    2688:	ff08ae23 	sw	v0,-4(v1)
    268c:	0138a023 	sw	a1,0(v1)
    2690:	00090813 	mv	v0,a0
    2694:	00888893 	add	v1,v1,8
    2698:	ff5912e3 	bne	a0,a3,267c <main+0x40>
    269c:	00700993 	li	a1,7
    26a0:	00070913 	mv	a0,sp
    26a4:	c55ff0ef 	jal	22f8 <towers_init>
    26a8:	00070913 	mv	a0,sp
    26ac:	e5dff0ef 	jal	2508 <towers_solve>
    26b0:	00070913 	mv	a0,sp
    26b4:	cadff0ef 	jal	2360 <towers_clear>
    26b8:	00070913 	mv	a0,sp
    26bc:	e4dff0ef 	jal	2508 <towers_solve>
    26c0:	00070913 	mv	a0,sp
    26c4:	e59ff0ef 	jal	251c <towers_verify>
    26c8:	51e81073 	csrw	tohost,v0
    26cc:	02c72083 	lw	ra,44(sp)
    26d0:	00000813 	li	v0,0
    26d4:	03070713 	add	sp,sp,48
    26d8:	00008067 	ret
