
vvadd.riscv:     file format elf32-littleriscv


Disassembly of section .text:

00002000 <_start>:
    2000:	00000093 	li	ra,0
    2004:	00000113 	li	s0,0
    2008:	00000193 	li	s1,0
    200c:	00000213 	li	s2,0
    2010:	00000293 	li	s3,0
    2014:	00000313 	li	s4,0
    2018:	00000393 	li	s5,0
    201c:	00000413 	li	s6,0
    2020:	00000493 	li	s7,0
    2024:	00000513 	li	s8,0
    2028:	00000593 	li	s9,0
    202c:	00000613 	li	s10,0
    2030:	00000693 	li	s11,0
    2034:	00000713 	li	sp,0
    2038:	00000793 	li	tp,0
    203c:	00000813 	li	v0,0
    2040:	00000893 	li	v1,0
    2044:	00000913 	li	a0,0
    2048:	00000993 	li	a1,0
    204c:	00000a13 	li	a2,0
    2050:	00000a93 	li	a3,0
    2054:	00000b13 	li	a4,0
    2058:	00000b93 	li	a5,0
    205c:	00000c13 	li	a6,0
    2060:	00000c93 	li	a7,0
    2064:	00000d13 	li	t0,0
    2068:	00000d93 	li	t1,0
    206c:	00000e13 	li	t2,0
    2070:	00000e93 	li	t3,0
    2074:	00000f13 	li	t4,0
    2078:	00000f93 	li	gp,0
    207c:	50b02973 	csrr	a0,hartid
    2080:	fe091ee3 	bnez	a0,207c <_start+0x7c>
    2084:	00021717 	auipc	sp,0x21
    2088:	27070713 	add	sp,sp,624 # 23270 <stacktop>
    208c:	2d4000ef 	jal	2360 <main>
    2090:	00000013 	nop
    2094:	00000013 	nop
    2098:	00000063 	b	2098 <_start+0x98>

0000209c <__do_global_dtors_aux>:
    209c:	fe070713 	add	sp,sp,-32
    20a0:	00272c23 	sw	s0,24(sp)
    20a4:	00021117 	auipc	s0,0x21
    20a8:	27014803 	lbu	v0,624(s0) # 23270 <stacktop>
    20ac:	00172e23 	sw	ra,28(sp)
    20b0:	00372a23 	sw	s1,20(sp)
    20b4:	00472823 	sw	s2,16(sp)
    20b8:	00572623 	sw	s3,12(sp)
    20bc:	06081863 	bnez	v0,212c <__do_global_dtors_aux+0x90>
    20c0:	00001297 	auipc	s3,0x1
    20c4:	00001217 	auipc	s2,0x1
    20c8:	00021197 	auipc	s1,0x21
    20cc:	23028293 	add	s3,s3,560 # 3230 <__DTOR_LIST__>
    20d0:	23420213 	add	s2,s2,564 # 3234 <__DTOR_END__>
    20d4:	40520233 	sub	s2,s2,s3
    20d8:	2741a803 	lw	v0,628(s1) # 23274 <dtor_idx.2406>
    20dc:	40225213 	sra	s2,s2,0x2
    20e0:	fff20213 	add	s2,s2,-1
    20e4:	02487263 	bleu	s2,v0,2108 <__do_global_dtors_aux+0x6c>
    20e8:	00180813 	add	v0,v0,1
    20ec:	00281893 	sll	v1,v0,0x2
    20f0:	011288b3 	add	v1,s3,v1
    20f4:	0008a883 	lw	v1,0(v1)
    20f8:	2701aa23 	sw	v0,628(s1)
    20fc:	000880e7 	jalr	v1
    2100:	2741a803 	lw	v0,628(s1)
    2104:	fe4862e3 	bltu	v0,s2,20e8 <__do_global_dtors_aux+0x4c>
    2108:	ffffe817 	auipc	v0,0xffffe
    210c:	00000813 	li	v0,0
    2110:	00080a63 	beqz	v0,2124 <__do_global_dtors_aux+0x88>
    2114:	00000917 	auipc	a0,0x0
    2118:	40c90913 	add	a0,a0,1036 # 240c <__EH_FRAME_BEGIN__>
    211c:	00000d17 	auipc	t0,0x0
    2120:	11cd00e7 	jalr	t0,284 # 211c <__do_global_dtors_aux+0x80>
    2124:	00100813 	li	v0,1
    2128:	27010823 	sb	v0,624(s0)
    212c:	01c72083 	lw	ra,28(sp)
    2130:	01872103 	lw	s0,24(sp)
    2134:	01472183 	lw	s1,20(sp)
    2138:	01072203 	lw	s2,16(sp)
    213c:	00c72283 	lw	s3,12(sp)
    2140:	02070713 	add	sp,sp,32
    2144:	00008067 	ret

00002148 <call___do_global_dtors_aux>:
    2148:	ff070713 	add	sp,sp,-16
    214c:	00172623 	sw	ra,12(sp)
    2150:	00c72083 	lw	ra,12(sp)
    2154:	01070713 	add	sp,sp,16
    2158:	00008067 	ret

0000215c <frame_dummy>:
    215c:	ffffe817 	auipc	v0,0xffffe
    2160:	ff070713 	add	sp,sp,-16
    2164:	00000813 	li	v0,0
    2168:	00172623 	sw	ra,12(sp)
    216c:	00080e63 	beqz	v0,2188 <frame_dummy+0x2c>
    2170:	00000917 	auipc	a0,0x0
    2174:	00001997 	auipc	a1,0x1
    2178:	40c90913 	add	a0,a0,1036 # 240c <__EH_FRAME_BEGIN__>
    217c:	25098993 	add	a1,a1,592 # 3250 <object.2419>
    2180:	00000d17 	auipc	t0,0x0
    2184:	180d00e7 	jalr	t0,384 # 2180 <frame_dummy+0x24>
    2188:	00001917 	auipc	a0,0x1
    218c:	23892803 	lw	v0,568(a0) # 3238 <__JCR_END__>
    2190:	02080063 	beqz	v0,21b0 <frame_dummy+0x54>
    2194:	ffffed17 	auipc	t0,0xffffe
    2198:	00000d13 	li	t0,0
    219c:	000d0a63 	beqz	t0,21b0 <frame_dummy+0x54>
    21a0:	00c72083 	lw	ra,12(sp)
    21a4:	23890913 	add	a0,a0,568
    21a8:	01070713 	add	sp,sp,16
    21ac:	000d0067 	jr	t0
    21b0:	00c72083 	lw	ra,12(sp)
    21b4:	01070713 	add	sp,sp,16
    21b8:	00008067 	ret

000021bc <call_frame_dummy>:
    21bc:	ff070713 	add	sp,sp,-16
    21c0:	00172623 	sw	ra,12(sp)
    21c4:	00c72083 	lw	ra,12(sp)
    21c8:	01070713 	add	sp,sp,16
    21cc:	00008067 	ret

000021d0 <barrier>:
    21d0:	ffff98b7 	lui	v1,0xffff9
    21d4:	0ff0000f 	fence
    21d8:	00f888b3 	add	v1,v1,tp
    21dc:	0008a903 	lw	a0,0(v1)
    21e0:	00021817 	auipc	v0,0x21
    21e4:	27c80a13 	add	a2,v0,636 # 2327c <count.1250>
    21e8:	00193913 	seqz	a0,a0
    21ec:	0128a023 	sw	a0,0(v1)
    21f0:	00100913 	li	a0,1
    21f4:	012a29af 	amoadd.w	a1,a0,(a2)
    21f8:	00001917 	auipc	a0,0x1
    21fc:	24092903 	lw	a0,576(a0) # 3240 <ncores>
    2200:	fff90913 	add	a0,a0,-1
    2204:	01298e63 	beq	a1,a0,2220 <barrier+0x50>
    2208:	0008a903 	lw	a0,0(v1)
    220c:	00021897 	auipc	v1,0x21
    2210:	2788a803 	lw	v0,632(v1) # 23278 <sense.1249>
    2214:	ff281ee3 	bne	v0,a0,2210 <barrier+0x40>
    2218:	0ff0000f 	fence
    221c:	00008067 	ret
    2220:	0008a883 	lw	v1,0(v1)
    2224:	26082e23 	sw	zero,636(v0)
    2228:	00021817 	auipc	v0,0x21
    222c:	27182c23 	sw	v1,632(v0) # 23278 <sense.1249>
    2230:	0ff0000f 	fence
    2234:	00008067 	ret

00002238 <finishTest>:
    2238:	51e91073 	csrw	tohost,a0
    223c:	00008067 	ret

00002240 <verify>:
    2240:	00100813 	li	v0,1
    2244:	05205263 	blez	a0,2288 <verify+0x48>
    2248:	0009aa83 	lw	a3,0(a1)
    224c:	000a2883 	lw	v1,0(a2)
    2250:	00200813 	li	v0,2
    2254:	031a9a63 	bne	a3,v1,2288 <verify+0x48>
    2258:	00000813 	li	v0,0
    225c:	0180006f 	j	2274 <verify+0x34>
    2260:	0049aa83 	lw	a3,4(a1)
    2264:	004a2883 	lw	v1,4(a2)
    2268:	00498993 	add	a1,a1,4
    226c:	004a0a13 	add	a2,a2,4
    2270:	011a9a63 	bne	a3,v1,2284 <verify+0x44>
    2274:	00180813 	add	v0,v0,1
    2278:	ff2814e3 	bne	v0,a0,2260 <verify+0x20>
    227c:	00100813 	li	v0,1
    2280:	00008067 	ret
    2284:	00200813 	li	v0,2
    2288:	00008067 	ret

0000228c <setStats>:
    228c:	00008067 	ret

00002290 <vvadd>:
    2290:	03205a63 	blez	a0,22c4 <vvadd+0x34>
    2294:	00000813 	li	v0,0
    2298:	00000893 	li	v1,0
    229c:	01098bb3 	add	a5,a1,v0
    22a0:	010a0b33 	add	a4,a2,v0
    22a4:	000bac03 	lw	a6,0(a5)
    22a8:	000b2b83 	lw	a5,0(a4)
    22ac:	00188893 	add	v1,v1,1
    22b0:	010a8b33 	add	a4,a3,v0
    22b4:	017c0bb3 	add	a5,a6,a5
    22b8:	017b2023 	sw	a5,0(a4)
    22bc:	00480813 	add	v0,v0,4
    22c0:	fd289ee3 	bne	v1,a0,229c <vvadd+0xc>
    22c4:	00008067 	ret

000022c8 <__do_global_ctors_aux>:
    22c8:	00001817 	auipc	v0,0x1
    22cc:	22882803 	lw	v0,552(v0) # 3228 <_end>
    22d0:	ff070713 	add	sp,sp,-16
    22d4:	fff00893 	li	v1,-1
    22d8:	00172623 	sw	ra,12(sp)
    22dc:	00272423 	sw	s0,8(sp)
    22e0:	00372223 	sw	s1,4(sp)
    22e4:	03180063 	beq	v0,v1,2304 <__do_global_ctors_aux+0x3c>
    22e8:	00001117 	auipc	s0,0x1
    22ec:	22810113 	add	s0,s0,552 # 3228 <_end>
    22f0:	fff00193 	li	s1,-1
    22f4:	ffc10113 	add	s0,s0,-4
    22f8:	000800e7 	jalr	v0
    22fc:	00012803 	lw	v0,0(s0)
    2300:	fe381ae3 	bne	v0,s1,22f4 <__do_global_ctors_aux+0x2c>
    2304:	00c72083 	lw	ra,12(sp)
    2308:	00872103 	lw	s0,8(sp)
    230c:	00472183 	lw	s1,4(sp)
    2310:	01070713 	add	sp,sp,16
    2314:	00008067 	ret

00002318 <call___do_global_ctors_aux>:
    2318:	ff070713 	add	sp,sp,-16
    231c:	00172623 	sw	ra,12(sp)
    2320:	00c72083 	lw	ra,12(sp)
    2324:	01070713 	add	sp,sp,16
    2328:	00008067 	ret

Disassembly of section .text.startup:

00002360 <main>:
    2360:	00000817 	auipc	v0,0x0
    2364:	41080813 	add	v0,v0,1040 # 2410 <input1_data>
    2368:	b5070713 	add	sp,sp,-1200
    236c:	4b080913 	add	a0,v0,1200
    2370:	00070c13 	mv	a6,sp
    2374:	00090a93 	mv	a3,a0
    2378:	00070a13 	mv	a2,sp
    237c:	00090993 	mv	a1,a0
    2380:	00080893 	mv	v1,v0
    2384:	0008ab83 	lw	a5,0(v1)
    2388:	0009ab03 	lw	a4,0(a1)
    238c:	00488893 	add	v1,v1,4
    2390:	00498993 	add	a1,a1,4
    2394:	016b8b33 	add	a4,a5,a4
    2398:	016a2023 	sw	a4,0(a2)
    239c:	004a0a13 	add	a2,a2,4
    23a0:	ff5892e3 	bne	v1,a3,2384 <main+0x24>
    23a4:	000c0893 	mv	v1,a6
    23a8:	00082a03 	lw	a2,0(v0)
    23ac:	00092983 	lw	a1,0(a0)
    23b0:	00480813 	add	v0,v0,4
    23b4:	00490913 	add	a0,a0,4
    23b8:	013a09b3 	add	a1,a2,a1
    23bc:	0138a023 	sw	a1,0(v1)
    23c0:	00488893 	add	v1,v1,4
    23c4:	ff5812e3 	bne	v0,a3,23a8 <main+0x48>
    23c8:	00001817 	auipc	v0,0x1
    23cc:	d7080813 	add	v0,v0,-656 # 2d70 <verify_data>
    23d0:	4b070993 	add	a1,sp,1200
    23d4:	0080006f 	j	23dc <main+0x7c>
    23d8:	033c0663 	beq	a6,a1,2404 <main+0xa4>
    23dc:	000c2903 	lw	a0,0(a6)
    23e0:	00082883 	lw	v1,0(v0)
    23e4:	004c0c13 	add	a6,a6,4
    23e8:	00480813 	add	v0,v0,4
    23ec:	ff1906e3 	beq	a0,v1,23d8 <main+0x78>
    23f0:	00200813 	li	v0,2
    23f4:	51e81073 	csrw	tohost,v0
    23f8:	00000813 	li	v0,0
    23fc:	4b070713 	add	sp,sp,1200
    2400:	00008067 	ret
    2404:	00100813 	li	v0,1
    2408:	fedff06f 	j	23f4 <main+0x94>
